 ref_gl

 Timestamp is 53d971a8 (Thu Jul 31 00:28:56 2014)

 Preferred load address is 10000000

 Start         Length     Name                   Class
 0001:00000000 0003b5deH .text                   CODE
 0002:00000000 000001b8H .idata$5                DATA
 0002:000001c0 00006120H .rdata                  DATA
 0002:000062e0 00000050H .idata$2                DATA
 0002:00006330 00000014H .idata$3                DATA
 0002:00006344 000001b8H .idata$4                DATA
 0002:000064fc 0000078cH .idata$6                DATA
 0002:00006c90 00000047H .edata                  DATA
 0003:00000000 00000004H .CRT$XCA                DATA
 0003:00000004 00000004H .CRT$XCZ                DATA
 0003:00000008 00000004H .CRT$XIA                DATA
 0003:0000000c 00000008H .CRT$XIC                DATA
 0003:00000014 00000004H .CRT$XIZ                DATA
 0003:00000018 00000004H .CRT$XPA                DATA
 0003:0000001c 00000004H .CRT$XPX                DATA
 0003:00000020 00000004H .CRT$XPZ                DATA
 0003:00000024 00000004H .CRT$XTA                DATA
 0003:00000028 00000004H .CRT$XTZ                DATA
 0003:00000030 0000690cH .data                   DATA
 0003:00006940 000b1e48H .bss                    DATA

  Address         Publics by Value              Rva+Base     Lib:Object

 0001:00000000       _Draw_InitLocal            10001000 f   gl_draw.obj
 0001:00000060       _Draw_Char                 10001060 f   gl_draw.obj
 0001:000001b0       _Draw_FindPic              100011b0 f   gl_draw.obj
 0001:00000220       _Draw_GetPicSize           10001220 f   gl_draw.obj
 0001:00000270       _Draw_StretchPic           10001270 f   gl_draw.obj
 0001:00000400       _Draw_Pic                  10001400 f   gl_draw.obj
 0001:000005a0       _Draw_TileClear            100015a0 f   gl_draw.obj
 0001:00000790       _Draw_Fill                 10001790 f   gl_draw.obj
 0001:000008d0       _Draw_FadeScreen           100018d0 f   gl_draw.obj
 0001:000009c0       _Draw_StretchRaw           100019c0 f   gl_draw.obj
 0001:00000e00       _GL_SetTexturePalette      10001e00 f   gl_image.obj
 0001:00000ee0       _GL_EnableMultitexture     10001ee0 f   gl_image.obj
 0001:00000f80       _GL_SelectTexture          10001f80 f   gl_image.obj
 0001:00001010       _GL_TexEnv                 10002010 f   gl_image.obj
 0001:00001070       _GL_Bind                   10002070 f   gl_image.obj
 0001:000010e0       _GL_MBind                  100020e0 f   gl_image.obj
 0001:00001130       _GL_TextureMode            10002130 f   gl_image.obj
 0001:00001240       _GL_TextureAlphaMode       10002240 f   gl_image.obj
 0001:000012b0       _GL_TextureSolidMode       100022b0 f   gl_image.obj
 0001:00001320       _GL_ImageList_f            10002320 f   gl_image.obj
 0001:00001470       _Scrap_AllocBlock          10002470 f   gl_image.obj
 0001:000015b0       _Scrap_Upload              100025b0 f   gl_image.obj
 0001:00001600       _LoadPCX                   10002600 f   gl_image.obj
 0001:00001930       _LoadTGA                   10002930 f   gl_image.obj
 0001:00002080       _R_FloodFillSkin           10003080 f   gl_image.obj
 0001:00002490       _GL_ResampleTexture        10003490 f   gl_image.obj
 0001:00002720       _GL_LightScaleTexture      10003720 f   gl_image.obj
 0001:00002840       _GL_MipMap                 10003840 f   gl_image.obj
 0001:000029a0       _GL_BuildPalettedTexture   100039a0 f   gl_image.obj
 0001:00002a40       _GL_Upload32               10003a40 f   gl_image.obj
 0001:000030c0       _GL_Upload8                100040c0 f   gl_image.obj
 0001:00003360       _GL_LoadPic                10004360 f   gl_image.obj
 0001:000036f0       _GL_LoadWal                100046f0 f   gl_image.obj
 0001:000037a0       _GL_FindImage              100047a0 f   gl_image.obj
 0001:00003970       _R_RegisterSkin            10004970 f   gl_image.obj
 0001:00003990       _GL_FreeUnusedImages       10004990 f   gl_image.obj
 0001:00003a30       _Draw_GetPalette           10004a30 f   gl_image.obj
 0001:00003b30       _GL_InitImages             10004b30 f   gl_image.obj
 0001:00003d00       _GL_ShutdownImages         10004d00 f   gl_image.obj
 0001:00003d70       _R_RenderDlight            10004d70 f   gl_light.obj
 0001:00003f20       _R_RenderDlights           10004f20 f   gl_light.obj
 0001:00004010       _R_MarkLights              10005010 f   gl_light.obj
 0001:00004180       _R_PushDlights             10005180 f   gl_light.obj
 0001:00004210       _RecursiveLightPoint       10005210 f   gl_light.obj
 0001:000046a0       _R_LightPoint              100056a0 f   gl_light.obj
 0001:00004850       _R_AddDynamicLights        10005850 f   gl_light.obj
 0001:00004b40       _R_SetCacheState           10005b40 f   gl_light.obj
 0001:00004ba0       _R_BuildLightMap           10005ba0 f   gl_light.obj
 0001:00005440       _GL_LerpVerts              10006440 f   gl_mesh.obj
 0001:00005660       _GL_DrawAliasFrameLerp     10006660 f   gl_mesh.obj
 0001:00005c50       _GL_DrawAliasShadow        10006c50 f   gl_mesh.obj
 0001:00005d80       _R_DrawAliasModel          10006d80 f   gl_mesh.obj
 0001:00006b90       _Mod_PointInLeaf           10007b90 f   gl_model.obj
 0001:00006c50       _Mod_DecompressVis         10007c50 f   gl_model.obj
 0001:00006d20       _Mod_ClusterPVS            10007d20 f   gl_model.obj
 0001:00006d70       _Mod_Modellist_f           10007d70 f   gl_model.obj
 0001:00006e20       _Mod_Init                  10007e20 f   gl_model.obj
 0001:00006e50       _Mod_ForName               10007e50 f   gl_model.obj
 0001:00007100       _Mod_LoadLighting          10008100 f   gl_model.obj
 0001:00007170       _Mod_LoadVisibility        10008170 f   gl_model.obj
 0001:00007290       _Mod_LoadVertexes          10008290 f   gl_model.obj
 0001:00007390       _RadiusFromBounds          10008390 f   gl_model.obj
 0001:00007450       _Mod_LoadSubmodels         10008450 f   gl_model.obj
 0001:000075f0       _Mod_LoadEdges             100085f0 f   gl_model.obj
 0001:000076e0       _Mod_LoadTexinfo           100086e0 f   gl_model.obj
 0001:000078f0       _CalcSurfaceExtents        100088f0 f   gl_model.obj
 0001:00007b10       _Mod_LoadFaces             10008b10 f   gl_model.obj
 0001:00007df0       _Mod_SetParent             10008df0 f   gl_model.obj
 0001:00007e40       _Mod_LoadNodes             10008e40 f   gl_model.obj
 0001:00008060       _Mod_LoadLeafs             10009060 f   gl_model.obj
 0001:00008220       _Mod_LoadMarksurfaces      10009220 f   gl_model.obj
 0001:00008320       _Mod_LoadSurfedges         10009320 f   gl_model.obj
 0001:00008410       _Mod_LoadPlanes            10009410 f   gl_model.obj
 0001:00008570       _Mod_LoadBrushModel        10009570 f   gl_model.obj
 0001:00008810       _Mod_LoadAliasModel        10009810 f   gl_model.obj
 0001:00008c70       _Mod_LoadSpriteModel       10009c70 f   gl_model.obj
 0001:00008e30       _R_BeginRegistration       10009e30 f   gl_model.obj
 0001:00008ee0       _R_RegisterModel           10009ee0 f   gl_model.obj
 0001:00009030       _R_EndRegistration         1000a030 f   gl_model.obj
 0001:000090a0       _Mod_Free                  1000a0a0 f   gl_model.obj
 0001:000090e0       _Mod_FreeAll               1000a0e0 f   gl_model.obj
 0001:00009140       _R_CullBox                 1000a140 f   gl_rmain.obj
 0001:00009250       _R_RotateForEntity         1000a250 f   gl_rmain.obj
 0001:000092d0       _R_DrawSpriteModel         1000a2d0 f   gl_rmain.obj
 0001:000095c0       _R_DrawNullModel           1000a5c0 f   gl_rmain.obj
 0001:00009780       _R_DrawEntitiesOnList      1000a780 f   gl_rmain.obj
 0001:000099a0       _GL_DrawParticles          1000a9a0 f   gl_rmain.obj
 0001:00009bc0       _R_DrawParticles           1000abc0 f   gl_rmain.obj
 0001:00009cf0       _R_PolyBlend               1000acf0 f   gl_rmain.obj
 0001:00009e40       _SignbitsForPlane          1000ae40 f   gl_rmain.obj
 0001:00009ea0       _R_SetFrustum              1000aea0 f   gl_rmain.obj
 0001:0000a000       _R_SetupFrame              1000b000 f   gl_rmain.obj
 0001:0000a250       _MYgluPerspective          1000b250 f   gl_rmain.obj
 0001:0000a300       _R_SetupGL                 1000b300 f   gl_rmain.obj
 0001:0000a5a0       _R_Clear                   1000b5a0 f   gl_rmain.obj
 0001:0000a6b0       _R_Flash                   1000b6b0 f   gl_rmain.obj
 0001:0000a6d0       _R_RenderView              1000b6d0 f   gl_rmain.obj
 0001:0000a7f0       _R_SetGL2D                 1000b7f0 f   gl_rmain.obj
 0001:0000a8d0       _R_SetLightLevel           1000b8d0 f   gl_rmain.obj
 0001:0000a980       _R_RenderFrame             1000b980 f   gl_rmain.obj
 0001:0000a9b0       _R_Register                1000b9b0 f   gl_rmain.obj
 0001:0000afc0       _R_SetMode                 1000bfc0 f   gl_rmain.obj
 0001:0000b190       _R_Init                    1000c190 f   gl_rmain.obj
 0001:0000b990       _R_Shutdown                1000c990 f   gl_rmain.obj
 0001:0000b9f0       _R_BeginFrame              1000c9f0 f   gl_rmain.obj
 0001:0000bd20       _R_SetPalette              1000cd20 f   gl_rmain.obj
 0001:0000be70       _R_DrawBeam                1000ce70 f   gl_rmain.obj
 0001:0000c1f0       _GetRefAPI                 1000d1f0 f   gl_rmain.obj
 0001:0000c2d0       _Sys_Error                 1000d2d0 f   gl_rmain.obj
 0001:0000c320       _Com_Printf                1000d320 f   gl_rmain.obj
 0001:0000c370       _R_InitParticleTexture     1000d370 f   gl_rmisc.obj
 0001:0000c510       _GL_ScreenShot_f           1000d510 f   gl_rmisc.obj
 0001:0000c7c0       _GL_Strings_f              1000d7c0 f   gl_rmisc.obj
 0001:0000c830       _GL_SetDefaultState        1000d830 f   gl_rmisc.obj
 0001:0000ca40       _GL_UpdateSwapInterval     1000da40 f   gl_rmisc.obj
 0001:0000cad0       _R_TextureAnimation        1000dad0 f   gl_rsurf.obj
 0001:0000cb30       _DrawGLPoly                1000db30 f   gl_rsurf.obj
 0001:0000cba0       _DrawGLFlowingPoly         1000dba0 f   gl_rsurf.obj
 0001:0000cc60       _R_DrawTriangleOutlines    1000dc60 f   gl_rsurf.obj
 0001:0000cdb0       _DrawGLPolyChain           1000ddb0 f   gl_rsurf.obj
 0001:0000cee0       _R_BlendLightmaps          1000dee0 f   gl_rsurf.obj
 0001:0000d320       _R_RenderBrushPoly         1000e320 f   gl_rsurf.obj
 0001:0000d5e0       _R_DrawAlphaSurfaces       1000e5e0 f   gl_rsurf.obj
 0001:0000d750       _DrawTextureChains         1000e750 f   gl_rsurf.obj
 0001:0000d930       _R_DrawInlineBModel        1000e930 f   gl_rsurf.obj
 0001:0000e1c0       _R_DrawBrushModel          1000f1c0 f   gl_rsurf.obj
 0001:0000e4c0       _R_RecursiveWorldNode      1000f4c0 f   gl_rsurf.obj
 0001:0000e780       _R_DrawWorld               1000f780 f   gl_rsurf.obj
 0001:0000e920       _R_MarkLeaves              1000f920 f   gl_rsurf.obj
 0001:0000eeb0       _GL_BuildPolygonFromSurface 1000feb0 f   gl_rsurf.obj
 0001:0000f200       _GL_CreateSurfaceLightmap  10010200 f   gl_rsurf.obj
 0001:0000f300       _GL_BeginBuildingLightmaps 10010300 f   gl_rsurf.obj
 0001:0000f4f0       _GL_EndBuildingLightmaps   100104f0 f   gl_rsurf.obj
 0001:0000f520       _BoundPoly                 10010520 f   gl_warp.obj
 0001:0000f600       _SubdividePolygon          10010600 f   gl_warp.obj
 0001:0000fc70       _GL_SubdivideSurface       10010c70 f   gl_warp.obj
 0001:0000fdd0       _EmitWaterPolys            10010dd0 f   gl_warp.obj
 0001:0000ff50       _DrawSkyPolygon            10010f50 f   gl_warp.obj
 0001:00010220       _ClipSkyPolygon            10011220 f   gl_warp.obj
 0001:00010710       _R_AddSkySurface           10011710 f   gl_warp.obj
 0001:00010800       _R_ClearSkyBox             10011800 f   gl_warp.obj
 0001:00010870       _MakeSkyVec                10011870 f   gl_warp.obj
 0001:000109b0       _R_DrawSkyBox              100119b0 f   gl_warp.obj
 0001:00010be0       _R_SetSky                  10011be0 f   gl_warp.obj
 0001:00010da0       _VID_CreateWindow          10011da0 f   glw_imp.obj
 0001:00010fb0       _GLimp_SetMode             10011fb0 f   glw_imp.obj
 0001:00011340       _GLimp_Shutdown            10012340 f   glw_imp.obj
 0001:00011460       _GLimp_Init                10012460 f   glw_imp.obj
 0001:00011520       _GLimp_InitGL              10012520 f   glw_imp.obj
 0001:00011960       _GLimp_BeginFrame          10012960 f   glw_imp.obj
 0001:00011a20       _GLimp_EndFrame            10012a20 f   glw_imp.obj
 0001:00011aa0       _GLimp_AppActivate         10012aa0 f   glw_imp.obj
 0001:00011b00       _RotatePointAroundVector   10012b00 f   q_shared.obj
 0001:00011d40       _AngleVectors              10012d40 f   q_shared.obj
 0001:00011f30       _ProjectPointOnPlane       10012f30 f   q_shared.obj
 0001:00012000       _PerpendicularVector       10013000 f   q_shared.obj
 0001:000120c0       _R_ConcatRotations         100130c0 f   q_shared.obj
 0001:00012270       _R_ConcatTransforms        10013270 f   q_shared.obj
 0001:000124c0       _Q_fabs                    100134c0 f   q_shared.obj
 0001:000124f0       _Q_ftol                    100134f0 f   q_shared.obj
 0001:00012500       _LerpAngle                 10013500 f   q_shared.obj
 0001:00012560       _anglemod                  10013560 f   q_shared.obj
 0001:000125a0       _BoxOnPlaneSide2           100135a0 f   q_shared.obj
 0001:000126b0       _BoxOnPlaneSide            100136b0 f   q_shared.obj
 0001:00012930       _ClearBounds               10013930 f   q_shared.obj
 0001:00012980       _AddPointToBounds          10013980 f   q_shared.obj
 0001:00012a00       _VectorCompare             10013a00 f   q_shared.obj
 0001:00012a50       _VectorNormalize           10013a50 f   q_shared.obj
 0001:00012af0       _VectorNormalize2          10013af0 f   q_shared.obj
 0001:00012b90       _VectorMA                  10013b90 f   q_shared.obj
 0001:00012be0       __DotProduct               10013be0 f   q_shared.obj
 0001:00012c20       __VectorSubtract           10013c20 f   q_shared.obj
 0001:00012c70       __VectorAdd                10013c70 f   q_shared.obj
 0001:00012cc0       __VectorCopy               10013cc0 f   q_shared.obj
 0001:00012d00       _CrossProduct              10013d00 f   q_shared.obj
 0001:00012d70       _VectorLength              10013d70 f   q_shared.obj
 0001:00012dd0       _VectorInverse             10013dd0 f   q_shared.obj
 0001:00012e10       _VectorScale               10013e10 f   q_shared.obj
 0001:00012e50       _Q_log2                    10013e50 f   q_shared.obj
 0001:00012e90       _COM_SkipPath              10013e90 f   q_shared.obj
 0001:00012ee0       _COM_StripExtension        10013ee0 f   q_shared.obj
 0001:00012f30       _COM_FileExtension         10013f30 f   q_shared.obj
 0001:00012fd0       _COM_FileBase              10013fd0 f   q_shared.obj
 0001:00013080       _COM_FilePath              10014080 f   q_shared.obj
 0001:000130f0       _COM_DefaultExtension      100140f0 f   q_shared.obj
 0001:00013160       _BigShort                  10014160 f   q_shared.obj
 0001:00013180       _LittleShort               10014180 f   q_shared.obj
 0001:000131a0       _BigLong                   100141a0 f   q_shared.obj
 0001:000131c0       _LittleLong                100141c0 f   q_shared.obj
 0001:000131e0       _BigFloat                  100141e0 f   q_shared.obj
 0001:00013200       _LittleFloat               10014200 f   q_shared.obj
 0001:00013220       _ShortSwap                 10014220 f   q_shared.obj
 0001:00013270       _ShortNoSwap               10014270 f   q_shared.obj
 0001:00013290       _LongSwap                  10014290 f   q_shared.obj
 0001:00013310       _LongNoSwap                10014310 f   q_shared.obj
 0001:00013330       _FloatSwap                 10014330 f   q_shared.obj
 0001:00013370       _FloatNoSwap               10014370 f   q_shared.obj
 0001:00013390       _Swap_Init                 10014390 f   q_shared.obj
 0001:00013440       _va                        10014440 f   q_shared.obj
 0001:00013480       _COM_Parse                 10014480 f   q_shared.obj
 0001:00013600       _Com_PageInMemory          10014600 f   q_shared.obj
 0001:00013650       _Q_stricmp                 10014650 f   q_shared.obj
 0001:00013670       _Q_strncasecmp             10014670 f   q_shared.obj
 0001:00013700       _Q_strcasecmp              10014700 f   q_shared.obj
 0001:00013730       _Com_sprintf               10014730 f   q_shared.obj
 0001:000137b0       _Info_ValueForKey          100147b0 f   q_shared.obj
 0001:00013910       _Info_RemoveKey            10014910 f   q_shared.obj
 0001:00013a60       _Info_Validate             10014a60 f   q_shared.obj
 0001:00013ab0       _Info_SetValueForKey       10014ab0 f   q_shared.obj
 0001:00013cb0       _Hunk_Begin                10014cb0 f   q_shwin.obj
 0001:00013d10       _Hunk_Alloc                10014d10 f   q_shwin.obj
 0001:00013dc0       _Hunk_End                  10014dc0 f   q_shwin.obj
 0001:00013df0       _Hunk_Free                 10014df0 f   q_shwin.obj
 0001:00013e30       _Sys_Milliseconds          10014e30 f   q_shwin.obj
 0001:00013e80       _Sys_Mkdir                 10014e80 f   q_shwin.obj
 0001:00013ea0       _Sys_FindFirst             10014ea0 f   q_shwin.obj
 0001:00014070       _Sys_FindNext              10015070 f   q_shwin.obj
 0001:00014100       _Sys_FindClose             10015100 f   q_shwin.obj
 0001:00014140       _QGL_Shutdown              10015140 f   qgl_win.obj
 0001:00014f90       _QGL_Init                  10015f90 f   qgl_win.obj
 0001:00017f60       _GLimp_EnableLogging       10018f60 f   qgl_win.obj
 0001:0001eae0       _GLimp_LogNewFrame         1001fae0 f   qgl_win.obj
 0001:0001eb04       _GetVersionExA@4           1001fb04 f   kernel32:KERNEL32.dll
 0001:0001eb0a       _VirtualAlloc@16           1001fb0a f   kernel32:KERNEL32.dll
 0001:0001eb10       _FormatMessageA@28         1001fb10 f   kernel32:KERNEL32.dll
 0001:0001eb16       _GetLastError@0            1001fb16 f   kernel32:KERNEL32.dll
 0001:0001eb1c       _VirtualFree@12            1001fb1c f   kernel32:KERNEL32.dll
 0001:0001eb22       _FreeLibrary@4             1001fb22 f   kernel32:KERNEL32.dll
 0001:0001eb28       _GetProcAddress@8          1001fb28 f   kernel32:KERNEL32.dll
 0001:0001eb2e       _LoadLibraryA@4            1001fb2e f   kernel32:KERNEL32.dll
 0001:0001eb34       _SetFocus@4                1001fb34 f   user32:USER32.dll
 0001:0001eb3a       _SetForegroundWindow@4     1001fb3a f   user32:USER32.dll
 0001:0001eb40       _UpdateWindow@4            1001fb40 f   user32:USER32.dll
 0001:0001eb46       _ShowWindow@8              1001fb46 f   user32:USER32.dll
 0001:0001eb4c       _CreateWindowExA@48        1001fb4c f   user32:USER32.dll
 0001:0001eb52       _AdjustWindowRect@12       1001fb52 f   user32:USER32.dll
 0001:0001eb58       _RegisterClassA@4          1001fb58 f   user32:USER32.dll
 0001:0001eb5e       _LoadCursorA@8             1001fb5e f   user32:USER32.dll
 0001:0001eb64       _ChangeDisplaySettingsA@8  1001fb64 f   user32:USER32.dll
 0001:0001eb6a       _ReleaseDC@8               1001fb6a f   user32:USER32.dll
 0001:0001eb70       _GetDC@4                   1001fb70 f   user32:USER32.dll
 0001:0001eb76       _UnregisterClassA@8        1001fb76 f   user32:USER32.dll
 0001:0001eb7c       _DestroyWindow@4           1001fb7c f   user32:USER32.dll
 0001:0001eb82       _GetDeviceCaps@8           1001fb82 f   gdi32:GDI32.dll
 0001:0001eb88       _DescribePixelFormat@16    1001fb88 f   gdi32:GDI32.dll
 0001:0001eb8e       _SetPixelFormat@12         1001fb8e f   gdi32:GDI32.dll
 0001:0001eb94       _ChoosePixelFormat@8       1001fb94 f   gdi32:GDI32.dll
 0001:0001eb9a       _timeGetTime@0             1001fb9a f   winmm:WINMM.dll
 0001:0001eba0       __fpmath                   1001fba0 f   LIBCMTD:fpinit.obj
 0001:0001ebd0       __fpclear                  1001fbd0 f   LIBCMTD:fpinit.obj
 0001:0001ebe0       __cfltcvt_init             1001fbe0 f   LIBCMTD:fpinit.obj
 0001:0001ec30       ___setfflag                1001fc30 f   LIBCMTD:fpinit.obj
 0001:0001ec50       __alloca_probe             1001fc50 f   LIBCMTD:chkstk.obj
 0001:0001ec50       __chkstk                   1001fc50 f   LIBCMTD:chkstk.obj
 0001:0001ec80       __ftol                     1001fc80 f   LIBCMTD:ftol.obj
 0001:0001ecb0       _malloc                    1001fcb0 f   LIBCMTD:dbgheap.obj
 0001:0001ecd0       __malloc_dbg               1001fcd0 f   LIBCMTD:dbgheap.obj
 0001:0001ed00       __nh_malloc                1001fd00 f   LIBCMTD:dbgheap.obj
 0001:0001ed20       __nh_malloc_dbg            1001fd20 f   LIBCMTD:dbgheap.obj
 0001:0001ed80       __heap_alloc               1001fd80 f   LIBCMTD:dbgheap.obj
 0001:0001eda0       __heap_alloc_dbg           1001fda0 f   LIBCMTD:dbgheap.obj
 0001:0001f0c0       _calloc                    100200c0 f   LIBCMTD:dbgheap.obj
 0001:0001f0e0       __calloc_dbg               100200e0 f   LIBCMTD:dbgheap.obj
 0001:0001f140       _realloc                   10020140 f   LIBCMTD:dbgheap.obj
 0001:0001f160       __realloc_dbg              10020160 f   LIBCMTD:dbgheap.obj
 0001:0001f6c0       __expand                   100206c0 f   LIBCMTD:dbgheap.obj
 0001:0001f6e0       __expand_dbg               100206e0 f   LIBCMTD:dbgheap.obj
 0001:0001f720       _free                      10020720 f   LIBCMTD:dbgheap.obj
 0001:0001f740       __free_lk                  10020740 f   LIBCMTD:dbgheap.obj
 0001:0001f760       __free_dbg                 10020760 f   LIBCMTD:dbgheap.obj
 0001:0001f790       __free_dbg_lk              10020790 f   LIBCMTD:dbgheap.obj
 0001:0001fb80       __msize                    10020b80 f   LIBCMTD:dbgheap.obj
 0001:0001fba0       __msize_dbg                10020ba0 f   LIBCMTD:dbgheap.obj
 0001:0001fd00       __CrtSetBreakAlloc         10020d00 f   LIBCMTD:dbgheap.obj
 0001:0001fd20       __CrtSetDbgBlockType       10020d20 f   LIBCMTD:dbgheap.obj
 0001:0001fdc0       __CrtSetAllocHook          10020dc0 f   LIBCMTD:dbgheap.obj
 0001:0001fe70       __CrtCheckMemory           10020e70 f   LIBCMTD:dbgheap.obj
 0001:000201e0       __CrtSetDbgFlag            100211e0 f   LIBCMTD:dbgheap.obj
 0001:00020210       __CrtDoForAllClientObjects 10021210 f   LIBCMTD:dbgheap.obj
 0001:00020280       __CrtIsValidPointer        10021280 f   LIBCMTD:dbgheap.obj
 0001:000202d0       __CrtIsValidHeapPointer    100212d0 f   LIBCMTD:dbgheap.obj
 0001:00020360       __CrtIsMemoryBlock         10021360 f   LIBCMTD:dbgheap.obj
 0001:00020450       __CrtSetDumpClient         10021450 f   LIBCMTD:dbgheap.obj
 0001:00020470       __CrtMemCheckpoint         10021470 f   LIBCMTD:dbgheap.obj
 0001:000205e0       __CrtMemDifference         100215e0 f   LIBCMTD:dbgheap.obj
 0001:00020710       __CrtMemDumpAllObjectsSince 10021710 f   LIBCMTD:dbgheap.obj
 0001:00020af0       __CrtDumpMemoryLeaks       10021af0 f   LIBCMTD:dbgheap.obj
 0001:00020b70       __CrtMemDumpStatistics     10021b70 f   LIBCMTD:dbgheap.obj
 0001:00020c40       _memcpy                    10021c40 f   LIBCMTD:memcpy.obj
 0001:00020f80       _strcpy                    10021f80 f   LIBCMTD:strcat.obj
 0001:00020f90       _strcat                    10021f90 f   LIBCMTD:strcat.obj
 0001:00021070       _strlen                    10022070 f   LIBCMTD:strlen.obj
 0001:000210f0       _strcmp                    100220f0 f   LIBCMTD:strcmp.obj
 0001:00021180       _memset                    10022180 f   LIBCMTD:memset.obj
 0001:000211e0       __CIpow                    100221e0 f   LIBCMTD:pow.obj
 0001:000211f9       _pow                       100221f9 f   LIBCMTD:pow.obj
 0001:00021400       __CIsin                    10022400 f   LIBCMTD:sin.obj
 0001:00021414       _sin                       10022414 f   LIBCMTD:sin.obj
 0001:000214b0       __CIcos                    100224b0 f   LIBCMTD:cos.obj
 0001:000214c4       _cos                       100224c4 f   LIBCMTD:cos.obj
 0001:00021560       _fabs                      10022560 f   LIBCMTD:fabs.obj
 0001:00021660       _atol                      10022660 f   LIBCMTD:atox.obj
 0001:00021760       _atoi                      10022760 f   LIBCMTD:atox.obj
 0001:00021780       __atoi64                   10022780 f   LIBCMTD:atox.obj
 0001:000218b0       _ceil                      100228b0 f   LIBCMTD:ceil.obj
 0001:000219f0       _floor                     100229f0 f   LIBCMTD:floor.obj
 0001:00021b30       __CItan                    10022b30 f   LIBCMTD:tan.obj
 0001:00021b44       _tan                       10022b44 f   LIBCMTD:tan.obj
 0001:00021bf0       __toupper                  10022bf0 f   LIBCMTD:toupper.obj
 0001:00021c00       _toupper                   10022c00 f   LIBCMTD:toupper.obj
 0001:00021ca0       __toupper_lk               10022ca0 f   LIBCMTD:toupper.obj
 0001:00021dd0       _strstr                    10022dd0 f   LIBCMTD:strstr.obj
 0001:00021e50       _vsprintf                  10022e50 f   LIBCMTD:vsprintf.obj
 0001:00021f50       _fwrite                    10022f50 f   LIBCMTD:fwrite.obj
 0001:00021f90       __fwrite_lk                10022f90 f   LIBCMTD:fwrite.obj
 0001:000221b0       _fclose                    100231b0 f   LIBCMTD:fclose.obj
 0001:00022240       __fclose_lk                10023240 f   LIBCMTD:fclose.obj
 0001:00022300       __fsopen                   10023300 f   LIBCMTD:fopen.obj
 0001:00022400       _fopen                     10023400 f   LIBCMTD:fopen.obj
 0001:00022420       _strncpy                   10023420 f   LIBCMTD:strncpy.obj
 0001:00022520       __assert                   10023520 f   LIBCMTD:assert.obj
 0001:000228a0       __CIsqrt                   100238a0 f   LIBCMTD:sqrt.obj
 0001:000228b4       _sqrt                      100238b4 f   LIBCMTD:sqrt.obj
 0001:00022960       __strcmpi                  10023960 f   LIBCMTD:stricmp.obj
 0001:00022960       __stricmp                  10023960 f   LIBCMTD:stricmp.obj
 0001:00022960       _stricmp                   10023960 f   LIBCMTD:stricmp.obj
 0001:00022a30       __mkdir                    10023a30 f   LIBCMTD:mkdir.obj
 0001:00022a80       __findfirst                10023a80 f   LIBCMTD:findfile.obj
 0001:00022bc0       __findnext                 10023bc0 f   LIBCMTD:findfile.obj
 0001:00022cf0       __findclose                10023cf0 f   LIBCMTD:findfile.obj
 0001:00022d20       ___timet_from_ft           10023d20 f   LIBCMTD:findfile.obj
 0001:00022db0       _fprintf                   10023db0 f   LIBCMTD:fprintf.obj
 0001:00022e80       _asctime                   10023e80 f   LIBCMTD:asctime.obj
 0001:00023080       _localtime                 10024080 f   LIBCMTD:localtim.obj
 0001:000232e0       _time                      100242e0 f   LIBCMTD:time.obj
 0001:00023470       __CRT_INIT@12              10024470 f   LIBCMTD:dllcrt0.obj
 0001:000235b0       __DllMainCRTStartup@12     100245b0 f   LIBCMTD:dllcrt0.obj
 0001:000236b0       __amsg_exit                100246b0 f   LIBCMTD:dllcrt0.obj
 0001:000236f0       __setdefaultprecision      100246f0 f   LIBCMTD:fp8.obj
 0001:00023710       __ms_p5_test_fdiv          10024710 f   LIBCMTD:testfdiv.obj
 0001:00023770       __ms_p5_mp_test_fdiv       10024770 f   LIBCMTD:testfdiv.obj
 0001:000237c0       __forcdecpt                100247c0 f   LIBCMTD:cvt.obj
 0001:00023870       __cropzeros                10024870 f   LIBCMTD:cvt.obj
 0001:00023950       __positive                 10024950 f   LIBCMTD:cvt.obj
 0001:00023980       __fassign                  10024980 f   LIBCMTD:cvt.obj
 0001:000239d0       __cftoe                    100249d0 f   LIBCMTD:cvt.obj
 0001:00023bc0       __cftof                    10024bc0 f   LIBCMTD:cvt.obj
 0001:00023d70       __cftog                    10024d70 f   LIBCMTD:cvt.obj
 0001:00023e60       __cfltcvt                  10024e60 f   LIBCMTD:cvt.obj
 0001:00023ef0       ?_set_new_handler@@YAP6AHI@ZP6AHI@Z@Z 10024ef0 f   LIBCMTD:handler.obj
 0001:00023f20       ?_query_new_handler@@YAP6AHI@ZXZ 10024f20 f   LIBCMTD:handler.obj
 0001:00023f30       __callnewh                 10024f30 f   LIBCMTD:handler.obj
 0001:00023f60       __mtinitlocks              10024f60 f   LIBCMTD:mlock.obj
 0001:00023fa0       __mtdeletelocks            10024fa0 f   LIBCMTD:mlock.obj
 0001:00024040       __lock                     10025040 f   LIBCMTD:mlock.obj
 0001:000240e0       __unlock                   100250e0 f   LIBCMTD:mlock.obj
 0001:00024100       __lockerr_exit             10025100 f   LIBCMTD:mlock.obj
 0001:00024120       __malloc_base              10025120 f   LIBCMTD:malloc.obj
 0001:00024140       __nh_malloc_base           10025140 f   LIBCMTD:malloc.obj
 0001:000241a0       __heap_alloc_base          100251a0 f   LIBCMTD:malloc.obj
 0001:00024210       __CrtDefaultAllocHook      10025210 f   LIBCMTD:dbghook.obj
 0001:00024220       __CrtDbgBreak              10025220 f   LIBCMTD:dbgrpt.obj
 0001:00024230       __CrtSetReportMode         10025230 f   LIBCMTD:dbgrpt.obj
 0001:00024290       __CrtSetReportFile         10025290 f   LIBCMTD:dbgrpt.obj
 0001:00024310       __CrtSetReportHook         10025310 f   LIBCMTD:dbgrpt.obj
 0001:00024330       __CrtDbgReport             10025330 f   LIBCMTD:dbgrpt.obj
 0001:000249d0       __expand_base              100259d0 f   LIBCMTD:expand.obj
 0001:00024a80       __realloc_base             10025a80 f   LIBCMTD:realloc.obj
 0001:00024c70       __free_base                10025c70 f   LIBCMTD:free.obj
 0001:00024ce0       __heapchk                  10025ce0 f   LIBCMTD:heapchk.obj
 0001:00024d60       __heapset                  10025d60 f   LIBCMTD:heapchk.obj
 0001:00024d70       __heap_init                10025d70 f   LIBCMTD:heapinit.obj
 0001:00024dc0       __heap_term                10025dc0 f   LIBCMTD:heapinit.obj
 0001:00024e60       __cinit                    10025e60 f   LIBCMTD:crt0dat.obj
 0001:00024ea0       _exit                      10025ea0 f   LIBCMTD:crt0dat.obj
 0001:00024ec0       __exit                     10025ec0 f   LIBCMTD:crt0dat.obj
 0001:00024ee0       __cexit                    10025ee0 f   LIBCMTD:crt0dat.obj
 0001:00024f00       __c_exit                   10025f00 f   LIBCMTD:crt0dat.obj
 0001:00025010       __lockexit                 10026010 f   LIBCMTD:crt0dat.obj
 0001:00025020       __unlockexit               10026020 f   LIBCMTD:crt0dat.obj
 0001:00025060       __get_sbh_threshold        10026060 f   LIBCMTD:sbheap.obj
 0001:00025070       __set_sbh_threshold        10026070 f   LIBCMTD:sbheap.obj
 0001:00025090       ___sbh_heap_init           10026090 f   LIBCMTD:sbheap.obj
 0001:000250f0       ___sbh_find_block          100260f0 f   LIBCMTD:sbheap.obj
 0001:00025150       ___sbh_verify_block        10026150 f   LIBCMTD:sbheap.obj
 0001:000251b0       ___sbh_free_block          100261b0 f   LIBCMTD:sbheap.obj
 0001:00025780       ___sbh_alloc_block         10026780 f   LIBCMTD:sbheap.obj
 0001:00025cc0       ___sbh_alloc_new_region    10026cc0 f   LIBCMTD:sbheap.obj
 0001:00025dd0       ___sbh_alloc_new_group     10026dd0 f   LIBCMTD:sbheap.obj
 0001:00025fc0       ___sbh_resize_block        10026fc0 f   LIBCMTD:sbheap.obj
 0001:000265b0       ___sbh_heapmin             100275b0 f   LIBCMTD:sbheap.obj
 0001:000266e0       ___sbh_heap_check          100276e0 f   LIBCMTD:sbheap.obj
 0001:00026d00       _sprintf                   10027d00 f   LIBCMTD:sprintf.obj
 0001:00026e00       __isctype                  10027e00 f   LIBCMTD:isctype.obj
 0001:00026ed1       __fFEXP                    10027ed1 f   LIBCMTD:87tran.obj
 0001:00026f38       __rtinfpopse               10027f38 f   LIBCMTD:87tran.obj
 0001:00026f3a       __rtinfnpopse              10027f3a f   LIBCMTD:87tran.obj
 0001:00026f4a       __fFLN                     10027f4a f   LIBCMTD:87tran.obj
 0001:00026fff       __rtinfpop                 10027fff f   LIBCMTD:87tran.obj
 0001:00027001       __rtinfnpop                10028001 f   LIBCMTD:87tran.obj
 0001:0002701e       __ffexpm1                  1002801e f   LIBCMTD:87tran.obj
 0001:000270d0       __trandisp1                100280d0 f   LIBCMTD:87disp.obj
 0001:00027137       __trandisp2                10028137 f   LIBCMTD:87disp.obj
 0001:000271c3       __rttospopde               100281c3 f   LIBCMTD:87disp.obj
 0001:000271c8       __rttospop                 100281c8 f   LIBCMTD:87disp.obj
 0001:000271ca       __rtnospop                 100281ca f   LIBCMTD:87disp.obj
 0001:000271cc       __rttosnpop                100281cc f   LIBCMTD:87disp.obj
 0001:000271cd       __rtnospopde               100281cd f   LIBCMTD:87disp.obj
 0001:000271d4       __rtzeropop                100281d4 f   LIBCMTD:87disp.obj
 0001:000271d6       __rtzeronpop               100281d6 f   LIBCMTD:87disp.obj
 0001:000271db       __rtonepop                 100281db f   LIBCMTD:87disp.obj
 0001:000271dd       __rtonenpop                100281dd f   LIBCMTD:87disp.obj
 0001:000271e2       __tosnan1                  100281e2 f   LIBCMTD:87disp.obj
 0001:0002720d       __nosnan2                  1002820d f   LIBCMTD:87disp.obj
 0001:0002720f       __tosnan2                  1002820f f   LIBCMTD:87disp.obj
 0001:00027237       __nan2                     10028237 f   LIBCMTD:87disp.obj
 0001:00027276       __rtindfpop                10028276 f   LIBCMTD:87disp.obj
 0001:00027278       __rtindfnpop               10028278 f   LIBCMTD:87disp.obj
 0001:00027289       __rttosnpopde              10028289 f   LIBCMTD:87disp.obj
 0001:00027293       __rtchsifneg               10028293 f   LIBCMTD:87disp.obj
 0001:000272a0       __startTwoArgErrorHandling 100282a0 f   LIBCMTD:genexcep.obj
 0001:000272b7       __startOneArgErrorHandling 100282b7 f   LIBCMTD:genexcep.obj
 0001:00027300       __twoToTOS                 10028300 f   LIBCMTD:common.obj
 0001:00027315       __load_CW                  10028315 f   LIBCMTD:common.obj
 0001:0002732c       __convertTOStoQNaN         1002832c f   LIBCMTD:common.obj
 0001:00027345       __fload_withFB             10028345 f   LIBCMTD:common.obj
 0001:00027388       __checkTOS_withFB          10028388 f   LIBCMTD:common.obj
 0001:0002739e       __fast_exit                1002839e f   LIBCMTD:common.obj
 0001:000273ab       __math_exit                100283ab f   LIBCMTD:common.obj
 0001:000273d5       __check_overflow_exit      100283d5 f   LIBCMTD:common.obj
 0001:000273e9       __check_range_exit         100283e9 f   LIBCMTD:common.obj
 0001:00027490       __powhlp                   10028490 f   LIBCMTD:powhlp.obj
 0001:00027700       __d_inttype                10028700 f   LIBCMTD:powhlp.obj
 0001:00027780       __handle_qnan1             10028780 f   LIBCMTD:fpexcept.obj
 0001:000277e0       __handle_qnan2             100287e0 f   LIBCMTD:fpexcept.obj
 0001:00027850       __except1                  10028850 f   LIBCMTD:fpexcept.obj
 0001:00027910       __except2                  10028910 f   LIBCMTD:fpexcept.obj
 0001:000279e0       __raise_exc                100289e0 f   LIBCMTD:fpexcept.obj
 0001:00027eb0       __handle_exc               10028eb0 f   LIBCMTD:fpexcept.obj
 0001:00028230       __umatherr                 10029230 f   LIBCMTD:fpexcept.obj
 0001:000282d0       __set_errno                100292d0 f   LIBCMTD:fpexcept.obj
 0001:00028350       __errcode                  10029350 f   LIBCMTD:fpexcept.obj
 0001:000283d0       __set_exp                  100293d0 f   LIBCMTD:util.obj
 0001:00028410       __get_exp                  10029410 f   LIBCMTD:util.obj
 0001:00028440       __add_exp                  10029440 f   LIBCMTD:util.obj
 0001:00028480       __set_bexp                 10029480 f   LIBCMTD:util.obj
 0001:000284c0       __sptype                   100294c0 f   LIBCMTD:util.obj
 0001:00028540       __decomp                   10029540 f   LIBCMTD:util.obj
 0001:00028680       __statfp                   10029680 f   LIBCMTD:fpctrl.obj
 0001:000286a0       __clrfp                    100296a0 f   LIBCMTD:fpctrl.obj
 0001:000286c0       __ctrlfp                   100296c0 f   LIBCMTD:fpctrl.obj
 0001:00028700       __set_statfp               10029700 f   LIBCMTD:fpctrl.obj
 0001:00028780       __allmul                   10029780 f   LIBCMTD:llmul.obj
 0001:000287c0       __frnd                     100297c0 f   LIBCMTD:frnd.obj
 0001:000287e0       _setlocale                 100297e0 f   LIBCMTD:setlocal.obj
 0001:00028e70       __expandlocale             10029e70 f   LIBCMTD:setlocal.obj
 0001:00029000       ___init_dummy              1002a000 f   LIBCMTD:setlocal.obj
 0001:00029010       __strcats                  1002a010 f   LIBCMTD:setlocal.obj
 0001:00029060       ___lc_strtolc              1002a060 f   LIBCMTD:setlocal.obj
 0001:000291c0       ___lc_lctostr              1002a1c0 f   LIBCMTD:setlocal.obj
 0001:00029230       ___crtLCMapStringA         1002a230 f   LIBCMTD:a_map.obj
 0001:000295a0       _strchr                    1002a5a0 f   LIBCMTD:strchr.obj
 0001:000295a6       ___from_strstr_to_strchr   1002a5a6 f   LIBCMTD:strchr.obj
 0001:00029660       __flsbuf                   1002a660 f   LIBCMTD:_flsbuf.obj
 0001:000298e0       __output                   1002a8e0 f   LIBCMTD:output.obj
 0001:0002a780       ___initstdio               1002b780 f   LIBCMTD:_file.obj
 0001:0002a8b0       ___endstdio                1002b8b0 f   LIBCMTD:_file.obj
 0001:0002a8d0       __lock_file                1002b8d0 f   LIBCMTD:_file.obj
 0001:0002a910       __lock_file2               1002b910 f   LIBCMTD:_file.obj
 0001:0002a940       __unlock_file              1002b940 f   LIBCMTD:_file.obj
 0001:0002a980       __unlock_file2             1002b980 f   LIBCMTD:_file.obj
 0001:0002a9b0       __write                    1002b9b0 f   LIBCMTD:write.obj
 0001:0002aa40       __write_lk                 1002ba40 f   LIBCMTD:write.obj
 0001:0002acc0       _fflush                    1002bcc0 f   LIBCMTD:fflush.obj
 0001:0002ad10       __fflush_lk                1002bd10 f   LIBCMTD:fflush.obj
 0001:0002ad60       __flush                    1002bd60 f   LIBCMTD:fflush.obj
 0001:0002ae20       __flushall                 1002be20 f   LIBCMTD:fflush.obj
 0001:0002af70       __close                    1002bf70 f   LIBCMTD:close.obj
 0001:0002aff0       __close_lk                 1002bff0 f   LIBCMTD:close.obj
 0001:0002b0a0       __freebuf                  1002c0a0 f   LIBCMTD:_freebuf.obj
 0001:0002b140       __openfile                 1002c140 f   LIBCMTD:_open.obj
 0001:0002b4d0       __getstream                1002c4d0 f   LIBCMTD:stream.obj
 0001:0002b650       _abort                     1002c650 f   LIBCMTD:abort.obj
 0001:0002b670       _signal                    1002c670 f   LIBCMTD:winsig.obj
 0001:0002b940       _raise                     1002c940 f   LIBCMTD:winsig.obj
 0001:0002bbe0       ___fpecode                 1002cbe0 f   LIBCMTD:winsig.obj
 0001:0002bbf0       ___pxcptinfoptrs           1002cbf0 f   LIBCMTD:winsig.obj
 0001:0002bc00       ___crtMessageBoxA          1002cc00 f   LIBCMTD:crtmbox.obj
 0001:0002bcc0       __itoa                     1002ccc0 f   LIBCMTD:xtoa.obj
 0001:0002bde0       __ltoa                     1002cde0 f   LIBCMTD:xtoa.obj
 0001:0002be20       __ultoa                    1002ce20 f   LIBCMTD:xtoa.obj
 0001:0002be40       __i64toa                   1002ce40 f   LIBCMTD:xtoa.obj
 0001:0002bf90       __ui64toa                  1002cf90 f   LIBCMTD:xtoa.obj
 0001:0002bfb0       _strncat                   1002cfb0 f   LIBCMTD:strncat.obj
 0001:0002c0e0       _setvbuf                   1002d0e0 f   LIBCMTD:setvbuf.obj
 0001:0002c250       __tolower                  1002d250 f   LIBCMTD:tolower.obj
 0001:0002c260       _tolower                   1002d260 f   LIBCMTD:tolower.obj
 0001:0002c300       __tolower_lk               1002d300 f   LIBCMTD:tolower.obj
 0001:0002c430       __dosmaperr                1002d430 f   LIBCMTD:dosmap.obj
 0001:0002c4d0       __errno                    1002d4d0 f   LIBCMTD:dosmap.obj
 0001:0002c4e0       ___doserrno                1002d4e0 f   LIBCMTD:dosmap.obj
 0001:0002c4f0       ___loctotime_t             1002d4f0 f   LIBCMTD:dtoxtime.obj
 0001:0002c5e0       __stbuf                    1002d5e0 f   LIBCMTD:_sftbuf.obj
 0001:0002c740       __ftbuf                    1002d740 f   LIBCMTD:_sftbuf.obj
 0001:0002c7e0       __mtinit                   1002d7e0 f   LIBCMTD:tidtable.obj
 0001:0002c870       __mtterm                   1002d870 f   LIBCMTD:tidtable.obj
 0001:0002c8a0       __initptd                  1002d8a0 f   LIBCMTD:tidtable.obj
 0001:0002c8c0       __getptd                   1002d8c0 f   LIBCMTD:tidtable.obj
 0001:0002c960       __freeptd                  1002d960 f   LIBCMTD:tidtable.obj
 0001:0002ca70       ___threadid                1002da70 f   LIBCMTD:tidtable.obj
 0001:0002ca80       ___threadhandle            1002da80 f   LIBCMTD:tidtable.obj
 0001:0002ca90       ___tzset                   1002da90 f   LIBCMTD:tzset.obj
 0001:0002cad0       __tzset                    1002dad0 f   LIBCMTD:tzset.obj
 0001:0002cea0       __isindst                  1002dea0 f   LIBCMTD:tzset.obj
 0001:0002d3d0       _gmtime                    1002e3d0 f   LIBCMTD:gmtime.obj
 0001:0002d5d0       __ioinit                   1002e5d0 f   LIBCMTD:ioinit.obj
 0001:0002d900       __ioterm                   1002e900 f   LIBCMTD:ioinit.obj
 0001:0002d9a0       __setenvp                  1002e9a0 f   LIBCMTD:stdenvp.obj
 0001:0002daf0       __setargv                  1002eaf0 f   LIBCMTD:stdargv.obj
 0001:0002e000       ___crtGetEnvironmentStringsA 1002f000 f   LIBCMTD:a_env.obj
 0001:0002e220       _DllMain@12                1002f220 f   LIBCMTD:dllmain.obj
 0001:0002e230       __FF_MSGBANNER             1002f230 f   LIBCMTD:crt0msg.obj
 0001:0002e280       __NMSG_WRITE               1002f280 f   LIBCMTD:crt0msg.obj
 0001:0002e440       __GET_RTERRMSG             1002f440 f   LIBCMTD:crt0msg.obj
 0001:0002e490       __statusfp                 1002f490 f   LIBCMTD:ieee87.obj
 0001:0002e4b0       __clearfp                  1002f4b0 f   LIBCMTD:ieee87.obj
 0001:0002e4d0       __control87                1002f4d0 f   LIBCMTD:ieee87.obj
 0001:0002e520       __controlfp                1002f520 f   LIBCMTD:ieee87.obj
 0001:0002e540       __fpreset                  1002f540 f   LIBCMTD:ieee87.obj
 0001:0002e930       __ZeroTail                 1002f930 f   LIBCMTD:intrncvt.obj
 0001:0002e9c0       __IncMan                   1002f9c0 f   LIBCMTD:intrncvt.obj
 0001:0002ea70       __RoundMan                 1002fa70 f   LIBCMTD:intrncvt.obj
 0001:0002eb50       __CopyMan                  1002fb50 f   LIBCMTD:intrncvt.obj
 0001:0002eba0       __FillZeroMan              1002fba0 f   LIBCMTD:intrncvt.obj
 0001:0002ebd0       __IsZeroMan                1002fbd0 f   LIBCMTD:intrncvt.obj
 0001:0002ec10       __ShrMan                   1002fc10 f   LIBCMTD:intrncvt.obj
 0001:0002ed00       __ld12cvt                  1002fd00 f   LIBCMTD:intrncvt.obj
 0001:0002ef50       __ld12tod                  1002ff50 f   LIBCMTD:intrncvt.obj
 0001:0002ef70       __ld12tof                  1002ff70 f   LIBCMTD:intrncvt.obj
 0001:0002ef90       __ld12told                 1002ff90 f   LIBCMTD:intrncvt.obj
 0001:0002f050       __atodbl                   10030050 f   LIBCMTD:intrncvt.obj
 0001:0002f090       __atoldbl                  10030090 f   LIBCMTD:intrncvt.obj
 0001:0002f0d0       __atoflt                   100300d0 f   LIBCMTD:intrncvt.obj
 0001:0002f110       __fptostr                  10030110 f   LIBCMTD:_fptostr.obj
 0001:0002f210       __fltout2                  10030210 f   LIBCMTD:cfout.obj
 0001:0002f290       ___dtold                   10030290 f   LIBCMTD:cfout.obj
 0001:0002f400       _memmove                   10030400 f   LIBCMTD:memmove.obj
 0001:0002f740       __fptrap                   10030740 f   LIBCMTD:crt0fp.obj
 0001:0002f750       __snprintf                 10030750 f   LIBCMTD:snprintf.obj
 0001:0002f850       __vsnprintf                10030850 f   LIBCMTD:vsnprint.obj
 0001:0002f950       ___crtGetStringTypeA       10030950 f   LIBCMTD:a_str.obj
 0001:0002fb10       _fdiv_main_routine         10030b10 f   LIBCMTD:adj_fdiv.obj
 0001:0002fc27       __adj_fdiv_r               10030c27 f   LIBCMTD:adj_fdiv.obj
 0001:000300c6       __fdivp_sti_st             100310c6 f   LIBCMTD:adj_fdiv.obj
 0001:000300d9       __fdivrp_sti_st            100310d9 f   LIBCMTD:adj_fdiv.obj
 0001:000300ec       __adj_fdiv_m32             100310ec f   LIBCMTD:adj_fdiv.obj
 0001:00030138       __adj_fdiv_m64             10031138 f   LIBCMTD:adj_fdiv.obj
 0001:00030184       __adj_fdiv_m16i            10031184 f   LIBCMTD:adj_fdiv.obj
 0001:000301b8       __adj_fdiv_m32i            100311b8 f   LIBCMTD:adj_fdiv.obj
 0001:000301ec       __adj_fdivr_m32            100311ec f   LIBCMTD:adj_fdiv.obj
 0001:00030238       __adj_fdivr_m64            10031238 f   LIBCMTD:adj_fdiv.obj
 0001:00030284       __adj_fdivr_m16i           10031284 f   LIBCMTD:adj_fdiv.obj
 0001:000302b8       __adj_fdivr_m32i           100312b8 f   LIBCMTD:adj_fdiv.obj
 0001:000302ec       __safe_fdiv                100312ec f   LIBCMTD:adj_fdiv.obj
 0001:00030301       __safe_fdivr               10031301 f   LIBCMTD:adj_fdiv.obj
 0001:00030316       __fprem_common             10031316 f   LIBCMTD:adj_fdiv.obj
 0001:0003051c       __adj_fprem                1003151c f   LIBCMTD:adj_fdiv.obj
 0001:000305ce       __fprem1_common            100315ce f   LIBCMTD:adj_fdiv.obj
 0001:000307d4       __adj_fprem1               100317d4 f   LIBCMTD:adj_fdiv.obj
 0001:00030889       __safe_fprem               10031889 f   LIBCMTD:adj_fdiv.obj
 0001:0003088f       __safe_fprem1              1003188f f   LIBCMTD:adj_fdiv.obj
 0001:00030895       __adj_fpatan               10031895 f   LIBCMTD:adj_fdiv.obj
 0001:00030898       __adj_fptan                10031898 f   LIBCMTD:adj_fdiv.obj
 0001:000308a0       __87except                 100318a0 f   LIBCMTD:87except.obj
 0001:00030a20       __copysign                 10031a20 f   LIBCMTD:ieeemisc.obj
 0001:00030a50       __chgsign                  10031a50 f   LIBCMTD:ieeemisc.obj
 0001:00030a80       __scalb                    10031a80 f   LIBCMTD:ieeemisc.obj
 0001:00030aa0       __logb                     10031aa0 f   LIBCMTD:ieeemisc.obj
 0001:00030bd0       __nextafter                10031bd0 f   LIBCMTD:ieeemisc.obj
 0001:00030f10       __finite                   10031f10 f   LIBCMTD:ieeemisc.obj
 0001:00030f40       __isnan                    10031f40 f   LIBCMTD:ieeemisc.obj
 0001:00030f90       __fpclass                  10031f90 f   LIBCMTD:ieeemisc.obj
 0001:00031070       __matherr                  10032070 f   LIBCMTD:matherr.obj
 0001:00031080       ___init_time               10032080 f   LIBCMTD:inittime.obj
 0001:00031a00       ___init_numeric            10032a00 f   LIBCMTD:initnum.obj
 0001:00031d30       ___init_monetary           10032d30 f   LIBCMTD:initmon.obj
 0001:00032190       ___init_ctype              10033190 f   LIBCMTD:initctyp.obj
 0001:00032530       ___init_collate            10033530 f   LIBCMTD:initcoll.obj
 0001:00032540       _strcspn                   10033540 f   LIBCMTD:strcspn.obj
 0001:00032580       _strncmp                   10033580 f   LIBCMTD:strncmp.obj
 0001:000325c0       _strpbrk                   100335c0 f   LIBCMTD:strpbrk.obj
 0001:00032600       ___get_qualified_locale    10033600 f   LIBCMTD:getqloc.obj
 0001:00033398       __global_unwind2           10034398 f   LIBCMTD:exsup.obj
 0001:000333da       __local_unwind2            100343da f   LIBCMTD:exsup.obj
 0001:00033432       __NLG_Return2              10034432 f   LIBCMTD:exsup.obj
 0001:00033442       __abnormal_termination     10034442 f   LIBCMTD:exsup.obj
 0001:00033465       __NLG_Notify1              10034465 f   LIBCMTD:exsup.obj
 0001:0003346e       __NLG_Notify               1003446e f   LIBCMTD:exsup.obj
 0001:00033481       __NLG_Dispatch             10034481 f   LIBCMTD:exsup.obj
 0001:00033490       __except_handler3          10034490 f   LIBCMTD:exsup3.obj
 0001:0003354d       __seh_longjmp_unwind@4     1003454d f   LIBCMTD:exsup3.obj
 0001:00033570       __lseek                    10034570 f   LIBCMTD:lseek.obj
 0001:00033600       __lseek_lk                 10034600 f   LIBCMTD:lseek.obj
 0001:000336c0       __getbuf                   100346c0 f   LIBCMTD:_getbuf.obj
 0001:00033790       __isatty                   10034790 f   LIBCMTD:isatty.obj
 0001:000337d0       _wctomb                    100347d0 f   LIBCMTD:wctomb.obj
 0001:00033850       __wctomb_lk                10034850 f   LIBCMTD:wctomb.obj
 0001:000338f0       __aulldiv                  100348f0 f   LIBCMTD:ulldiv.obj
 0001:00033960       __aullrem                  10034960 f   LIBCMTD:ullrem.obj
 0001:000339e0       __fcloseall                100349e0 f   LIBCMTD:closeall.obj
 0001:00033ac0       __alloc_osfhnd             10034ac0 f   LIBCMTD:osfinfo.obj
 0001:00033cb0       __set_osfhnd               10034cb0 f   LIBCMTD:osfinfo.obj
 0001:00033d70       __free_osfhnd              10034d70 f   LIBCMTD:osfinfo.obj
 0001:00033e50       __get_osfhandle            10034e50 f   LIBCMTD:osfinfo.obj
 0001:00033ec0       __open_osfhandle           10034ec0 f   LIBCMTD:osfinfo.obj
 0001:00033fd0       __lock_fhandle             10034fd0 f   LIBCMTD:osfinfo.obj
 0001:00034060       __unlock_fhandle           10035060 f   LIBCMTD:osfinfo.obj
 0001:00034090       __commit                   10035090 f   LIBCMTD:commit.obj
 0001:00034170       __open                     10035170 f   LIBCMTD:open.obj
 0001:000341b0       __sopen                    100351b0 f   LIBCMTD:open.obj
 0001:00034710       __XcptFilter               10035710 f   LIBCMTD:winxfltr.obj
 0001:00034930       _getenv                    10035930 f   LIBCMTD:getenv.obj
 0001:00034960       __getenv_lk                10035960 f   LIBCMTD:getenv.obj
 0001:00034a30       __setmbcp                  10035a30 f   LIBCMTD:mbctype.obj
 0001:000351f0       __getmbcp                  100361f0 f   LIBCMTD:mbctype.obj
 0001:00035210       ___initmbctable            10036210 f   LIBCMTD:mbctype.obj
 0001:00035240       ___addl                    10036240 f   LIBCMTD:mantold.obj
 0001:00035280       ___add_12                  10036280 f   LIBCMTD:mantold.obj
 0001:00035330       ___shl_12                  10036330 f   LIBCMTD:mantold.obj
 0001:00035390       ___shr_12                  10036390 f   LIBCMTD:mantold.obj
 0001:00035400       ___mtold12                 10036400 f   LIBCMTD:mantold.obj
 0001:00035540       ___strgtold12              10036540 f   LIBCMTD:strgtold.obj
 0001:00036070       ___STRINGTOLD              10037070 f   LIBCMTD:strgtold.obj
 0001:000360c0       _$I10_OUTPUT               100370c0 f   LIBCMTD:x10fout.obj
 0001:000365e0       _ldexp                     100375e0 f   LIBCMTD:ldexp.obj
 0001:000368a0       __Getdays                  100378a0 f   LIBCMTD:strftime.obj
 0001:000369d0       __Getmonths                100379d0 f   LIBCMTD:strftime.obj
 0001:00036b00       __Gettnames                10037b00 f   LIBCMTD:strftime.obj
 0001:00036e70       _strftime                  10037e70 f   LIBCMTD:strftime.obj
 0001:00036e90       __Strftime                 10037e90 f   LIBCMTD:strftime.obj
 0001:00037d10       ___getlocaleinfo           10038d10 f   LIBCMTD:inithelp.obj
 0001:00037fa0       _localeconv                10038fa0 f   LIBCMTD:lconv.obj
 0001:00037fb0       ___crtGetStringTypeW       10038fb0 f   LIBCMTD:w_str.obj
 0001:00038220       __strnicmp                 10039220 f   LIBCMTD:strnicmp.obj
 0001:00038330       __chsize                   10039330 f   LIBCMTD:chsize.obj
 0001:000383b0       __chsize_lk                100393b0 f   LIBCMTD:chsize.obj
 0001:000385e0       __read                     100395e0 f   LIBCMTD:read.obj
 0001:00038670       __read_lk                  10039670 f   LIBCMTD:read.obj
 0001:00038ac0       __mbsnbicoll               10039ac0 f   LIBCMTD:mbsnbico.obj
 0001:00038b10       ___wtomb_environ           10039b10 f   LIBCMTD:wtombenv.obj
 0001:00038bc0       ___ld12mul                 10039bc0 f   LIBCMTD:tenpow.obj
 0001:00039000       ___multtenpow12            1003a000 f   LIBCMTD:tenpow.obj
 0001:000390d0       ___crtGetLocaleInfoW       1003a0d0 f   LIBCMTD:w_loc.obj
 0001:00039270       ___crtGetLocaleInfoA       1003a270 f   LIBCMTD:a_loc.obj
 0001:00039420       __setmode                  1003a420 f   LIBCMTD:setmode.obj
 0001:000394a0       __setmode_lk               1003a4a0 f   LIBCMTD:setmode.obj
 0001:00039570       ___crtCompareStringA       1003a570 f   LIBCMTD:a_cmp.obj
 0001:000399c0       ___crtsetenv               1003a9c0 f   LIBCMTD:setenv.obj
 0001:00039e10       __mbschr                   1003ae10 f   LIBCMTD:mbschr.obj
 0001:00039f00       _IsBadWritePtr@8           1003af00 f   kernel32:KERNEL32.dll
 0001:00039f06       _IsBadReadPtr@8            1003af06 f   kernel32:KERNEL32.dll
 0001:00039f0c       _HeapValidate@12           1003af0c f   kernel32:KERNEL32.dll
 0001:00039f12       _InterlockedDecrement@4    1003af12 f   kernel32:KERNEL32.dll
 0001:00039f18       _InterlockedIncrement@4    1003af18 f   kernel32:KERNEL32.dll
 0001:00039f1e       _GetModuleFileNameA@12     1003af1e f   kernel32:KERNEL32.dll
 0001:00039f24       _CreateDirectoryA@8        1003af24 f   kernel32:KERNEL32.dll
 0001:00039f2a       _FindFirstFileA@8          1003af2a f   kernel32:KERNEL32.dll
 0001:00039f30       _FindNextFileA@8           1003af30 f   kernel32:KERNEL32.dll
 0001:00039f36       _FindClose@4               1003af36 f   kernel32:KERNEL32.dll
 0001:00039f3c       _FileTimeToSystemTime@8    1003af3c f   kernel32:KERNEL32.dll
 0001:00039f42       _FileTimeToLocalFileTime@8 1003af42 f   kernel32:KERNEL32.dll
 0001:00039f48       _GetTimeZoneInformation@4  1003af48 f   kernel32:KERNEL32.dll
 0001:00039f4e       _GetSystemTime@4           1003af4e f   kernel32:KERNEL32.dll
 0001:00039f54       _GetLocalTime@4            1003af54 f   kernel32:KERNEL32.dll
 0001:00039f5a       _GetCommandLineA@0         1003af5a f   kernel32:KERNEL32.dll
 0001:00039f60       _GetVersion@0              1003af60 f   kernel32:KERNEL32.dll
 0001:00039f66       _GetModuleHandleA@4        1003af66 f   kernel32:KERNEL32.dll
 0001:00039f6c       _InitializeCriticalSection@4 1003af6c f   kernel32:KERNEL32.dll
 0001:00039f72       _DeleteCriticalSection@4   1003af72 f   kernel32:KERNEL32.dll
 0001:00039f78       _EnterCriticalSection@4    1003af78 f   kernel32:KERNEL32.dll
 0001:00039f7e       _LeaveCriticalSection@4    1003af7e f   kernel32:KERNEL32.dll
 0001:00039f84       _ExitProcess@4             1003af84 f   kernel32:KERNEL32.dll
 0001:00039f8a       _FatalAppExitA@8           1003af8a f   kernel32:KERNEL32.dll
 0001:00039f90       _HeapAlloc@12              1003af90 f   kernel32:KERNEL32.dll
 0001:00039f96       _DebugBreak@0              1003af96 f   kernel32:KERNEL32.dll
 0001:00039f9c       _GetStdHandle@4            1003af9c f   kernel32:KERNEL32.dll
 0001:00039fa2       _WriteFile@20              1003afa2 f   kernel32:KERNEL32.dll
 0001:00039fa8       _OutputDebugStringA@4      1003afa8 f   kernel32:KERNEL32.dll
 0001:00039fae       _HeapReAlloc@16            1003afae f   kernel32:KERNEL32.dll
 0001:00039fb4       _HeapFree@12               1003afb4 f   kernel32:KERNEL32.dll
 0001:00039fba       _HeapDestroy@4             1003afba f   kernel32:KERNEL32.dll
 0001:00039fc0       _HeapCreate@12             1003afc0 f   kernel32:KERNEL32.dll
 0001:00039fc6       _TerminateProcess@8        1003afc6 f   kernel32:KERNEL32.dll
 0001:00039fcc       _GetCurrentProcess@0       1003afcc f   kernel32:KERNEL32.dll
 0001:00039fd2       _RaiseException@16         1003afd2 f   kernel32:KERNEL32.dll
 0001:00039fd8       _Sleep@4                   1003afd8 f   kernel32:KERNEL32.dll
 0001:00039fde       _WideCharToMultiByte@32    1003afde f   kernel32:KERNEL32.dll
 0001:00039fe4       _MultiByteToWideChar@24    1003afe4 f   kernel32:KERNEL32.dll
 0001:00039fea       _LCMapStringA@24           1003afea f   kernel32:KERNEL32.dll
 0001:00039ff0       _LCMapStringW@24           1003aff0 f   kernel32:KERNEL32.dll
 0001:00039ff6       _CloseHandle@4             1003aff6 f   kernel32:KERNEL32.dll
 0001:00039ffc       _SetConsoleCtrlHandler@8   1003affc f   kernel32:KERNEL32.dll
 0001:0003a002       _GetCurrentThreadId@0      1003b002 f   kernel32:KERNEL32.dll
 0001:0003a008       _TlsSetValue@8             1003b008 f   kernel32:KERNEL32.dll
 0001:0003a00e       _TlsAlloc@0                1003b00e f   kernel32:KERNEL32.dll
 0001:0003a014       _TlsFree@4                 1003b014 f   kernel32:KERNEL32.dll
 0001:0003a01a       _SetLastError@4            1003b01a f   kernel32:KERNEL32.dll
 0001:0003a020       _TlsGetValue@4             1003b020 f   kernel32:KERNEL32.dll
 0001:0003a026       _GetCurrentThread@0        1003b026 f   kernel32:KERNEL32.dll
 0001:0003a02c       _SetHandleCount@4          1003b02c f   kernel32:KERNEL32.dll
 0001:0003a032       _GetFileType@4             1003b032 f   kernel32:KERNEL32.dll
 0001:0003a038       _GetStartupInfoA@4         1003b038 f   kernel32:KERNEL32.dll
 0001:0003a03e       _FreeEnvironmentStringsA@4 1003b03e f   kernel32:KERNEL32.dll
 0001:0003a044       _FreeEnvironmentStringsW@4 1003b044 f   kernel32:KERNEL32.dll
 0001:0003a04a       _GetEnvironmentStrings@0   1003b04a f   kernel32:KERNEL32.dll
 0001:0003a050       _GetEnvironmentStringsW@0  1003b050 f   kernel32:KERNEL32.dll
 0001:0003a056       _GetStringTypeA@20         1003b056 f   kernel32:KERNEL32.dll
 0001:0003a05c       _GetStringTypeW@16         1003b05c f   kernel32:KERNEL32.dll
 0001:0003a062       _GetCPInfo@8               1003b062 f   kernel32:KERNEL32.dll
 0001:0003a068       _IsValidLocale@8           1003b068 f   kernel32:KERNEL32.dll
 0001:0003a06e       _IsValidCodePage@4         1003b06e f   kernel32:KERNEL32.dll
 0001:0003a074       _GetLocaleInfoA@16         1003b074 f   kernel32:KERNEL32.dll
 0001:0003a07a       _EnumSystemLocalesA@8      1003b07a f   kernel32:KERNEL32.dll
 0001:0003a080       _GetUserDefaultLCID@0      1003b080 f   kernel32:KERNEL32.dll
 0001:0003a086       _RtlUnwind@16              1003b086 f   kernel32:KERNEL32.dll
 0001:0003a08c       _SetFilePointer@16         1003b08c f   kernel32:KERNEL32.dll
 0001:0003a092       _SetStdHandle@8            1003b092 f   kernel32:KERNEL32.dll
 0001:0003a098       _FlushFileBuffers@4        1003b098 f   kernel32:KERNEL32.dll
 0001:0003a09e       _CreateFileA@28            1003b09e f   kernel32:KERNEL32.dll
 0001:0003a0a4       _UnhandledExceptionFilter@4 1003b0a4 f   kernel32:KERNEL32.dll
 0001:0003a0aa       _GetACP@0                  1003b0aa f   kernel32:KERNEL32.dll
 0001:0003a0b0       _GetOEMCP@0                1003b0b0 f   kernel32:KERNEL32.dll
 0001:0003a0b6       _SetEndOfFile@4            1003b0b6 f   kernel32:KERNEL32.dll
 0001:0003a0bc       _ReadFile@20               1003b0bc f   kernel32:KERNEL32.dll
 0001:0003a0c2       _GetLocaleInfoW@16         1003b0c2 f   kernel32:KERNEL32.dll
 0001:0003a0c8       _CompareStringA@24         1003b0c8 f   kernel32:KERNEL32.dll
 0001:0003a0ce       _CompareStringW@24         1003b0ce f   kernel32:KERNEL32.dll
 0001:0003a0d4       _SetEnvironmentVariableA@8 1003b0d4 f   kernel32:KERNEL32.dll
 0001:0003a0e0       __strlwr                   1003b0e0 f   LIBCMTD:strlwr.obj
 0001:0003a0e0       _strlwr                    1003b0e0 f   LIBCMTD:strlwr.obj
 0001:0003a2a0       _putenv                    1003b2a0 f   LIBCMTD:putenv.obj
 0001:0003a2a0       __putenv                   1003b2a0 f   LIBCMTD:putenv.obj
 0001:0003a2d0       __putenv_lk                1003b2d0 f   LIBCMTD:putenv.obj
 0001:0003a3e0       ___crtwsetenv              1003b3e0 f   LIBCMTD:wsetenv.obj
 0001:0003a840       _wcscat                    1003b840 f   LIBCMTD:wcscat.obj
 0001:0003a8a0       _wcscpy                    1003b8a0 f   LIBCMTD:wcscat.obj
 0001:0003a8e0       _wcslen                    1003b8e0 f   LIBCMTD:wcslen.obj
 0001:0003a910       ___mbtow_environ           1003b910 f   LIBCMTD:mbtowenv.obj
 0001:0003a9c0       _wcschr                    1003b9c0 f   LIBCMTD:wcschr.obj
 0001:0003aa10       __wcsnicoll                1003ba10 f   LIBCMTD:wcsnicol.obj
 0001:0003ab50       ___crtCompareStringW       1003bb50 f   LIBCMTD:w_cmp.obj
 0001:0003ae80       __wcsnicmp                 1003be80 f   LIBCMTD:wcsnicmp.obj
 0001:0003b060       _towlower                  1003c060 f   LIBCMTD:towlower.obj
 0001:0003b130       __towlower_lk              1003c130 f   LIBCMTD:towlower.obj
 0001:0003b1f0       ___crtLCMapStringW         1003c1f0 f   LIBCMTD:w_map.obj
 0001:0003b540       _iswctype                  1003c540 f   LIBCMTD:iswctype.obj
 0001:0003b5c0       _is_wctype                 1003c5c0 f   LIBCMTD:iswctype.obj
 0001:0003b5d8       _SetEnvironmentVariableW@8 1003c5d8 f   kernel32:KERNEL32.dll
 0002:00000000       __imp__SetPixelFormat@12   1003d000     gdi32:GDI32.dll
 0002:00000004       __imp__DescribePixelFormat@16 1003d004     gdi32:GDI32.dll
 0002:00000008       __imp__GetDeviceCaps@8     1003d008     gdi32:GDI32.dll
 0002:0000000c       __imp__ChoosePixelFormat@8 1003d00c     gdi32:GDI32.dll
 0002:00000010       \177GDI32_NULL_THUNK_DATA  1003d010     gdi32:GDI32.dll
 0002:00000014       __imp__FreeLibrary@4       1003d014     kernel32:KERNEL32.dll
 0002:00000018       __imp__GetProcAddress@8    1003d018     kernel32:KERNEL32.dll
 0002:0000001c       __imp__LoadLibraryA@4      1003d01c     kernel32:KERNEL32.dll
 0002:00000020       __imp__SetEnvironmentVariableA@8 1003d020     kernel32:KERNEL32.dll
 0002:00000024       __imp__CompareStringW@24   1003d024     kernel32:KERNEL32.dll
 0002:00000028       __imp__CompareStringA@24   1003d028     kernel32:KERNEL32.dll
 0002:0000002c       __imp__GetLocaleInfoW@16   1003d02c     kernel32:KERNEL32.dll
 0002:00000030       __imp__VirtualFree@12      1003d030     kernel32:KERNEL32.dll
 0002:00000034       __imp__SetEndOfFile@4      1003d034     kernel32:KERNEL32.dll
 0002:00000038       __imp__GetOEMCP@0          1003d038     kernel32:KERNEL32.dll
 0002:0000003c       __imp__GetACP@0            1003d03c     kernel32:KERNEL32.dll
 0002:00000040       __imp__UnhandledExceptionFilter@4 1003d040     kernel32:KERNEL32.dll
 0002:00000044       __imp__CreateFileA@28      1003d044     kernel32:KERNEL32.dll
 0002:00000048       __imp__FlushFileBuffers@4  1003d048     kernel32:KERNEL32.dll
 0002:0000004c       __imp__SetStdHandle@8      1003d04c     kernel32:KERNEL32.dll
 0002:00000050       __imp__SetFilePointer@16   1003d050     kernel32:KERNEL32.dll
 0002:00000054       __imp__RtlUnwind@16        1003d054     kernel32:KERNEL32.dll
 0002:00000058       __imp__GetLastError@0      1003d058     kernel32:KERNEL32.dll
 0002:0000005c       __imp__FormatMessageA@28   1003d05c     kernel32:KERNEL32.dll
 0002:00000060       __imp__VirtualAlloc@16     1003d060     kernel32:KERNEL32.dll
 0002:00000064       __imp__ReadFile@20         1003d064     kernel32:KERNEL32.dll
 0002:00000068       __imp__GetVersionExA@4     1003d068     kernel32:KERNEL32.dll
 0002:0000006c       __imp__GetUserDefaultLCID@0 1003d06c     kernel32:KERNEL32.dll
 0002:00000070       __imp__EnumSystemLocalesA@8 1003d070     kernel32:KERNEL32.dll
 0002:00000074       __imp__IsBadWritePtr@8     1003d074     kernel32:KERNEL32.dll
 0002:00000078       __imp__IsBadReadPtr@8      1003d078     kernel32:KERNEL32.dll
 0002:0000007c       __imp__HeapValidate@12     1003d07c     kernel32:KERNEL32.dll
 0002:00000080       __imp__InterlockedDecrement@4 1003d080     kernel32:KERNEL32.dll
 0002:00000084       __imp__InterlockedIncrement@4 1003d084     kernel32:KERNEL32.dll
 0002:00000088       __imp__GetModuleFileNameA@12 1003d088     kernel32:KERNEL32.dll
 0002:0000008c       __imp__CreateDirectoryA@8  1003d08c     kernel32:KERNEL32.dll
 0002:00000090       __imp__FindFirstFileA@8    1003d090     kernel32:KERNEL32.dll
 0002:00000094       __imp__FindNextFileA@8     1003d094     kernel32:KERNEL32.dll
 0002:00000098       __imp__FindClose@4         1003d098     kernel32:KERNEL32.dll
 0002:0000009c       __imp__FileTimeToSystemTime@8 1003d09c     kernel32:KERNEL32.dll
 0002:000000a0       __imp__FileTimeToLocalFileTime@8 1003d0a0     kernel32:KERNEL32.dll
 0002:000000a4       __imp__GetTimeZoneInformation@4 1003d0a4     kernel32:KERNEL32.dll
 0002:000000a8       __imp__GetSystemTime@4     1003d0a8     kernel32:KERNEL32.dll
 0002:000000ac       __imp__GetLocalTime@4      1003d0ac     kernel32:KERNEL32.dll
 0002:000000b0       __imp__GetCommandLineA@0   1003d0b0     kernel32:KERNEL32.dll
 0002:000000b4       __imp__GetVersion@0        1003d0b4     kernel32:KERNEL32.dll
 0002:000000b8       __imp__GetModuleHandleA@4  1003d0b8     kernel32:KERNEL32.dll
 0002:000000bc       __imp__InitializeCriticalSection@4 1003d0bc     kernel32:KERNEL32.dll
 0002:000000c0       __imp__DeleteCriticalSection@4 1003d0c0     kernel32:KERNEL32.dll
 0002:000000c4       __imp__EnterCriticalSection@4 1003d0c4     kernel32:KERNEL32.dll
 0002:000000c8       __imp__LeaveCriticalSection@4 1003d0c8     kernel32:KERNEL32.dll
 0002:000000cc       __imp__ExitProcess@4       1003d0cc     kernel32:KERNEL32.dll
 0002:000000d0       __imp__FatalAppExitA@8     1003d0d0     kernel32:KERNEL32.dll
 0002:000000d4       __imp__HeapAlloc@12        1003d0d4     kernel32:KERNEL32.dll
 0002:000000d8       __imp__DebugBreak@0        1003d0d8     kernel32:KERNEL32.dll
 0002:000000dc       __imp__GetStdHandle@4      1003d0dc     kernel32:KERNEL32.dll
 0002:000000e0       __imp__WriteFile@20        1003d0e0     kernel32:KERNEL32.dll
 0002:000000e4       __imp__OutputDebugStringA@4 1003d0e4     kernel32:KERNEL32.dll
 0002:000000e8       __imp__HeapReAlloc@16      1003d0e8     kernel32:KERNEL32.dll
 0002:000000ec       __imp__HeapFree@12         1003d0ec     kernel32:KERNEL32.dll
 0002:000000f0       __imp__HeapDestroy@4       1003d0f0     kernel32:KERNEL32.dll
 0002:000000f4       __imp__HeapCreate@12       1003d0f4     kernel32:KERNEL32.dll
 0002:000000f8       __imp__TerminateProcess@8  1003d0f8     kernel32:KERNEL32.dll
 0002:000000fc       __imp__GetCurrentProcess@0 1003d0fc     kernel32:KERNEL32.dll
 0002:00000100       __imp__RaiseException@16   1003d100     kernel32:KERNEL32.dll
 0002:00000104       __imp__Sleep@4             1003d104     kernel32:KERNEL32.dll
 0002:00000108       __imp__WideCharToMultiByte@32 1003d108     kernel32:KERNEL32.dll
 0002:0000010c       __imp__MultiByteToWideChar@24 1003d10c     kernel32:KERNEL32.dll
 0002:00000110       __imp__LCMapStringA@24     1003d110     kernel32:KERNEL32.dll
 0002:00000114       __imp__LCMapStringW@24     1003d114     kernel32:KERNEL32.dll
 0002:00000118       __imp__CloseHandle@4       1003d118     kernel32:KERNEL32.dll
 0002:0000011c       __imp__SetConsoleCtrlHandler@8 1003d11c     kernel32:KERNEL32.dll
 0002:00000120       __imp__GetCurrentThreadId@0 1003d120     kernel32:KERNEL32.dll
 0002:00000124       __imp__TlsSetValue@8       1003d124     kernel32:KERNEL32.dll
 0002:00000128       __imp__TlsAlloc@0          1003d128     kernel32:KERNEL32.dll
 0002:0000012c       __imp__TlsFree@4           1003d12c     kernel32:KERNEL32.dll
 0002:00000130       __imp__SetLastError@4      1003d130     kernel32:KERNEL32.dll
 0002:00000134       __imp__TlsGetValue@4       1003d134     kernel32:KERNEL32.dll
 0002:00000138       __imp__GetCurrentThread@0  1003d138     kernel32:KERNEL32.dll
 0002:0000013c       __imp__SetHandleCount@4    1003d13c     kernel32:KERNEL32.dll
 0002:00000140       __imp__GetFileType@4       1003d140     kernel32:KERNEL32.dll
 0002:00000144       __imp__GetStartupInfoA@4   1003d144     kernel32:KERNEL32.dll
 0002:00000148       __imp__FreeEnvironmentStringsA@4 1003d148     kernel32:KERNEL32.dll
 0002:0000014c       __imp__FreeEnvironmentStringsW@4 1003d14c     kernel32:KERNEL32.dll
 0002:00000150       __imp__GetEnvironmentStrings@0 1003d150     kernel32:KERNEL32.dll
 0002:00000154       __imp__GetEnvironmentStringsW@0 1003d154     kernel32:KERNEL32.dll
 0002:00000158       __imp__GetStringTypeA@20   1003d158     kernel32:KERNEL32.dll
 0002:0000015c       __imp__GetStringTypeW@16   1003d15c     kernel32:KERNEL32.dll
 0002:00000160       __imp__GetCPInfo@8         1003d160     kernel32:KERNEL32.dll
 0002:00000164       __imp__IsValidLocale@8     1003d164     kernel32:KERNEL32.dll
 0002:00000168       __imp__IsValidCodePage@4   1003d168     kernel32:KERNEL32.dll
 0002:0000016c       __imp__GetLocaleInfoA@16   1003d16c     kernel32:KERNEL32.dll
 0002:00000170       __imp__SetEnvironmentVariableW@8 1003d170     kernel32:KERNEL32.dll
 0002:00000174       \177KERNEL32_NULL_THUNK_DATA 1003d174     kernel32:KERNEL32.dll
 0002:00000178       __imp__SetFocus@4          1003d178     user32:USER32.dll
 0002:0000017c       __imp__DestroyWindow@4     1003d17c     user32:USER32.dll
 0002:00000180       __imp__UnregisterClassA@8  1003d180     user32:USER32.dll
 0002:00000184       __imp__GetDC@4             1003d184     user32:USER32.dll
 0002:00000188       __imp__ReleaseDC@8         1003d188     user32:USER32.dll
 0002:0000018c       __imp__ChangeDisplaySettingsA@8 1003d18c     user32:USER32.dll
 0002:00000190       __imp__LoadCursorA@8       1003d190     user32:USER32.dll
 0002:00000194       __imp__RegisterClassA@4    1003d194     user32:USER32.dll
 0002:00000198       __imp__AdjustWindowRect@12 1003d198     user32:USER32.dll
 0002:0000019c       __imp__CreateWindowExA@48  1003d19c     user32:USER32.dll
 0002:000001a0       __imp__ShowWindow@8        1003d1a0     user32:USER32.dll
 0002:000001a4       __imp__UpdateWindow@4      1003d1a4     user32:USER32.dll
 0002:000001a8       __imp__SetForegroundWindow@4 1003d1a8     user32:USER32.dll
 0002:000001ac       \177USER32_NULL_THUNK_DATA 1003d1ac     user32:USER32.dll
 0002:000001b0       __imp__timeGetTime@0       1003d1b0     winmm:WINMM.dll
 0002:000001b4       \177WINMM_NULL_THUNK_DATA  1003d1b4     winmm:WINMM.dll
 0002:000001dc       ??_C@_0BC@NDEN@pics?1conchars?4pcx?$AA@ 1003d1dc     gl_draw.obj
 0002:000001f0       __real@8@3ffb8000000000000000 1003d1f0     gl_draw.obj
 0002:000001f8       ??_C@_0M@GKBO@pics?1?$CFs?4pcx?$AA@ 1003d1f8     gl_draw.obj
 0002:00000204       ??_C@_0BE@OFJF@Can?8t?5find?5pic?3?5?$CFs?6?$AA@ 1003d204     gl_draw.obj
 0002:00000218       __real@8@40058000000000000000 1003d218     gl_draw.obj
 0002:00000220       __real@8@4006ff00000000000000 1003d220     gl_draw.obj
 0002:00000228       ??_C@_0BF@FJLG@Draw_Fill?3?5bad?5color?$AA@ 1003d228     gl_draw.obj
 0002:00000240       __real@4@40078000000000000000 1003d240     gl_draw.obj
 0002:00000248       __real@8@40078000000000000000 1003d248     gl_draw.obj
 0002:00000250       ??_C@_0M@BAKM@GL_R3_G3_B2?$AA@ 1003d250     gl_image.obj
 0002:0000025c       ??_C@_07DDCO@GL_RGB4?$AA@  1003d25c     gl_image.obj
 0002:00000264       ??_C@_07JJLJ@GL_RGB5?$AA@  1003d264     gl_image.obj
 0002:0000026c       ??_C@_07MNMK@GL_RGB8?$AA@  1003d26c     gl_image.obj
 0002:00000274       ??_C@_06OCPL@GL_RGB?$AA@   1003d274     gl_image.obj
 0002:0000027c       ??_C@_08DJND@GL_RGBA2?$AA@ 1003d27c     gl_image.obj
 0002:00000288       ??_C@_08MGKB@GL_RGBA4?$AA@ 1003d288     gl_image.obj
 0002:00000294       ??_C@_0L@BGEN@GL_RGB5_A1?$AA@ 1003d294     gl_image.obj
 0002:000002a0       ??_C@_08DIEF@GL_RGBA8?$AA@ 1003d2a0     gl_image.obj
 0002:000002ac       ??_C@_07GNLF@GL_RGBA?$AA@  1003d2ac     gl_image.obj
 0002:000002b4       ??_C@_07FMEP@default?$AA@  1003d2b4     gl_image.obj
 0002:000002bc       ??_C@_0BI@KDJA@GL_LINEAR_MIPMAP_LINEAR?$AA@ 1003d2bc     gl_image.obj
 0002:000002d4       ??_C@_0BJ@FEEC@GL_NEAREST_MIPMAP_LINEAR?$AA@ 1003d2d4     gl_image.obj
 0002:000002f0       ??_C@_0BJ@CJFK@GL_LINEAR_MIPMAP_NEAREST?$AA@ 1003d2f0     gl_image.obj
 0002:0000030c       ??_C@_0BK@NEKN@GL_NEAREST_MIPMAP_NEAREST?$AA@ 1003d30c     gl_image.obj
 0002:00000328       ??_C@_09KGLC@GL_LINEAR?$AA@ 1003d328     gl_image.obj
 0002:00000334       ??_C@_0L@FLFP@GL_NEAREST?$AA@ 1003d334     gl_image.obj
 0002:00000340       __real@4@00000000000000000000 1003d340     gl_image.obj
 0002:00000344       ??_C@_0BB@KGGC@bad?5filter?5name?6?$AA@ 1003d344     gl_image.obj
 0002:00000358       ??_C@_0BN@OHAB@bad?5alpha?5texture?5mode?5name?6?$AA@ 1003d358     gl_image.obj
 0002:00000378       ??_C@_0BN@DBG@bad?5solid?5texture?5mode?5name?6?$AA@ 1003d378     gl_image.obj
 0002:00000398       ??_C@_0CO@CEEA@Total?5texel?5count?5?$CInot?5counting?5@ 1003d398     gl_image.obj
 0002:000003c8       ??_C@_0BB@DFHO@?5?$CF3i?5?$CF3i?5?$CFs?3?5?$CFs?6?$AA@ 1003d3c8     gl_image.obj
 0002:000003dc       ??_C@_01FCOA@?5?$AA@       1003d3dc     gl_image.obj
 0002:000003e0       ??_C@_01MLA@P?$AA@         1003d3e0     gl_image.obj
 0002:000003e4       ??_C@_01FJFF@W?$AA@        1003d3e4     gl_image.obj
 0002:000003e8       ??_C@_01PDAJ@S?$AA@        1003d3e8     gl_image.obj
 0002:000003ec       ??_C@_01PBLD@M?$AA@        1003d3ec     gl_image.obj
 0002:000003f0       ??_C@_0BE@DLJO@?9?9?9?9?9?9?9?9?9?9?9?9?9?9?9?9?9?9?6?$AA@ 1003d3f0     gl_image.obj
 0002:00000404       ??_C@_03EDOL@PAL?$AA@      1003d404     gl_image.obj
 0002:00000408       ??_C@_03DLPD@RGB?$AA@      1003d408     gl_image.obj
 0002:0000040c       ??_C@_0BK@DMON@PCX?5file?5?$CFs?5was?5malformed?$AA@ 1003d40c     gl_image.obj
 0002:00000428       ??_C@_0BB@OMGN@Bad?5pcx?5file?5?$CFs?6?$AA@ 1003d428     gl_image.obj
 0002:0000043c       ??_C@_0DM@POND@LoadTGA?3?5Only?532?5or?524?5bit?5image@ 1003d43c     gl_image.obj
 0002:00000478       ??_C@_0DI@KOAE@LoadTGA?3?5Only?5type?52?5and?510?5targ@ 1003d478     gl_image.obj
 0002:000004b0       ??_C@_0BB@PMAM@Bad?5tga?5file?5?$CFs?6?$AA@ 1003d4b0     gl_image.obj
 0002:000004c8       __real@8@3ffec000000000000000 1003d4c8     gl_image.obj
 0002:000004d0       __real@8@3ffd8000000000000000 1003d4d0     gl_image.obj
 0002:000004d8       ??_C@_0CJ@IOFB@Unknown?5number?5of?5texture?5compon@ 1003d4d8     gl_image.obj
 0002:00000504       ??_C@_0BF@OLFC@GL_Upload32?3?5too?5big?$AA@ 1003d504     gl_image.obj
 0002:0000051c       ??_C@_0BG@GJHB@GL_Upload8?3?5too?5large?$AA@ 1003d51c     gl_image.obj
 0002:00000538       __real@8@3ff8a3d70a3d70a3d800 1003d538     gl_image.obj
 0002:00000540       ??_C@_0BP@NGM@Draw_LoadPic?3?5?$CC?$CFs?$CC?5is?5too?5long?$AA@ 1003d540     gl_image.obj
 0002:00000560       ??_C@_0P@MCNK@MAX_GLTEXTURES?$AA@ 1003d560     gl_image.obj
 0002:00000570       ??_C@_0BN@FDBO@GL_FindImage?3?5can?8t?5load?5?$CFs?6?$AA@ 1003d570     gl_image.obj
 0002:00000590       ??_C@_04LCGE@?4tga?$AA@    1003d590     gl_image.obj
 0002:00000598       ??_C@_04GHND@?4wal?$AA@    1003d598     gl_image.obj
 0002:000005a0       ??_C@_04PHML@?4pcx?$AA@    1003d5a0     gl_image.obj
 0002:000005a8       ??_C@_0CA@GDHD@Couldn?8t?5load?5pics?1colormap?4pcx?$AA@ 1003d5a8     gl_image.obj
 0002:000005c8       ??_C@_0BC@EOBO@pics?1colormap?4pcx?$AA@ 1003d5c8     gl_image.obj
 0002:000005dc       __real@4@4006ff00000000000000 1003d5dc     gl_image.obj
 0002:000005e0       __real@8@4006ff80000000000000 1003d5e0     gl_image.obj
 0002:000005e8       __real@8@3ffe8000000000000000 1003d5e8     gl_image.obj
 0002:000005f0       ??_C@_0BN@JCJN@Couldn?8t?5load?5pics?116to8?4pcx?$AA@ 1003d5f0     gl_image.obj
 0002:00000610       ??_C@_0P@OFCI@pics?116to8?4dat?$AA@ 1003d610     gl_image.obj
 0002:00000620       ??_C@_01FBAH@1?$AA@        1003d620     gl_image.obj
 0002:00000624       __real@4@3fff8000000000000000 1003d624     gl_image.obj
 0002:00000628       ??_C@_09CNFC@intensity?$AA@ 1003d628     gl_image.obj
 0002:00000634       ??_C@_01KOLO@2?$AA@        1003d634     gl_image.obj
 0002:00000638       __real@8@4000c90fdaa22168c000 1003d638     gl_light.obj
 0002:00000640       __real@8@40038000000000000000 1003d640     gl_light.obj
 0002:00000648       __real@8@3ffcccccccccccccd000 1003d648     gl_light.obj
 0002:00000650       __real@8@3ffdb333333333333000 1003d650     gl_light.obj
 0002:00000658       __real@4@40058000000000000000 1003d658     gl_light.obj
 0002:00000660       __real@8@3ff78080808080808000 1003d660     gl_light.obj
 0002:00000668       __real@8@3ff78000000000000000 1003d668     gl_light.obj
 0002:00000670       __real@4@400a8000000000000000 1003d670     gl_light.obj
 0002:00000674       __real@4@40038000000000000000 1003d674     gl_light.obj
 0002:00000678       ??_C@_0BH@NCLK@Bad?5s_blocklights?5size?$AA@ 1003d678     gl_light.obj
 0002:00000690       ??_C@_0CL@IBMO@R_BuildLightMap?5called?5for?5non?9l@ 1003d690     gl_light.obj
 0002:000006bc       __real@4@40018000000000000000 1003d6bc     gl_mesh.obj
 0002:000006c0       __real@8@3fff8000000000000000 1003d6c0     gl_mesh.obj
 0002:000006c8       ??_C@_0CK@MHJA@R_DrawAliasModel?5?$CFs?3?5no?5such?5old@ 1003d6c8     gl_mesh.obj
 0002:000006f4       ??_C@_0CH@BMCP@R_DrawAliasModel?5?$CFs?3?5no?5such?5fra@ 1003d6f4     gl_mesh.obj
 0002:00000720       __real@8@3ffd9999999999999800 1003d720     gl_mesh.obj
 0002:00000728       __real@4@4006b400000000000000 1003d728     gl_mesh.obj
 0002:00000730       __real@8@3ffab60b60b60b60b800 1003d730     gl_mesh.obj
 0002:00000738       __real@8@3ffeccccccccccccd000 1003d738     gl_mesh.obj
 0002:00000740       __real@4@4001e000000000000000 1003d740     gl_mesh.obj
 0002:00000748       __real@8@3ffbccccccccccccd000 1003d748     gl_mesh.obj
 0002:00000750       __real@4@40069600000000000000 1003d750     gl_mesh.obj
 0002:00000754       __real@4@40008000000000000000 1003d754     gl_mesh.obj
 0002:00000758       ??_C@_0CK@BKAK@R_CullAliasModel?5?$CFs?3?5no?5such?5old@ 1003d758     gl_mesh.obj
 0002:00000784       ??_C@_0CH@HHDH@R_CullAliasModel?5?$CFs?3?5no?5such?5fra@ 1003d784     gl_mesh.obj
 0002:000007ac       ??_C@_0BL@HBDH@Mod_PointInLeaf?3?5bad?5model?$AA@ 1003d7ac     gl_model.obj
 0002:000007c8       ??_C@_0BE@KMED@Total?5resident?3?5?$CFi?6?$AA@ 1003d7c8     gl_model.obj
 0002:000007dc       ??_C@_09EHLB@?$CF8i?5?3?5?$CFs?6?$AA@ 1003d7dc     gl_model.obj
 0002:000007e8       ??_C@_0BA@GMNB@Loaded?5models?3?6?$AA@ 1003d7e8     gl_model.obj
 0002:000007f8       ??_C@_0CG@HPCL@Mod_NumForName?3?5unknown?5fileid?5f@ 1003d7f8     gl_model.obj
 0002:00000820       ??_C@_0BN@DJML@Mod_NumForName?3?5?$CFs?5not?5found?$AA@ 1003d820     gl_model.obj
 0002:00000840       ??_C@_0BO@PLCA@mod_numknown?5?$DN?$DN?5MAX_MOD_KNOWN?$AA@ 1003d840     gl_model.obj
 0002:00000860       ??_C@_0BI@DAMF@bad?5inline?5model?5number?$AA@ 1003d860     gl_model.obj
 0002:00000878       ??_C@_0BH@LKJJ@Mod_ForName?3?5NULL?5name?$AA@ 1003d878     gl_model.obj
 0002:00000890       ??_C@_0CG@OOHH@MOD_LoadBmodel?3?5funny?5lump?5size?5@ 1003d890     gl_model.obj
 0002:000008b8       ??_C@_0BC@DJDD@Couldn?8t?5load?5?$CFs?6?$AA@ 1003d8b8     gl_model.obj
 0002:000008cc       ??_C@_0BA@IDAI@textures?1?$CFs?4wal?$AA@ 1003d8cc     gl_model.obj
 0002:000008dc       ??_C@_0CD@COFD@MOD_LoadBmodel?3?5bad?5texinfo?5numb@ 1003d8dc     gl_model.obj
 0002:00000900       ??_C@_0CK@NMOI@Mod_ParseMarksurfaces?3?5bad?5surfa@ 1003d900     gl_model.obj
 0002:0000092c       ??_C@_0CO@DEJF@MOD_LoadBmodel?3?5bad?5surfedges?5co@ 1003d92c     gl_model.obj
 0002:0000095c       ??_C@_0CC@NIFN@Inline?5model?5?$CFi?5has?5bad?5firstnod@ 1003d95c     gl_model.obj
 0002:00000980       ??_C@_0EC@DMMC@Mod_LoadBrushModel?3?5?$CFs?5has?5wrong@ 1003d980     gl_model.obj
 0002:000009c4       ??_C@_0CF@GBO@Loaded?5a?5brush?5model?5after?5the?5w@ 1003d9c4     gl_model.obj
 0002:000009ec       ??_C@_0BH@IMJD@model?5?$CFs?5has?5no?5frames?$AA@ 1003d9ec     gl_model.obj
 0002:00000a04       ??_C@_0BK@EBGJ@model?5?$CFs?5has?5no?5triangles?$AA@ 1003da04     gl_model.obj
 0002:00000a20       ??_C@_0BM@MLIA@model?5?$CFs?5has?5no?5st?5vertices?$AA@ 1003da20     gl_model.obj
 0002:00000a3c       ??_C@_0BP@KFMM@model?5?$CFs?5has?5too?5many?5vertices?$AA@ 1003da3c     gl_model.obj
 0002:00000a5c       ??_C@_0BJ@BMCG@model?5?$CFs?5has?5no?5vertices?$AA@ 1003da5c     gl_model.obj
 0002:00000a78       ??_C@_0CD@DNIE@model?5?$CFs?5has?5a?5skin?5taller?5than?5@ 1003da78     gl_model.obj
 0002:00000a9c       ??_C@_0CO@LDOK@?$CFs?5has?5wrong?5version?5number?5?$CI?$CFi?5@ 1003da9c     gl_model.obj
 0002:00000acc       ??_C@_0CB@KANI@?$CFs?5has?5too?5many?5frames?5?$CI?$CFi?5?$DO?5?$CFi?$CJ@ 1003dacc     gl_model.obj
 0002:00000af0       ??_C@_08DIA@flushmap?$AA@  1003daf0     gl_model.obj
 0002:00000afc       ??_C@_01PLJA@0?$AA@        1003dafc     gl_model.obj
 0002:00000b00       ??_C@_0M@HBDC@maps?1?$CFs?4bsp?$AA@ 1003db00     gl_model.obj
 0002:00000b10       __real@8@40008000000000000000 1003db10     gl_rmain.obj
 0002:00000b18       ??_C@_0O@OAGB@Bad?5modeltype?$AA@ 1003db18     gl_rmain.obj
 0002:00000b28       __real@8@3ff783126e978d4fe000 1003db28     gl_rmain.obj
 0002:00000b30       __real@4@4003a000000000000000 1003db30     gl_rmain.obj
 0002:00000b34       __real@4@4005b400000000000000 1003db34     gl_rmain.obj
 0002:00000b38       __real@8@4007b400000000000000 1003db38     gl_rmain.obj
 0002:00000b40       ??_C@_0CF@GPFL@?$CF4i?5wpoly?5?$CF4i?5epoly?5?$CFi?5tex?5?$CFi?5lm@ 1003db40     gl_rmain.obj
 0002:00000b68       ??_C@_0BO@BODI@R_RenderView?3?5NULL?5worldmodel?$AA@ 1003db68     gl_rmain.obj
 0002:00000b88       ??_C@_0L@NAKP@gl_strings?$AA@ 1003db88     gl_rmain.obj
 0002:00000b94       ??_C@_09HFGF@modellist?$AA@ 1003db94     gl_rmain.obj
 0002:00000ba0       ??_C@_0L@BJLF@screenshot?$AA@ 1003dba0     gl_rmain.obj
 0002:00000bac       ??_C@_09PCJE@imagelist?$AA@ 1003dbac     gl_rmain.obj
 0002:00000bb8       ??_C@_07LICL@vid_ref?$AA@  1003dbb8     gl_rmain.obj
 0002:00000bc0       ??_C@_04NBLP@soft?$AA@     1003dbc0     gl_rmain.obj
 0002:00000bc8       ??_C@_09OPPC@vid_gamma?$AA@ 1003dbc8     gl_rmain.obj
 0002:00000bd4       ??_C@_03NNMA@1?40?$AA@     1003dbd4     gl_rmain.obj
 0002:00000bd8       ??_C@_0P@IAPJ@vid_fullscreen?$AA@ 1003dbd8     gl_rmain.obj
 0002:00000be8       ??_C@_0BB@KNCM@gl_3dlabs_broken?$AA@ 1003dbe8     gl_rmain.obj
 0002:00000bfc       ??_C@_0BE@BIIO@gl_saturatelighting?$AA@ 1003dbfc     gl_rmain.obj
 0002:00000c10       ??_C@_0BA@NBPP@gl_swapinterval?$AA@ 1003dc10     gl_rmain.obj
 0002:00000c20       ??_C@_0O@KCBC@gl_drawbuffer?$AA@ 1003dc20     gl_rmain.obj
 0002:00000c30       ??_C@_07MDNP@GL_BACK?$AA@  1003dc30     gl_rmain.obj
 0002:00000c38       ??_C@_0BN@OJDH@gl_ext_compiled_vertex_array?$AA@ 1003dc38     gl_rmain.obj
 0002:00000c58       ??_C@_0BH@KJFJ@gl_ext_pointparameters?$AA@ 1003dc58     gl_rmain.obj
 0002:00000c70       ??_C@_0BE@IOJK@gl_ext_multitexture?$AA@ 1003dc70     gl_rmain.obj
 0002:00000c84       ??_C@_0BH@CHJM@gl_ext_palettedtexture?$AA@ 1003dc84     gl_rmain.obj
 0002:00000c9c       ??_C@_0BE@OLOA@gl_ext_swapinterval?$AA@ 1003dc9c     gl_rmain.obj
 0002:00000cb0       ??_C@_0BB@KLFD@gl_vertex_arrays?$AA@ 1003dcb0     gl_rmain.obj
 0002:00000cc4       ??_C@_0L@ECM@gl_lockpvs?$AA@ 1003dcc4     gl_rmain.obj
 0002:00000cd0       ??_C@_0BE@PLJ@gl_texturesolidmode?$AA@ 1003dcd0     gl_rmain.obj
 0002:00000ce4       ??_C@_0BE@OFGJ@gl_texturealphamode?$AA@ 1003dce4     gl_rmain.obj
 0002:00000cf8       ??_C@_0P@NBDD@gl_texturemode?$AA@ 1003dcf8     gl_rmain.obj
 0002:00000d08       ??_C@_09MLK@gl_driver?$AA@ 1003dd08     gl_rmain.obj
 0002:00000d14       ??_C@_08MLDJ@opengl32?$AA@ 1003dd14     gl_rmain.obj
 0002:00000d20       ??_C@_0BA@PDAA@gl_monolightmap?$AA@ 1003dd20     gl_rmain.obj
 0002:00000d30       ??_C@_0N@GDME@gl_playermip?$AA@ 1003dd30     gl_rmain.obj
 0002:00000d40       ??_C@_0O@BGPL@gl_flashblend?$AA@ 1003dd40     gl_rmain.obj
 0002:00000d50       ??_C@_0N@GJLC@gl_polyblend?$AA@ 1003dd50     gl_rmain.obj
 0002:00000d60       ??_C@_07HMM@gl_cull?$AA@   1003dd60     gl_rmain.obj
 0002:00000d68       ??_C@_08CLGN@gl_clear?$AA@ 1003dd68     gl_rmain.obj
 0002:00000d74       ??_C@_09IEFK@gl_finish?$AA@ 1003dd74     gl_rmain.obj
 0002:00000d80       ??_C@_09HJPP@gl_ztrick?$AA@ 1003dd80     gl_rmain.obj
 0002:00000d8c       ??_C@_0M@GFIA@gl_showtris?$AA@ 1003dd8c     gl_rmain.obj
 0002:00000d98       ??_C@_09LFJH@gl_skymip?$AA@ 1003dd98     gl_rmain.obj
 0002:00000da4       ??_C@_09HOCI@gl_picmip?$AA@ 1003dda4     gl_rmain.obj
 0002:00000db0       ??_C@_0O@DCEE@gl_round_down?$AA@ 1003ddb0     gl_rmain.obj
 0002:00000dc0       ??_C@_09DLEF@gl_nobind?$AA@ 1003ddc0     gl_rmain.obj
 0002:00000dcc       ??_C@_0L@KKKG@gl_dynamic?$AA@ 1003ddcc     gl_rmain.obj
 0002:00000dd8       ??_C@_0L@DBCD@gl_shadows?$AA@ 1003ddd8     gl_rmain.obj
 0002:00000de4       ??_C@_0M@PLJG@gl_lightmap?$AA@ 1003dde4     gl_rmain.obj
 0002:00000df0       ??_C@_07KMDJ@gl_mode?$AA@  1003ddf0     gl_rmain.obj
 0002:00000df8       ??_C@_01ECJ@3?$AA@         1003ddf8     gl_rmain.obj
 0002:00000dfc       ??_C@_0M@GPNJ@gl_bitdepth?$AA@ 1003ddfc     gl_rmain.obj
 0002:00000e08       ??_C@_06HPAF@gl_log?$AA@   1003de08     gl_rmain.obj
 0002:00000e10       ??_C@_0M@OBKG@gl_modulate?$AA@ 1003de10     gl_rmain.obj
 0002:00000e1c       ??_C@_0BC@OLAN@gl_particle_att_c?$AA@ 1003de1c     gl_rmain.obj
 0002:00000e30       ??_C@_0BC@EBJK@gl_particle_att_b?$AA@ 1003de30     gl_rmain.obj
 0002:00000e44       ??_C@_03IPNG@0?40?$AA@     1003de44     gl_rmain.obj
 0002:00000e48       ??_C@_0BC@LOCD@gl_particle_att_a?$AA@ 1003de48     gl_rmain.obj
 0002:00000e5c       ??_C@_04CPII@0?401?$AA@    1003de5c     gl_rmain.obj
 0002:00000e64       ??_C@_0BB@BIOA@gl_particle_size?$AA@ 1003de64     gl_rmain.obj
 0002:00000e78       ??_C@_0BF@IIKN@gl_particle_max_size?$AA@ 1003de78     gl_rmain.obj
 0002:00000e90       ??_C@_02BOMB@40?$AA@       1003de90     gl_rmain.obj
 0002:00000e94       ??_C@_0BF@NLMC@gl_particle_min_size?$AA@ 1003de94     gl_rmain.obj
 0002:00000eac       ??_C@_0BC@HKAH@gl_allow_software?$AA@ 1003deac     gl_rmain.obj
 0002:00000ec0       ??_C@_0O@NIJN@gl_nosubimage?$AA@ 1003dec0     gl_rmain.obj
 0002:00000ed0       ??_C@_0N@JNBI@r_lightlevel?$AA@ 1003ded0     gl_rmain.obj
 0002:00000ee0       ??_C@_08MNKK@r_speeds?$AA@ 1003dee0     gl_rmain.obj
 0002:00000eec       ??_C@_0N@IKOP@r_lerpmodels?$AA@ 1003deec     gl_rmain.obj
 0002:00000efc       ??_C@_08HJPD@r_nocull?$AA@ 1003defc     gl_rmain.obj
 0002:00000f08       ??_C@_07CBKH@r_novis?$AA@  1003df08     gl_rmain.obj
 0002:00000f10       ??_C@_0M@GFDO@r_drawworld?$AA@ 1003df10     gl_rmain.obj
 0002:00000f1c       ??_C@_0P@LECL@r_drawentities?$AA@ 1003df1c     gl_rmain.obj
 0002:00000f2c       ??_C@_0N@MMGG@r_fullbright?$AA@ 1003df2c     gl_rmain.obj
 0002:00000f3c       ??_C@_0M@BNM@r_norefresh?$AA@ 1003df3c     gl_rmain.obj
 0002:00000f48       ??_C@_04KBBO@hand?$AA@     1003df48     gl_rmain.obj
 0002:00000f50       ??_C@_0DF@EHEG@ref_gl?3?3R_SetMode?$CI?$CJ?5?9?5could?5not?5@ 1003df50     gl_rmain.obj
 0002:00000f88       ??_C@_0CE@HIMO@ref_gl?3?3R_SetMode?$CI?$CJ?5?9?5invalid?5mo@ 1003df88     gl_rmain.obj
 0002:00000fac       ??_C@_0DL@BJEC@ref_gl?3?3R_SetMode?$CI?$CJ?5?9?5fullscreen@ 1003dfac     gl_rmain.obj
 0002:00000fe8       ??_C@_0DA@GJC@R_SetMode?$CI?$CJ?5?9?5CDS?5not?5allowed?5wi@ 1003dfe8     gl_rmain.obj
 0002:00001018       ??_C@_0BF@LPBA@glGetError?$CI?$CJ?5?$DN?50x?$CFx?6?$AA@ 1003e018     gl_rmain.obj
 0002:00001030       ??_C@_0CD@JADD@?4?4?4GL_SGIS_multitexture?5not?5foun@ 1003e030     gl_rmain.obj
 0002:00001054       ??_C@_0CC@PJPP@?4?4?4ignoring?5GL_SGIS_multitexture@ 1003e054     gl_rmain.obj
 0002:00001078       ??_C@_0BE@LEFG@glSelectTextureSGIS?$AA@ 1003e078     gl_rmain.obj
 0002:0000108c       ??_C@_0BC@MFNG@glMTexCoord2fSGIS?$AA@ 1003e08c     gl_rmain.obj
 0002:000010a0       ??_C@_0BP@EIOG@?4?4?4using?5GL_SGIS_multitexture?6?$AA@ 1003e0a0     gl_rmain.obj
 0002:000010c0       ??_C@_0EB@LACC@?4?4?4GL_SGIS_multitexture?5deprecat@ 1003e0c0     gl_rmain.obj
 0002:00001104       ??_C@_0BF@IIHM@GL_SGIS_multitexture?$AA@ 1003e104     gl_rmain.obj
 0002:0000111c       ??_C@_0CC@GFL@?4?4?4GL_ARB_multitexture?5not?5found@ 1003e11c     gl_rmain.obj
 0002:00001140       ??_C@_0CB@FGHI@?4?4?4ignoring?5GL_ARB_multitexture?6@ 1003e140     gl_rmain.obj
 0002:00001164       ??_C@_0BJ@NIEC@glClientActiveTextureARB?$AA@ 1003e164     gl_rmain.obj
 0002:00001180       ??_C@_0BD@IJD@glActiveTextureARB?$AA@ 1003e180     gl_rmain.obj
 0002:00001194       ??_C@_0BF@HBBL@glMultiTexCoord2fARB?$AA@ 1003e194     gl_rmain.obj
 0002:000011ac       ??_C@_0BO@EPJH@?4?4?4using?5GL_ARB_multitexture?6?$AA@ 1003e1ac     gl_rmain.obj
 0002:000011cc       ??_C@_0BE@EHGK@GL_ARB_multitexture?$AA@ 1003e1cc     gl_rmain.obj
 0002:000011e0       ??_C@_0CM@HCAK@?4?4?4GL_EXT_shared_texture_palette@ 1003e1e0     gl_rmain.obj
 0002:0000120c       ??_C@_0CL@NPIN@?4?4?4ignoring?5GL_EXT_shared_textur@ 1003e20c     gl_rmain.obj
 0002:00001238       ??_C@_0BA@KNH@glColorTableEXT?$AA@ 1003e238     gl_rmain.obj
 0002:00001248       ??_C@_0CI@PJD@?4?4?4using?5GL_EXT_shared_texture_p@ 1003e248     gl_rmain.obj
 0002:00001270       ??_C@_0BO@MOIO@GL_EXT_shared_texture_palette?$AA@ 1003e270     gl_rmain.obj
 0002:00001290       ??_C@_0BI@PMCH@GL_EXT_paletted_texture?$AA@ 1003e290     gl_rmain.obj
 0002:000012a8       ??_C@_0CG@HLOA@?4?4?4GL_EXT_point_parameters?5not?5f@ 1003e2a8     gl_rmain.obj
 0002:000012d0       ??_C@_0CF@DOCK@?4?4?4ignoring?5GL_EXT_point_paramet@ 1003e2d0     gl_rmain.obj
 0002:000012f8       ??_C@_0CC@OBDC@?4?4?4using?5GL_EXT_point_parameters@ 1003e2f8     gl_rmain.obj
 0002:0000131c       ??_C@_0BG@LCNK@glPointParameterfvEXT?$AA@ 1003e31c     gl_rmain.obj
 0002:00001334       ??_C@_0BF@MOFD@glPointParameterfEXT?$AA@ 1003e334     gl_rmain.obj
 0002:0000134c       ??_C@_0BI@CKLF@GL_EXT_point_parameters?$AA@ 1003e34c     gl_rmain.obj
 0002:00001364       ??_C@_0CD@PMPI@?4?4?4WGL_EXT_swap_control?5not?5foun@ 1003e364     gl_rmain.obj
 0002:00001388       ??_C@_0CC@PMPD@?4?4?4enabling?5WGL_EXT_swap_control@ 1003e388     gl_rmain.obj
 0002:000013ac       ??_C@_0BD@LGGF@wglSwapIntervalEXT?$AA@ 1003e3ac     gl_rmain.obj
 0002:000013c0       ??_C@_0BF@NADO@WGL_EXT_swap_control?$AA@ 1003e3c0     gl_rmain.obj
 0002:000013d8       ??_C@_0CL@MHED@?4?4?4GL_EXT_compiled_vertex_array?5@ 1003e3d8     gl_rmain.obj
 0002:00001404       ??_C@_0BC@MMDJ@glUnlockArraysEXT?$AA@ 1003e404     gl_rmain.obj
 0002:00001418       ??_C@_0BA@NLCH@glLockArraysEXT?$AA@ 1003e418     gl_rmain.obj
 0002:00001428       ??_C@_0CK@CGMH@?4?4?4enabling?5GL_EXT_compiled_vert@ 1003e428     gl_rmain.obj
 0002:00001454       ??_C@_0BN@OPLL@GL_SGI_compiled_vertex_array?$AA@ 1003e454     gl_rmain.obj
 0002:00001474       ??_C@_0BN@MLLO@GL_EXT_compiled_vertex_array?$AA@ 1003e474     gl_rmain.obj
 0002:00001494       ??_C@_0BC@KNNB@?4?4?4disabling?5CDS?6?$AA@ 1003e494     gl_rmain.obj
 0002:000014a8       ??_C@_0BB@HHFL@?4?4?4allowing?5CDS?6?$AA@ 1003e4a8     gl_rmain.obj
 0002:000014bc       ??_C@_0M@CGPG@scr_drawall?$AA@ 1003e4bc     gl_rmain.obj
 0002:000014c8       ??_C@_0BO@LPNL@?4?4?4using?5gl_monolightmap?5?8a?8?6?$AA@ 1003e4c8     gl_rmain.obj
 0002:000014e8       ??_C@_01PFH@A?$AA@         1003e4e8     gl_rmain.obj
 0002:000014ec       ??_C@_06IKAA@verite?$AA@   1003e4ec     gl_rmain.obj
 0002:000014f4       ??_C@_04JEBG@pcx2?$AA@     1003e4f4     gl_rmain.obj
 0002:000014fc       ??_C@_03FFEM@gdi?$AA@      1003e4fc     gl_rmain.obj
 0002:00001500       ??_C@_06GPFG@glzicd?$AA@   1003e500     gl_rmain.obj
 0002:00001508       ??_C@_05GAJH@glint?$AA@    1003e508     gl_rmain.obj
 0002:00001510       ??_C@_08KOOM@permedia?$AA@ 1003e510     gl_rmain.obj
 0002:0000151c       ??_C@_03HID@sgi?$AA@       1003e51c     gl_rmain.obj
 0002:00001520       ??_C@_04JACC@rush?$AA@     1003e520     gl_rmain.obj
 0002:00001528       ??_C@_06GLKG@voodoo?$AA@   1003e528     gl_rmain.obj
 0002:00001530       ??_C@_0BD@PFIA@GL_EXTENSIONS?3?5?$CFs?6?$AA@ 1003e530     gl_rmain.obj
 0002:00001544       ??_C@_0BA@PCBE@GL_VERSION?3?5?$CFs?6?$AA@ 1003e544     gl_rmain.obj
 0002:00001554       ??_C@_0BB@KKEK@GL_RENDERER?3?5?$CFs?6?$AA@ 1003e554     gl_rmain.obj
 0002:00001568       ??_C@_0P@KDAA@GL_VENDOR?3?5?$CFs?6?$AA@ 1003e568     gl_rmain.obj
 0002:00001578       ??_C@_0CK@LCCO@ref_gl?3?3R_Init?$CI?$CJ?5?9?5could?5not?5R_S@ 1003e578     gl_rmain.obj
 0002:000015a4       ??_C@_0CI@LCAE@ref_gl?3?3R_Init?$CI?$CJ?5?9?5could?5not?5loa@ 1003e5a4     gl_rmain.obj
 0002:000015cc       ??_C@_0BJ@ECO@ref_gl?5version?3?5GL?50?401?6?$AA@ 1003e5cc     gl_rmain.obj
 0002:000015e8       ??_C@_08IIC@GL_FRONT?$AA@  1003e5e8     gl_rmain.obj
 0002:000015f4       ??_C@_0N@KBMB@SST_GAMMA?$DN?$CFf?$AA@ 1003e5f4     gl_rmain.obj
 0002:00001604       ??_C@_0P@IHBO@SSTV2_GAMMA?$DN?$CFf?$AA@ 1003e604     gl_rmain.obj
 0002:00001614       ??_C@_02BHGG@gl?$AA@       1003e614     gl_rmain.obj
 0002:00001618       __real@4@3ff78080810000000000 1003e618     gl_rmain.obj
 0002:00001620       __real@8@4004f000000000000000 1003e620     gl_rmain.obj
 0002:00001628       ??_C@_02DILL@?$CFs?$AA@    1003e628     gl_rmain.obj
 0002:0000162c       ??_C@_0BC@LOCA@?$CK?$CK?$CKr_notexture?$CK?$CK?$CK?$AA@ 1003e62c     gl_rmisc.obj
 0002:00001640       ??_C@_0P@KKPF@?$CK?$CK?$CKparticle?$CK?$CK?$CK?$AA@ 1003e640     gl_rmisc.obj
 0002:00001650       ??_C@_09PAG@Wrote?5?$CFs?6?$AA@ 1003e650     gl_rmisc.obj
 0002:0000165c       ??_C@_02NGAF@wb?$AA@       1003e65c     gl_rmisc.obj
 0002:00001660       ??_C@_0CK@GBDB@SCR_ScreenShot_f?3?5Couldn?8t?5creat@ 1003e660     gl_rmisc.obj
 0002:0000168c       ??_C@_02JKAF@rb?$AA@       1003e68c     gl_rmisc.obj
 0002:00001690       ??_C@_0P@IIAJ@?$CFs?1scrnshot?1?$CFs?$AA@ 1003e690     gl_rmisc.obj
 0002:000016a0       ??_C@_0M@MDPL@quake00?4tga?$AA@ 1003e6a0     gl_rmisc.obj
 0002:000016ac       ??_C@_0M@JMKG@?$CFs?1scrnshot?$AA@ 1003e6ac     gl_rmisc.obj
 0002:000016b8       __real@8@00000000000000000000 1003e6b8     gl_rsurf.obj
 0002:000016c0       __real@8@c0058000000000000000 1003e6c0     gl_rsurf.obj
 0002:000016c8       __real@8@4004a000000000000000 1003e6c8     gl_rsurf.obj
 0002:000016d0       ??_C@_0DM@MGEH@Consecutive?5calls?5to?5LM_AllocBlo@ 1003e6d0     gl_rsurf.obj
 0002:00001710       __real@8@3ff88000000000000000 1003e710     gl_rsurf.obj
 0002:00001718       __real@8@bff8a3d70a3d70a3d800 1003e718     gl_rsurf.obj
 0002:00001720       ??_C@_0CL@JCJM@LM_UploadBlock?$CI?$CJ?5?9?5MAX_LIGHTMAPS@ 1003e720     gl_rsurf.obj
 0002:0000174c       __real@4@40028000000000000000 1003e74c     gl_rsurf.obj
 0002:00001750       ??_C@_0DC@IEOP@Consecutive?5calls?5to?5LM_AllocBlo@ 1003e750     gl_rsurf.obj
 0002:00001784       ??_C@_02HJLH@dn?$AA@       1003e784     gl_warp.obj
 0002:00001788       ??_C@_02HAO@up?$AA@        1003e788     gl_warp.obj
 0002:0000178c       ??_C@_02PMAE@ft?$AA@       1003e78c     gl_warp.obj
 0002:00001790       ??_C@_02JIFL@lf?$AA@       1003e790     gl_warp.obj
 0002:00001794       ??_C@_02OID@bk?$AA@        1003e794     gl_warp.obj
 0002:00001798       ??_C@_02MMAH@rt?$AA@       1003e798     gl_warp.obj
 0002:0000179c       ??_C@_0O@EIDL@numverts?5?$DN?5?$CFi?$AA@ 1003e79c     gl_warp.obj
 0002:000017b0       __real@8@3ff98000000000000000 1003e7b0     gl_warp.obj
 0002:000017b8       __real@8@4004a2f9836e4e441800 1003e7b8     gl_warp.obj
 0002:000017c0       __real@8@3ffc8000000000000000 1003e7c0     gl_warp.obj
 0002:000017c8       __real@8@3ff583126e978d4fe000 1003e7c8     gl_warp.obj
 0002:000017d0       __real@8@bffbccccccccccccd000 1003e7d0     gl_warp.obj
 0002:000017d8       ??_C@_0BP@NDMM@ClipSkyPolygon?3?5MAX_CLIP_VERTS?$AA@ 1003e7d8     gl_warp.obj
 0002:000017f8       __real@4@400a8fc0000000000000 1003e7f8     gl_warp.obj
 0002:000017fc       ??_C@_0N@KONA@env?1?$CFs?$CFs?4tga?$AA@ 1003e7fc     gl_warp.obj
 0002:0000180c       ??_C@_0N@OLHP@env?1?$CFs?$CFs?4pcx?$AA@ 1003e80c     gl_warp.obj
 0002:0000181c       ??_C@_0CK@LOPB@VID_CreateWindow?$CI?$CJ?5?9?5GLimp_InitG@ 1003e81c     glw_imp.obj
 0002:00001848       ??_C@_0BH@EAPI@Couldn?8t?5create?5window?$AA@ 1003e848     glw_imp.obj
 0002:00001860       ??_C@_08LJOP@vid_ypos?$AA@ 1003e860     glw_imp.obj
 0002:0000186c       ??_C@_08JMLN@vid_xpos?$AA@ 1003e86c     glw_imp.obj
 0002:00001878       ??_C@_0BP@ODO@Couldn?8t?5register?5window?5class?$AA@ 1003e878     glw_imp.obj
 0002:00001898       ??_C@_07JHCN@Quake?52?$AA@ 1003e898     glw_imp.obj
 0002:000018a0       ??_C@_04LDCD@?5ok?6?$AA@   1003e8a0     glw_imp.obj
 0002:000018a8       ??_C@_0BK@GIGP@?4?4?4setting?5windowed?5mode?6?$AA@ 1003e8a8     glw_imp.obj
 0002:000018c4       ??_C@_08MIMI@?5failed?6?$AA@ 1003e8c4     glw_imp.obj
 0002:000018d0       ??_C@_0CH@FLII@?4?4?4calling?5CDS?5assuming?5dual?5mon@ 1003e8d0     glw_imp.obj
 0002:000018f8       ??_C@_07MNBK@failed?6?$AA@ 1003e8f8     glw_imp.obj
 0002:00001900       ??_C@_03BJGB@ok?6?$AA@     1003e900     glw_imp.obj
 0002:00001904       ??_C@_0BB@GOGC@?4?4?4calling?5CDS?3?5?$AA@ 1003e904     glw_imp.obj
 0002:00001918       ??_C@_0CG@DLHK@?4?4?4using?5desktop?5display?5depth?5o@ 1003e918     glw_imp.obj
 0002:00001940       ??_C@_0BM@IACG@?4?4?4using?5gl_bitdepth?5of?5?$CFd?6?$AA@ 1003e940     glw_imp.obj
 0002:0000195c       ??_C@_0BK@NIFM@?4?4?4attempting?5fullscreen?6?$AA@ 1003e95c     glw_imp.obj
 0002:00001978       ??_C@_0L@KBPO@?5?$CFd?5?$CFd?5?$CFs?6?$AA@ 1003e978     glw_imp.obj
 0002:00001984       ??_C@_0P@MBPJ@?5invalid?5mode?6?$AA@ 1003e984     glw_imp.obj
 0002:00001994       ??_C@_0BE@GOGB@?4?4?4setting?5mode?5?$CFd?3?$AA@ 1003e994     glw_imp.obj
 0002:000019a8       ??_C@_0BN@OHDF@Initializing?5OpenGL?5display?6?$AA@ 1003e9a8     glw_imp.obj
 0002:000019c8       ??_C@_02COFD@FS?$AA@       1003e9c8     glw_imp.obj
 0002:000019cc       ??_C@_0CJ@MFPO@ref_gl?3?3R_Shutdown?$CI?$CJ?5?9?5ReleaseDC@ 1003e9cc     glw_imp.obj
 0002:000019f8       ??_C@_0DA@KAJM@ref_gl?3?3R_Shutdown?$CI?$CJ?5?9?5wglDelete@ 1003e9f8     glw_imp.obj
 0002:00001a28       ??_C@_0CO@MLGK@ref_gl?3?3R_Shutdown?$CI?$CJ?5?9?5wglMakeCu@ 1003ea28     glw_imp.obj
 0002:00001a58       ??_C@_0CE@GAIP@GLimp_Init?$CI?$CJ?5?9?5GetVersionEx?5fail@ 1003ea58     glw_imp.obj
 0002:00001a7c       ??_C@_0CC@HECM@GL?5PFD?3?5color?$CI?$CFd?9bits?$CJ?5Z?$CI?$CFd?9bit?$CJ@ 1003ea7c     glw_imp.obj
 0002:00001aa0       ??_C@_0DC@GDGP@GLimp_Init?$CI?$CJ?5?9?5no?5hardware?5accel@ 1003eaa0     glw_imp.obj
 0002:00001ad4       ??_C@_0CH@HGPG@GLimp_Init?$CI?$CJ?5?9?5qwglMakeCurrent?5f@ 1003ead4     glw_imp.obj
 0002:00001afc       ??_C@_0CJ@OMIM@GLimp_Init?$CI?$CJ?5?9?5qwglCreateContext@ 1003eafc     glw_imp.obj
 0002:00001b28       ??_C@_0CJ@DGDH@?4?4?4failed?5to?5select?5stereo?5pixel@ 1003eb28     glw_imp.obj
 0002:00001b54       ??_C@_0CG@FAPB@GLimp_Init?$CI?$CJ?5?9?5SetPixelFormat?5fa@ 1003eb54     glw_imp.obj
 0002:00001b7c       ??_C@_0CJ@JNOB@GLimp_Init?$CI?$CJ?5?9?5ChoosePixelFormat@ 1003eb7c     glw_imp.obj
 0002:00001ba8       ??_C@_0CK@DGCM@GLimp_Init?$CI?$CJ?5?9?5qwglSetPixelForma@ 1003eba8     glw_imp.obj
 0002:00001bd4       ??_C@_0CN@INPE@GLimp_Init?$CI?$CJ?5?9?5qwglChoosePixelFo@ 1003ebd4     glw_imp.obj
 0002:00001c04       ??_C@_0BN@LOIH@GLimp_Init?$CI?$CJ?5?9?5GetDC?5failed?6?$AA@ 1003ec04     glw_imp.obj
 0002:00001c24       ??_C@_0CD@KPOD@GLimp_Init?$CI?$CJ?5?9?5non?9NULL?5DC?5exist@ 1003ec24     glw_imp.obj
 0002:00001c48       ??_C@_0BN@PFPF@?4?4?4attempting?5to?5use?5stereo?6?$AA@ 1003ec48     glw_imp.obj
 0002:00001c68       ??_C@_09HNKG@cl_stereo?$AA@ 1003ec68     glw_imp.obj
 0002:00001c74       ??_C@_0M@OLMH@gdi?5generic?$AA@ 1003ec74     glw_imp.obj
 0002:00001c80       ??_C@_0DA@ELCL@gl_bitdepth?5requires?5Win95?5OSR2?4@ 1003ec80     glw_imp.obj
 0002:00001cb0       ??_C@_0CK@PHLH@GLimp_EndFrame?$CI?$CJ?5?9?5SwapBuffers?$CI?$CJ@ 1003ecb0     glw_imp.obj
 0002:00001cdc       ??_C@_0BD@GNGB@err?5?$DN?$DN?5GL_NO_ERROR?$AA@ 1003ecdc     glw_imp.obj
 0002:00001cf0       ??_C@_0FI@DOPN@c?3?2documents?5and?5settings?2mio?2de@ 1003ecf0     glw_imp.obj
 0002:00001d48       __real@8@4006b400000000000000 1003ed48     q_shared.obj
 0002:00001d50       __real@4@bfff8000000000000000 1003ed50     q_shared.obj
 0002:00001d58       __real@8@3ff98efa351294e9c800 1003ed58     q_shared.obj
 0002:00001d60       __real@4@c006b400000000000000 1003ed60     q_shared.obj
 0002:00001d64       __real@4@4007b400000000000000 1003ed64     q_shared.obj
 0002:00001d68       __real@8@3ff7b400000000000000 1003ed68     q_shared.obj
 0002:00001d70       __real@8@4006b60b60b60b60b800 1003ed70     q_shared.obj
 0002:00001d78       ??_C@_00A@?$AA@            1003ed78     q_shared.obj
 0002:00001d7c       ??_C@_0CD@KCEE@Com_sprintf?3?5overflow?5of?5?$CFi?5in?5?$CF@ 1003ed7c     q_shared.obj
 0002:00001da0       ??_C@_01PCFE@?2?$AA@       1003eda0     q_shared.obj
 0002:00001da4       ??_C@_01FAJB@?$DL?$AA@     1003eda4     q_shared.obj
 0002:00001da8       ??_C@_01HMO@?$CC?$AA@      1003eda8     q_shared.obj
 0002:00001dac       ??_C@_0BN@DPCF@Info?5string?5length?5exceeded?6?$AA@ 1003edac     q_shared.obj
 0002:00001dcc       ??_C@_06GNBE@?2?$CFs?2?$CFs?$AA@ 1003edcc     q_shared.obj
 0002:00001dd4       ??_C@_0CK@EOML@Keys?5and?5values?5must?5be?5?$DM?564?5cha@ 1003edd4     q_shared.obj
 0002:00001e00       ??_C@_0CD@NLGB@Can?8t?5use?5keys?5or?5values?5with?5a?5@ 1003ee00     q_shared.obj
 0002:00001e24       ??_C@_0CL@GPCB@Can?8t?5use?5keys?5or?5values?5with?5a?5@ 1003ee24     q_shared.obj
 0002:00001e50       ??_C@_0CD@MJE@Can?8t?5use?5keys?5or?5values?5with?5a?5@ 1003ee50     q_shared.obj
 0002:00001e74       ??_C@_0BM@HKED@VirtualAlloc?5reserve?5failed?$AA@ 1003ee74     q_shwin.obj
 0002:00001e90       ??_C@_0BE@LBDL@Hunk_Alloc?5overflow?$AA@ 1003ee90     q_shwin.obj
 0002:00001ea4       ??_C@_0BP@NMGK@VirtualAlloc?5commit?5failed?4?6?$CFs?$AA@ 1003eea4     q_shwin.obj
 0002:00001ec4       ??_C@_05LELA@?$CFs?1?$CFs?$AA@ 1003eec4     q_shwin.obj
 0002:00001ecc       ??_C@_0BM@NAGK@Sys_BeginFind?5without?5close?$AA@ 1003eecc     q_shwin.obj
 0002:00001ee8       ??_C@_0P@EKFP@wglSwapBuffers?$AA@ 1003eee8     qgl_win.obj
 0002:00001ef8       ??_C@_0BC@PJLC@wglSetPixelFormat?$AA@ 1003eef8     qgl_win.obj
 0002:00001f0c       ??_C@_0BC@HNOB@wglGetPixelFormat?$AA@ 1003ef0c     qgl_win.obj
 0002:00001f20       ??_C@_0BH@IJMD@wglDescribePixelFormat?$AA@ 1003ef20     qgl_win.obj
 0002:00001f38       ??_C@_0BF@HPKH@wglChoosePixelFormat?$AA@ 1003ef38     qgl_win.obj
 0002:00001f50       ??_C@_0BE@BLEJ@wglUseFontOutlinesA?$AA@ 1003ef50     qgl_win.obj
 0002:00001f64       ??_C@_0BD@HEJO@wglUseFontBitmapsA?$AA@ 1003ef64     qgl_win.obj
 0002:00001f78       ??_C@_0BE@OGBC@wglSwapLayerBuffers?$AA@ 1003ef78     qgl_win.obj
 0002:00001f8c       ??_C@_0O@FEIN@wglShareLists?$AA@ 1003ef8c     qgl_win.obj
 0002:00001f9c       ??_C@_0BK@GALE@wglSetLayerPaletteEntries?$AA@ 1003ef9c     qgl_win.obj
 0002:00001fb8       ??_C@_0BH@PBCJ@wglRealizeLayerPalette?$AA@ 1003efb8     qgl_win.obj
 0002:00001fd0       ??_C@_0P@NFHG@wglMakeCurrent?$AA@ 1003efd0     qgl_win.obj
 0002:00001fe0       ??_C@_0BC@HKHL@wglGetProcAddress?$AA@ 1003efe0     qgl_win.obj
 0002:00001ff4       ??_C@_0BK@KDPB@wglGetLayerPaletteEntries?$AA@ 1003eff4     qgl_win.obj
 0002:00002010       ??_C@_0BA@CCCK@wglGetCurrentDC?$AA@ 1003f010     qgl_win.obj
 0002:00002020       ??_C@_0BF@KNNO@wglGetCurrentContext?$AA@ 1003f020     qgl_win.obj
 0002:00002038       ??_C@_0BG@EJKI@wglDescribeLayerPlane?$AA@ 1003f038     qgl_win.obj
 0002:00002050       ??_C@_0BB@IOBP@wglDeleteContext?$AA@ 1003f050     qgl_win.obj
 0002:00002064       ??_C@_0BG@CDDJ@wglCreateLayerContext?$AA@ 1003f064     qgl_win.obj
 0002:0000207c       ??_C@_0BB@GGNL@wglCreateContext?$AA@ 1003f07c     qgl_win.obj
 0002:00002090       ??_C@_0P@KOJI@wglCopyContext?$AA@ 1003f090     qgl_win.obj
 0002:000020a0       ??_C@_0L@INIC@glViewport?$AA@ 1003f0a0     qgl_win.obj
 0002:000020ac       ??_C@_0BA@OGPO@glVertexPointer?$AA@ 1003f0ac     qgl_win.obj
 0002:000020bc       ??_C@_0M@GIMB@glVertex4sv?$AA@ 1003f0bc     qgl_win.obj
 0002:000020c8       ??_C@_0L@ODPL@glVertex4s?$AA@ 1003f0c8     qgl_win.obj
 0002:000020d4       ??_C@_0M@JKGJ@glVertex4iv?$AA@ 1003f0d4     qgl_win.obj
 0002:000020e0       ??_C@_0L@ELBN@glVertex4i?$AA@ 1003f0e0     qgl_win.obj
 0002:000020ec       ??_C@_0M@EOGI@glVertex4fv?$AA@ 1003f0ec     qgl_win.obj
 0002:000020f8       ??_C@_0L@EKEA@glVertex4f?$AA@ 1003f0f8     qgl_win.obj
 0002:00002104       ??_C@_0M@GDDN@glVertex4dv?$AA@ 1003f104     qgl_win.obj
 0002:00002110       ??_C@_0L@BPGO@glVertex4d?$AA@ 1003f110     qgl_win.obj
 0002:0000211c       ??_C@_0M@NGKA@glVertex3sv?$AA@ 1003f11c     qgl_win.obj
 0002:00002128       ??_C@_0L@ICKO@glVertex3s?$AA@ 1003f128     qgl_win.obj
 0002:00002134       ??_C@_0M@CEAI@glVertex3iv?$AA@ 1003f134     qgl_win.obj
 0002:00002140       ??_C@_0L@CKEI@glVertex3i?$AA@ 1003f140     qgl_win.obj
 0002:0000214c       ??_C@_0M@PAAJ@glVertex3fv?$AA@ 1003f14c     qgl_win.obj
 0002:00002158       ??_C@_0L@CLBF@glVertex3f?$AA@ 1003f158     qgl_win.obj
 0002:00002164       ??_C@_0M@NNFM@glVertex3dv?$AA@ 1003f164     qgl_win.obj
 0002:00002170       ??_C@_0L@HODL@glVertex3d?$AA@ 1003f170     qgl_win.obj
 0002:0000217c       ??_C@_0M@IELG@glVertex2sv?$AA@ 1003f17c     qgl_win.obj
 0002:00002188       ??_C@_0L@JEAE@glVertex2s?$AA@ 1003f188     qgl_win.obj
 0002:00002194       ??_C@_0M@HGBO@glVertex2iv?$AA@ 1003f194     qgl_win.obj
 0002:000021a0       ??_C@_0L@DMOC@glVertex2i?$AA@ 1003f1a0     qgl_win.obj
 0002:000021ac       ??_C@_0M@KCBP@glVertex2fv?$AA@ 1003f1ac     qgl_win.obj
 0002:000021b8       ??_C@_0L@DNLP@glVertex2f?$AA@ 1003f1b8     qgl_win.obj
 0002:000021c4       ??_C@_0M@IPEK@glVertex2dv?$AA@ 1003f1c4     qgl_win.obj
 0002:000021d0       ??_C@_0L@GIJB@glVertex2d?$AA@ 1003f1d0     qgl_win.obj
 0002:000021dc       ??_C@_0N@NKAJ@glTranslatef?$AA@ 1003f1dc     qgl_win.obj
 0002:000021ec       ??_C@_0N@IPCH@glTranslated?$AA@ 1003f1ec     qgl_win.obj
 0002:000021fc       ??_C@_0BA@KFAN@glTexSubImage2D?$AA@ 1003f1fc     qgl_win.obj
 0002:0000220c       ??_C@_0BA@JOPC@glTexSubImage1D?$AA@ 1003f20c     qgl_win.obj
 0002:0000221c       ??_C@_0BB@NAI@glTexParameteriv?$AA@ 1003f21c     qgl_win.obj
 0002:00002230       ??_C@_0BA@CKGN@glTexParameteri?$AA@ 1003f230     qgl_win.obj
 0002:00002240       ??_C@_0BB@NJAJ@glTexParameterfv?$AA@ 1003f240     qgl_win.obj
 0002:00002254       ??_C@_0BA@CLDA@glTexParameterf?$AA@ 1003f254     qgl_win.obj
 0002:00002264       ??_C@_0N@IAMC@glTexImage2D?$AA@ 1003f264     qgl_win.obj
 0002:00002274       ??_C@_0N@LLDN@glTexImage1D?$AA@ 1003f274     qgl_win.obj
 0002:00002284       ??_C@_0L@OHPJ@glTexGeniv?$AA@ 1003f284     qgl_win.obj
 0002:00002290       ??_C@_09NLNM@glTexGeni?$AA@ 1003f290     qgl_win.obj
 0002:0000229c       ??_C@_0L@DDPI@glTexGenfv?$AA@ 1003f29c     qgl_win.obj
 0002:000022a8       ??_C@_09NKIB@glTexGenf?$AA@ 1003f2a8     qgl_win.obj
 0002:000022b4       ??_C@_0L@BOKN@glTexGendv?$AA@ 1003f2b4     qgl_win.obj
 0002:000022c0       ??_C@_09IPKP@glTexGend?$AA@ 1003f2c0     qgl_win.obj
 0002:000022cc       ??_C@_0L@FDAK@glTexEnviv?$AA@ 1003f2cc     qgl_win.obj
 0002:000022d8       ??_C@_09CIAL@glTexEnvi?$AA@ 1003f2d8     qgl_win.obj
 0002:000022e4       ??_C@_0L@IHAL@glTexEnvfv?$AA@ 1003f2e4     qgl_win.obj
 0002:000022f0       ??_C@_09CJFG@glTexEnvf?$AA@ 1003f2f0     qgl_win.obj
 0002:000022fc       ??_C@_0BC@EKAK@glTexCoordPointer?$AA@ 1003f2fc     qgl_win.obj
 0002:00002310       ??_C@_0O@CLAP@glTexCoord4sv?$AA@ 1003f310     qgl_win.obj
 0002:00002320       ??_C@_0N@CNFG@glTexCoord4s?$AA@ 1003f320     qgl_win.obj
 0002:00002330       ??_C@_0O@NJKH@glTexCoord4iv?$AA@ 1003f330     qgl_win.obj
 0002:00002340       ??_C@_0N@IFLA@glTexCoord4i?$AA@ 1003f340     qgl_win.obj
 0002:00002350       ??_C@_0O@NKG@glTexCoord4fv?$AA@ 1003f350     qgl_win.obj
 0002:00002360       ??_C@_0N@IEON@glTexCoord4f?$AA@ 1003f360     qgl_win.obj
 0002:00002370       ??_C@_0O@CAPD@glTexCoord4dv?$AA@ 1003f370     qgl_win.obj
 0002:00002380       ??_C@_0N@NBMD@glTexCoord4d?$AA@ 1003f380     qgl_win.obj
 0002:00002390       ??_C@_0O@JFGO@glTexCoord3sv?$AA@ 1003f390     qgl_win.obj
 0002:000023a0       ??_C@_0N@EMAD@glTexCoord3s?$AA@ 1003f3a0     qgl_win.obj
 0002:000023b0       ??_C@_0O@GHMG@glTexCoord3iv?$AA@ 1003f3b0     qgl_win.obj
 0002:000023c0       ??_C@_0N@OEOF@glTexCoord3i?$AA@ 1003f3c0     qgl_win.obj
 0002:000023d0       ??_C@_0O@LDMH@glTexCoord3fv?$AA@ 1003f3d0     qgl_win.obj
 0002:000023e0       ??_C@_0N@OFLI@glTexCoord3f?$AA@ 1003f3e0     qgl_win.obj
 0002:000023f0       ??_C@_0O@JOJC@glTexCoord3dv?$AA@ 1003f3f0     qgl_win.obj
 0002:00002400       ??_C@_0N@LAJG@glTexCoord3d?$AA@ 1003f400     qgl_win.obj
 0002:00002410       ??_C@_0O@MHHI@glTexCoord2sv?$AA@ 1003f410     qgl_win.obj
 0002:00002420       ??_C@_0N@FKKJ@glTexCoord2s?$AA@ 1003f420     qgl_win.obj
 0002:00002430       ??_C@_0O@DFNA@glTexCoord2iv?$AA@ 1003f430     qgl_win.obj
 0002:00002440       ??_C@_0N@PCEP@glTexCoord2i?$AA@ 1003f440     qgl_win.obj
 0002:00002450       ??_C@_0O@OBNB@glTexCoord2fv?$AA@ 1003f450     qgl_win.obj
 0002:00002460       ??_C@_0N@PDBC@glTexCoord2f?$AA@ 1003f460     qgl_win.obj
 0002:00002470       ??_C@_0O@MMIE@glTexCoord2dv?$AA@ 1003f470     qgl_win.obj
 0002:00002480       ??_C@_0N@KGDM@glTexCoord2d?$AA@ 1003f480     qgl_win.obj
 0002:00002490       ??_C@_0O@DBED@glTexCoord1sv?$AA@ 1003f490     qgl_win.obj
 0002:000024a0       ??_C@_0N@GBFG@glTexCoord1s?$AA@ 1003f4a0     qgl_win.obj
 0002:000024b0       ??_C@_0O@MDOL@glTexCoord1iv?$AA@ 1003f4b0     qgl_win.obj
 0002:000024c0       ??_C@_0N@MJLA@glTexCoord1i?$AA@ 1003f4c0     qgl_win.obj
 0002:000024d0       ??_C@_0O@BHOK@glTexCoord1fv?$AA@ 1003f4d0     qgl_win.obj
 0002:000024e0       ??_C@_0N@MION@glTexCoord1f?$AA@ 1003f4e0     qgl_win.obj
 0002:000024f0       ??_C@_0O@DKLP@glTexCoord1dv?$AA@ 1003f4f0     qgl_win.obj
 0002:00002500       ??_C@_0N@JNMD@glTexCoord1d?$AA@ 1003f500     qgl_win.obj
 0002:00002510       ??_C@_0M@LODB@glStencilOp?$AA@ 1003f510     qgl_win.obj
 0002:0000251c       ??_C@_0O@IKEL@glStencilMask?$AA@ 1003f51c     qgl_win.obj
 0002:0000252c       ??_C@_0O@GBFI@glStencilFunc?$AA@ 1003f52c     qgl_win.obj
 0002:0000253c       ??_C@_0N@LIFO@glShadeModel?$AA@ 1003f53c     qgl_win.obj
 0002:0000254c       ??_C@_0P@JCNJ@glSelectBuffer?$AA@ 1003f54c     qgl_win.obj
 0002:0000255c       ??_C@_09HOGJ@glScissor?$AA@ 1003f55c     qgl_win.obj
 0002:00002568       ??_C@_08NBED@glScalef?$AA@ 1003f568     qgl_win.obj
 0002:00002574       ??_C@_08IEGN@glScaled?$AA@ 1003f574     qgl_win.obj
 0002:00002580       ??_C@_09LCHL@glRotatef?$AA@ 1003f580     qgl_win.obj
 0002:0000258c       ??_C@_09OHFF@glRotated?$AA@ 1003f58c     qgl_win.obj
 0002:00002598       ??_C@_0N@FOMK@glRenderMode?$AA@ 1003f598     qgl_win.obj
 0002:000025a8       ??_C@_08MLGB@glRectsv?$AA@ 1003f5a8     qgl_win.obj
 0002:000025b4       ??_C@_07EDHH@glRects?$AA@  1003f5b4     qgl_win.obj
 0002:000025bc       ??_C@_08DJMJ@glRectiv?$AA@ 1003f5bc     qgl_win.obj
 0002:000025c8       ??_C@_07OLJB@glRecti?$AA@  1003f5c8     qgl_win.obj
 0002:000025d0       ??_C@_08ONMI@glRectfv?$AA@ 1003f5d0     qgl_win.obj
 0002:000025dc       ??_C@_07OKMM@glRectf?$AA@  1003f5dc     qgl_win.obj
 0002:000025e4       ??_C@_08MAJN@glRectdv?$AA@ 1003f5e4     qgl_win.obj
 0002:000025f0       ??_C@_07LPOC@glRectd?$AA@  1003f5f0     qgl_win.obj
 0002:000025f8       ??_C@_0N@LBPG@glReadPixels?$AA@ 1003f5f8     qgl_win.obj
 0002:00002608       ??_C@_0N@BMFB@glReadBuffer?$AA@ 1003f608     qgl_win.obj
 0002:00002618       ??_C@_0P@KJIO@glRasterPos4sv?$AA@ 1003f618     qgl_win.obj
 0002:00002628       ??_C@_0O@KMJO@glRasterPos4s?$AA@ 1003f628     qgl_win.obj
 0002:00002638       ??_C@_0P@FLCG@glRasterPos4iv?$AA@ 1003f638     qgl_win.obj
 0002:00002648       ??_C@_0O@EHI@glRasterPos4i?$AA@ 1003f648     qgl_win.obj
 0002:00002658       ??_C@_0P@IPCH@glRasterPos4fv?$AA@ 1003f658     qgl_win.obj
 0002:00002668       ??_C@_0O@FCF@glRasterPos4f?$AA@ 1003f668     qgl_win.obj
 0002:00002678       ??_C@_0P@KCHC@glRasterPos4dv?$AA@ 1003f678     qgl_win.obj
 0002:00002688       ??_C@_0O@FAAL@glRasterPos4d?$AA@ 1003f688     qgl_win.obj
 0002:00002698       ??_C@_0P@BHOP@glRasterPos3sv?$AA@ 1003f698     qgl_win.obj
 0002:000026a8       ??_C@_0O@MNML@glRasterPos3s?$AA@ 1003f6a8     qgl_win.obj
 0002:000026b8       ??_C@_0P@OFEH@glRasterPos3iv?$AA@ 1003f6b8     qgl_win.obj
 0002:000026c8       ??_C@_0O@GFCN@glRasterPos3i?$AA@ 1003f6c8     qgl_win.obj
 0002:000026d8       ??_C@_0P@DBEG@glRasterPos3fv?$AA@ 1003f6d8     qgl_win.obj
 0002:000026e8       ??_C@_0O@GEHA@glRasterPos3f?$AA@ 1003f6e8     qgl_win.obj
 0002:000026f8       ??_C@_0P@BMBD@glRasterPos3dv?$AA@ 1003f6f8     qgl_win.obj
 0002:00002708       ??_C@_0O@DBFO@glRasterPos3d?$AA@ 1003f708     qgl_win.obj
 0002:00002718       ??_C@_0P@EFPJ@glRasterPos2sv?$AA@ 1003f718     qgl_win.obj
 0002:00002728       ??_C@_0O@NLGB@glRasterPos2s?$AA@ 1003f728     qgl_win.obj
 0002:00002738       ??_C@_0P@LHFB@glRasterPos2iv?$AA@ 1003f738     qgl_win.obj
 0002:00002748       ??_C@_0O@HDIH@glRasterPos2i?$AA@ 1003f748     qgl_win.obj
 0002:00002758       ??_C@_0P@GDFA@glRasterPos2fv?$AA@ 1003f758     qgl_win.obj
 0002:00002768       ??_C@_0O@HCNK@glRasterPos2f?$AA@ 1003f768     qgl_win.obj
 0002:00002778       ??_C@_0P@EOAF@glRasterPos2dv?$AA@ 1003f778     qgl_win.obj
 0002:00002788       ??_C@_0O@CHPE@glRasterPos2d?$AA@ 1003f788     qgl_win.obj
 0002:00002798       ??_C@_0L@JFBB@glPushName?$AA@ 1003f798     qgl_win.obj
 0002:000027a4       ??_C@_0N@KEGE@glPushMatrix?$AA@ 1003f7a4     qgl_win.obj
 0002:000027b4       ??_C@_0BD@KBII@glPushClientAttrib?$AA@ 1003f7b4     qgl_win.obj
 0002:000027c8       ??_C@_0N@NFOG@glPushAttrib?$AA@ 1003f7c8     qgl_win.obj
 0002:000027d8       ??_C@_0BF@HGIP@glPrioritizeTextures?$AA@ 1003f7d8     qgl_win.obj
 0002:000027f0       ??_C@_09GEGC@glPopName?$AA@ 1003f7f0     qgl_win.obj
 0002:000027fc       ??_C@_0M@LACG@glPopMatrix?$AA@ 1003f7fc     qgl_win.obj
 0002:00002808       ??_C@_0BC@JMIH@glPopClientAttrib?$AA@ 1003f808     qgl_win.obj
 0002:0000281c       ??_C@_0M@MBKE@glPopAttrib?$AA@ 1003f81c     qgl_win.obj
 0002:00002828       ??_C@_0BB@FIOF@glPolygonStipple?$AA@ 1003f828     qgl_win.obj
 0002:0000283c       ??_C@_0BA@BALB@glPolygonOffset?$AA@ 1003f83c     qgl_win.obj
 0002:0000284c       ??_C@_0O@FGKK@glPolygonMode?$AA@ 1003f84c     qgl_win.obj
 0002:0000285c       ??_C@_0M@JAAI@glPointSize?$AA@ 1003f85c     qgl_win.obj
 0002:00002868       ??_C@_0M@GGBK@glPixelZoom?$AA@ 1003f868     qgl_win.obj
 0002:00002874       ??_C@_0BB@KKOF@glPixelTransferi?$AA@ 1003f874     qgl_win.obj
 0002:00002888       ??_C@_0BB@KLLI@glPixelTransferf?$AA@ 1003f888     qgl_win.obj
 0002:0000289c       ??_C@_0O@EKDI@glPixelStorei?$AA@ 1003f89c     qgl_win.obj
 0002:000028ac       ??_C@_0O@ELGF@glPixelStoref?$AA@ 1003f8ac     qgl_win.obj
 0002:000028bc       ??_C@_0O@GMAL@glPixelMapusv?$AA@ 1003f8bc     qgl_win.obj
 0002:000028cc       ??_C@_0O@JOKD@glPixelMapuiv?$AA@ 1003f8cc     qgl_win.obj
 0002:000028dc       ??_C@_0N@HIIC@glPixelMapfv?$AA@ 1003f8dc     qgl_win.obj
 0002:000028ec       ??_C@_0O@BJGF@glPassThrough?$AA@ 1003f8ec     qgl_win.obj
 0002:000028fc       ??_C@_07ICOP@glOrtho?$AA@  1003f8fc     qgl_win.obj
 0002:00002904       ??_C@_0BA@GJEJ@glNormalPointer?$AA@ 1003f904     qgl_win.obj
 0002:00002914       ??_C@_0M@BDBF@glNormal3sv?$AA@ 1003f914     qgl_win.obj
 0002:00002920       ??_C@_0L@DHJH@glNormal3s?$AA@ 1003f920     qgl_win.obj
 0002:0000292c       ??_C@_0M@OBLN@glNormal3iv?$AA@ 1003f92c     qgl_win.obj
 0002:00002938       ??_C@_0L@JPHB@glNormal3i?$AA@ 1003f938     qgl_win.obj
 0002:00002944       ??_C@_0M@DFLM@glNormal3fv?$AA@ 1003f944     qgl_win.obj
 0002:00002950       ??_C@_0L@JOCM@glNormal3f?$AA@ 1003f950     qgl_win.obj
 0002:0000295c       ??_C@_0M@BIOJ@glNormal3dv?$AA@ 1003f95c     qgl_win.obj
 0002:00002968       ??_C@_0L@MLAC@glNormal3d?$AA@ 1003f968     qgl_win.obj
 0002:00002974       ??_C@_0M@GPBG@glNormal3bv?$AA@ 1003f974     qgl_win.obj
 0002:00002980       ??_C@_0L@DEHA@glNormal3b?$AA@ 1003f980     qgl_win.obj
 0002:0000298c       ??_C@_09IJKH@glNewList?$AA@ 1003f98c     qgl_win.obj
 0002:00002998       ??_C@_0O@IPNI@glMultMatrixf?$AA@ 1003f998     qgl_win.obj
 0002:000029a8       ??_C@_0O@NKPG@glMultMatrixd?$AA@ 1003f9a8     qgl_win.obj
 0002:000029b8       ??_C@_0N@JNJF@glMatrixMode?$AA@ 1003f9b8     qgl_win.obj
 0002:000029c8       ??_C@_0N@BKII@glMaterialiv?$AA@ 1003f9c8     qgl_win.obj
 0002:000029d8       ??_C@_0M@KKGK@glMateriali?$AA@ 1003f9d8     qgl_win.obj
 0002:000029e4       ??_C@_0N@MOIJ@glMaterialfv?$AA@ 1003f9e4     qgl_win.obj
 0002:000029f4       ??_C@_0M@KLDH@glMaterialf?$AA@ 1003f9f4     qgl_win.obj
 0002:00002a00       ??_C@_0M@JGMO@glMapGrid2f?$AA@ 1003fa00     qgl_win.obj
 0002:00002a0c       ??_C@_0M@MDOA@glMapGrid2d?$AA@ 1003fa0c     qgl_win.obj
 0002:00002a18       ??_C@_0M@KNDB@glMapGrid1f?$AA@ 1003fa18     qgl_win.obj
 0002:00002a24       ??_C@_0M@PIBP@glMapGrid1d?$AA@ 1003fa24     qgl_win.obj
 0002:00002a30       ??_C@_07BGAK@glMap2f?$AA@  1003fa30     qgl_win.obj
 0002:00002a38       ??_C@_07EDCE@glMap2d?$AA@  1003fa38     qgl_win.obj
 0002:00002a40       ??_C@_07CNPF@glMap1f?$AA@  1003fa40     qgl_win.obj
 0002:00002a48       ??_C@_07HINL@glMap1d?$AA@  1003fa48     qgl_win.obj
 0002:00002a50       ??_C@_09IEAB@glLogicOp?$AA@ 1003fa50     qgl_win.obj
 0002:00002a5c       ??_C@_0L@EGBH@glLoadName?$AA@ 1003fa5c     qgl_win.obj
 0002:00002a68       ??_C@_0O@KDCF@glLoadMatrixf?$AA@ 1003fa68     qgl_win.obj
 0002:00002a78       ??_C@_0O@PGAL@glLoadMatrixd?$AA@ 1003fa78     qgl_win.obj
 0002:00002a88       ??_C@_0P@MLMG@glLoadIdentity?$AA@ 1003fa88     qgl_win.obj
 0002:00002a98       ??_C@_0L@MFKH@glListBase?$AA@ 1003fa98     qgl_win.obj
 0002:00002aa4       ??_C@_0M@KCLG@glLineWidth?$AA@ 1003faa4     qgl_win.obj
 0002:00002ab0       ??_C@_0O@DAIP@glLineStipple?$AA@ 1003fab0     qgl_win.obj
 0002:00002ac0       ??_C@_09BOEH@glLightiv?$AA@ 1003fac0     qgl_win.obj
 0002:00002acc       ??_C@_08GFKI@glLighti?$AA@ 1003facc     qgl_win.obj
 0002:00002ad8       ??_C@_09MKEG@glLightfv?$AA@ 1003fad8     qgl_win.obj
 0002:00002ae4       ??_C@_08GEPF@glLightf?$AA@ 1003fae4     qgl_win.obj
 0002:00002af0       ??_C@_0P@JGOD@glLightModeliv?$AA@ 1003faf0     qgl_win.obj
 0002:00002b00       ??_C@_0O@MBOJ@glLightModeli?$AA@ 1003fb00     qgl_win.obj
 0002:00002b10       ??_C@_0P@ECOC@glLightModelfv?$AA@ 1003fb10     qgl_win.obj
 0002:00002b20       ??_C@_0O@MALE@glLightModelf?$AA@ 1003fb20     qgl_win.obj
 0002:00002b30       ??_C@_0M@NCFH@glIsTexture?$AA@ 1003fb30     qgl_win.obj
 0002:00002b3c       ??_C@_08MENJ@glIsList?$AA@ 1003fb3c     qgl_win.obj
 0002:00002b48       ??_C@_0M@GNEM@glIsEnabled?$AA@ 1003fb48     qgl_win.obj
 0002:00002b54       ??_C@_0BE@FKIG@glInterleavedArrays?$AA@ 1003fb54     qgl_win.obj
 0002:00002b68       ??_C@_0M@KCEG@glInitNames?$AA@ 1003fb68     qgl_win.obj
 0002:00002b74       ??_C@_0L@KIGE@glIndexubv?$AA@ 1003fb74     qgl_win.obj
 0002:00002b80       ??_C@_09EGJF@glIndexub?$AA@ 1003fb80     qgl_win.obj
 0002:00002b8c       ??_C@_09DCEG@glIndexsv?$AA@ 1003fb8c     qgl_win.obj
 0002:00002b98       ??_C@_08GEGF@glIndexs?$AA@ 1003fb98     qgl_win.obj
 0002:00002ba4       ??_C@_09MAOO@glIndexiv?$AA@ 1003fba4     qgl_win.obj
 0002:00002bb0       ??_C@_08MMID@glIndexi?$AA@ 1003fbb0     qgl_win.obj
 0002:00002bbc       ??_C@_09BEOP@glIndexfv?$AA@ 1003fbbc     qgl_win.obj
 0002:00002bc8       ??_C@_08MNNO@glIndexf?$AA@ 1003fbc8     qgl_win.obj
 0002:00002bd4       ??_C@_09DJLK@glIndexdv?$AA@ 1003fbd4     qgl_win.obj
 0002:00002be0       ??_C@_08JIPA@glIndexd?$AA@ 1003fbe0     qgl_win.obj
 0002:00002bec       ??_C@_0P@GIBI@glIndexPointer?$AA@ 1003fbec     qgl_win.obj
 0002:00002bfc       ??_C@_0M@GGEB@glIndexMask?$AA@ 1003fbfc     qgl_win.obj
 0002:00002c08       ??_C@_06IKLF@glHint?$AA@   1003fc08     qgl_win.obj
 0002:00002c10       ??_C@_0BE@DDEI@glGetTexParameteriv?$AA@ 1003fc10     qgl_win.obj
 0002:00002c24       ??_C@_0BE@OHEJ@glGetTexParameterfv?$AA@ 1003fc24     qgl_win.obj
 0002:00002c38       ??_C@_0BG@DEEK@glGetLevelParameteriv?$AA@ 1003fc38     qgl_win.obj
 0002:00002c50       ??_C@_0BG@OAEL@glGetLevelParameterfv?$AA@ 1003fc50     qgl_win.obj
 0002:00002c68       ??_C@_0O@HGPI@glGetTexImage?$AA@ 1003fc68     qgl_win.obj
 0002:00002c78       ??_C@_0O@CHCL@glGetTexGeniv?$AA@ 1003fc78     qgl_win.obj
 0002:00002c88       ??_C@_0O@PDCK@glGetTexGenfv?$AA@ 1003fc88     qgl_win.obj
 0002:00002c98       ??_C@_0O@NOHP@glGetTexGendv?$AA@ 1003fc98     qgl_win.obj
 0002:00002ca8       ??_C@_0O@JDNI@glGetTexEnviv?$AA@ 1003fca8     qgl_win.obj
 0002:00002cb8       ??_C@_0O@EHNJ@glGetTexEnvfv?$AA@ 1003fcb8     qgl_win.obj
 0002:00002cc8       ??_C@_0M@EJHF@glGetString?$AA@ 1003fcc8     qgl_win.obj
 0002:00002cd4       ??_C@_0BE@GGKF@glGetPolygonStipple?$AA@ 1003fcd4     qgl_win.obj
 0002:00002ce8       ??_C@_0O@LGOP@glGetPointerv?$AA@ 1003fce8     qgl_win.obj
 0002:00002cf8       ??_C@_0BB@EEON@glGetPixelMapusv?$AA@ 1003fcf8     qgl_win.obj
 0002:00002d0c       ??_C@_0BB@LGEF@glGetPixelMapuiv?$AA@ 1003fd0c     qgl_win.obj
 0002:00002d20       ??_C@_0BA@JOGJ@glGetPixelMapfv?$AA@ 1003fd20     qgl_win.obj
 0002:00002d30       ??_C@_0BA@PMGD@glGetMaterialiv?$AA@ 1003fd30     qgl_win.obj
 0002:00002d40       ??_C@_0BA@CIGC@glGetMaterialfv?$AA@ 1003fd40     qgl_win.obj
 0002:00002d50       ??_C@_0L@MPGC@glGetMapiv?$AA@ 1003fd50     qgl_win.obj
 0002:00002d5c       ??_C@_0L@BLGD@glGetMapfv?$AA@ 1003fd5c     qgl_win.obj
 0002:00002d68       ??_C@_0L@DGDG@glGetMapdv?$AA@ 1003fd68     qgl_win.obj
 0002:00002d74       ??_C@_0N@MMLJ@glGetLightiv?$AA@ 1003fd74     qgl_win.obj
 0002:00002d84       ??_C@_0N@BILI@glGetLightfv?$AA@ 1003fd84     qgl_win.obj
 0002:00002d94       ??_C@_0O@PMHI@glGetIntegerv?$AA@ 1003fd94     qgl_win.obj
 0002:00002da4       ??_C@_0M@HNHJ@glGetFloatv?$AA@ 1003fda4     qgl_win.obj
 0002:00002db0       ??_C@_0L@INBB@glGetError?$AA@ 1003fdb0     qgl_win.obj
 0002:00002dbc       ??_C@_0N@LJNO@glGetDoublev?$AA@ 1003fdbc     qgl_win.obj
 0002:00002dcc       ??_C@_0P@EAOG@glGetClipPlane?$AA@ 1003fdcc     qgl_win.obj
 0002:00002ddc       ??_C@_0O@CEKP@glGetBooleanv?$AA@ 1003fddc     qgl_win.obj
 0002:00002dec       ??_C@_0O@DAHJ@glGenTextures?$AA@ 1003fdec     qgl_win.obj
 0002:00002dfc       ??_C@_0L@PMJJ@glGenLists?$AA@ 1003fdfc     qgl_win.obj
 0002:00002e08       ??_C@_09KLFM@glFrustum?$AA@ 1003fe08     qgl_win.obj
 0002:00002e14       ??_C@_0M@MJJH@glFrontFace?$AA@ 1003fe14     qgl_win.obj
 0002:00002e20       ??_C@_07HKOP@glFogiv?$AA@  1003fe20     qgl_win.obj
 0002:00002e28       ??_C@_06MNED@glFogi?$AA@   1003fe28     qgl_win.obj
 0002:00002e30       ??_C@_07KOOO@glFogfv?$AA@  1003fe30     qgl_win.obj
 0002:00002e38       ??_C@_06MMBO@glFogf?$AA@   1003fe38     qgl_win.obj
 0002:00002e40       ??_C@_07GAEM@glFlush?$AA@  1003fe40     qgl_win.obj
 0002:00002e48       ??_C@_08HFPP@glFinish?$AA@ 1003fe48     qgl_win.obj
 0002:00002e54       ??_C@_0BB@EKCC@glFeedbackBuffer?$AA@ 1003fe54     qgl_win.obj
 0002:00002e68       ??_C@_0N@PCOC@glEvalPoint2?$AA@ 1003fe68     qgl_win.obj
 0002:00002e78       ??_C@_0N@NFL@glEvalPoint1?$AA@ 1003fe78     qgl_win.obj
 0002:00002e88       ??_C@_0M@CHJI@glEvalMesh2?$AA@ 1003fe88     qgl_win.obj
 0002:00002e94       ??_C@_0M@NICB@glEvalMesh1?$AA@ 1003fe94     qgl_win.obj
 0002:00002ea0       ??_C@_0P@MPGL@glEvalCoord2fv?$AA@ 1003fea0     qgl_win.obj
 0002:00002eb0       ??_C@_0O@EJAI@glEvalCoord2f?$AA@ 1003feb0     qgl_win.obj
 0002:00002ec0       ??_C@_0P@OCDO@glEvalCoord2dv?$AA@ 1003fec0     qgl_win.obj
 0002:00002ed0       ??_C@_0O@BMCG@glEvalCoord2d?$AA@ 1003fed0     qgl_win.obj
 0002:00002ee0       ??_C@_0P@DJFA@glEvalCoord1fv?$AA@ 1003fee0     qgl_win.obj
 0002:00002ef0       ??_C@_0O@HCPH@glEvalCoord1f?$AA@ 1003fef0     qgl_win.obj
 0002:00002f00       ??_C@_0P@BEAF@glEvalCoord1dv?$AA@ 1003ff00     qgl_win.obj
 0002:00002f10       ??_C@_0O@CHNJ@glEvalCoord1d?$AA@ 1003ff10     qgl_win.obj
 0002:00002f20       ??_C@_09HPGP@glEndList?$AA@ 1003ff20     qgl_win.obj
 0002:00002f2c       ??_C@_05FDNN@glEnd?$AA@    1003ff2c     qgl_win.obj
 0002:00002f34       ??_C@_0BE@JJFB@glEnableClientState?$AA@ 1003ff34     qgl_win.obj
 0002:00002f48       ??_C@_08PHJO@glEnable?$AA@ 1003ff48     qgl_win.obj
 0002:00002f54       ??_C@_0M@FKKN@glEdgeFlagv?$AA@ 1003ff54     qgl_win.obj
 0002:00002f60       ??_C@_0BC@DNAG@glEdgeFlagPointer?$AA@ 1003ff60     qgl_win.obj
 0002:00002f74       ??_C@_0L@IPAC@glEdgeFlag?$AA@ 1003ff74     qgl_win.obj
 0002:00002f80       ??_C@_0N@JMMB@glDrawPixels?$AA@ 1003ff80     qgl_win.obj
 0002:00002f90       ??_C@_0P@EAHC@glDrawElements?$AA@ 1003ff90     qgl_win.obj
 0002:00002fa0       ??_C@_0N@DBGG@glDrawBuffer?$AA@ 1003ffa0     qgl_win.obj
 0002:00002fb0       ??_C@_0N@LOLE@glDrawArrays?$AA@ 1003ffb0     qgl_win.obj
 0002:00002fc0       ??_C@_0BF@HABO@glDisableClientState?$AA@ 1003ffc0     qgl_win.obj
 0002:00002fd8       ??_C@_09DADM@glDisable?$AA@ 1003ffd8     qgl_win.obj
 0002:00002fe4       ??_C@_0N@OLL@glDepthRange?$AA@ 1003ffe4     qgl_win.obj
 0002:00002ff4       ??_C@_0M@LIJE@glDepthMask?$AA@ 1003fff4     qgl_win.obj
 0002:00003000       ??_C@_0M@FDIH@glDepthFunc?$AA@ 10040000     qgl_win.obj
 0002:0000300c       ??_C@_0BB@OKAI@glDeleteTextures?$AA@ 1004000c     qgl_win.obj
 0002:00003020       ??_C@_0O@HELJ@glDeleteLists?$AA@ 10040020     qgl_win.obj
 0002:00003030       ??_C@_0L@LIEG@glCullFace?$AA@ 10040030     qgl_win.obj
 0002:0000303c       ??_C@_0BE@NHIK@glCopyTexSubImage2D?$AA@ 1004003c     qgl_win.obj
 0002:00003050       ??_C@_0BE@OMHF@glCopyTexSubImage1D?$AA@ 10040050     qgl_win.obj
 0002:00003064       ??_C@_0BB@EGJO@glCopyTexImage2D?$AA@ 10040064     qgl_win.obj
 0002:00003078       ??_C@_0BB@HNGB@glCopyTexImage1D?$AA@ 10040078     qgl_win.obj
 0002:0000308c       ??_C@_0N@JHDC@glCopyPixels?$AA@ 1004008c     qgl_win.obj
 0002:0000309c       ??_C@_0P@PPM@glColorPointer?$AA@ 1004009c     qgl_win.obj
 0002:000030ac       ??_C@_0BA@IBCB@glColorMaterial?$AA@ 100400ac     qgl_win.obj
 0002:000030bc       ??_C@_0M@LDC@glColorMask?$AA@ 100400bc     qgl_win.obj
 0002:000030c8       ??_C@_0M@DLCF@glColor4usv?$AA@ 100400c8     qgl_win.obj
 0002:000030d4       ??_C@_0L@HAG@glColor4us?$AA@ 100400d4     qgl_win.obj
 0002:000030e0       ??_C@_0M@MJIN@glColor4uiv?$AA@ 100400e0     qgl_win.obj
 0002:000030ec       ??_C@_0L@KPOA@glColor4ui?$AA@ 100400ec     qgl_win.obj
 0002:000030f8       ??_C@_0M@EHCG@glColor4ubv?$AA@ 100400f8     qgl_win.obj
 0002:00003104       ??_C@_0L@EOB@glColor4ub?$AA@ 10040104     qgl_win.obj
 0002:00003110       ??_C@_0L@HADC@glColor4sv?$AA@ 10040110     qgl_win.obj
 0002:0000311c       ??_C@_09BANN@glColor4s?$AA@ 1004011c     qgl_win.obj
 0002:00003128       ??_C@_0L@ICJK@glColor4iv?$AA@ 10040128     qgl_win.obj
 0002:00003134       ??_C@_09LIDL@glColor4i?$AA@ 10040134     qgl_win.obj
 0002:00003140       ??_C@_0L@FGJL@glColor4fv?$AA@ 10040140     qgl_win.obj
 0002:0000314c       ??_C@_09LJGG@glColor4f?$AA@ 1004014c     qgl_win.obj
 0002:00003158       ??_C@_0L@HLMO@glColor4dv?$AA@ 10040158     qgl_win.obj
 0002:00003164       ??_C@_09OMEI@glColor4d?$AA@ 10040164     qgl_win.obj
 0002:00003170       ??_C@_0L@MDB@glColor4bv?$AA@ 10040170     qgl_win.obj
 0002:0000317c       ??_C@_09BDDK@glColor4b?$AA@ 1004017c     qgl_win.obj
 0002:00003188       ??_C@_0M@MBJL@glColor3usv?$AA@ 10040188     qgl_win.obj
 0002:00003194       ??_C@_0L@LJGH@glColor3us?$AA@ 10040194     qgl_win.obj
 0002:000031a0       ??_C@_0M@DDDD@glColor3uiv?$AA@ 100401a0     qgl_win.obj
 0002:000031ac       ??_C@_0L@BBIB@glColor3ui?$AA@ 100401ac     qgl_win.obj
 0002:000031b8       ??_C@_0M@LNJI@glColor3ubv?$AA@ 100401b8     qgl_win.obj
 0002:000031c4       ??_C@_0L@LKIA@glColor3ub?$AA@ 100401c4     qgl_win.obj
 0002:000031d0       ??_C@_0L@MOFD@glColor3sv?$AA@ 100401d0     qgl_win.obj
 0002:000031dc       ??_C@_09HBII@glColor3s?$AA@ 100401dc     qgl_win.obj
 0002:000031e8       ??_C@_0L@DMPL@glColor3iv?$AA@ 100401e8     qgl_win.obj
 0002:000031f4       ??_C@_09NJGO@glColor3i?$AA@ 100401f4     qgl_win.obj
 0002:00003200       ??_C@_0L@OIPK@glColor3fv?$AA@ 10040200     qgl_win.obj
 0002:0000320c       ??_C@_09NIDD@glColor3f?$AA@ 1004020c     qgl_win.obj
 0002:00003218       ??_C@_0L@MFKP@glColor3dv?$AA@ 10040218     qgl_win.obj
 0002:00003224       ??_C@_09INBN@glColor3d?$AA@ 10040224     qgl_win.obj
 0002:00003230       ??_C@_0L@LCFA@glColor3bv?$AA@ 10040230     qgl_win.obj
 0002:0000323c       ??_C@_09HCGP@glColor3b?$AA@ 1004023c     qgl_win.obj
 0002:00003248       ??_C@_0M@KLCG@glClipPlane?$AA@ 10040248     qgl_win.obj
 0002:00003254       ??_C@_0P@JHOA@glClearStencil?$AA@ 10040254     qgl_win.obj
 0002:00003264       ??_C@_0N@ONKK@glClearIndex?$AA@ 10040264     qgl_win.obj
 0002:00003274       ??_C@_0N@DFBF@glClearDepth?$AA@ 10040274     qgl_win.obj
 0002:00003284       ??_C@_0N@IALK@glClearColor?$AA@ 10040284     qgl_win.obj
 0002:00003294       ??_C@_0N@LHJ@glClearAccum?$AA@ 10040294     qgl_win.obj
 0002:000032a4       ??_C@_07IOIM@glClear?$AA@  100402a4     qgl_win.obj
 0002:000032ac       ??_C@_0M@KFJL@glCallLists?$AA@ 100402ac     qgl_win.obj
 0002:000032b8       ??_C@_0L@HCIF@glCallList?$AA@ 100402b8     qgl_win.obj
 0002:000032c4       ??_C@_0M@PHAI@glBlendFunc?$AA@ 100402c4     qgl_win.obj
 0002:000032d0       ??_C@_08OEAE@glBitmap?$AA@ 100402d0     qgl_win.obj
 0002:000032dc       ??_C@_0O@NAMD@glBindTexture?$AA@ 100402dc     qgl_win.obj
 0002:000032ec       ??_C@_07GHIG@glBegin?$AA@  100402ec     qgl_win.obj
 0002:000032f4       ??_C@_0P@ODMD@glArrayElement?$AA@ 100402f4     qgl_win.obj
 0002:00003304       ??_C@_0BG@CCBP@glAreTexturesResident?$AA@ 10040304     qgl_win.obj
 0002:0000331c       ??_C@_0M@JBDJ@glAlphaFunc?$AA@ 1004031c     qgl_win.obj
 0002:00003328       ??_C@_07GKLB@glAccum?$AA@  10040328     qgl_win.obj
 0002:00003330       ??_C@_03HHKO@?$CFs?6?$AA@  10040330     qgl_win.obj
 0002:00003334       ??_C@_02IAAH@wt?$AA@       10040334     qgl_win.obj
 0002:00003338       ??_C@_09EIMA@?$CFs?1gl?4log?$AA@ 10040338     qgl_win.obj
 0002:00003344       ??_C@_08LFPM@glAccum?6?$AA@ 10040344     qgl_win.obj
 0002:00003350       ??_C@_0BJ@JKEG@glAlphaFunc?$CI?50x?$CFx?0?5?$CFf?5?$CJ?6?$AA@ 10040350     qgl_win.obj
 0002:0000336c       ??_C@_0BH@GJLE@glAreTexturesResident?6?$AA@ 1004036c     qgl_win.obj
 0002:00003384       ??_C@_0BA@JBHF@glArrayElement?6?$AA@ 10040384     qgl_win.obj
 0002:00003394       ??_C@_0BB@HKOH@glBegin?$CI?50x?$CFx?5?$CJ?6?$AA@ 10040394     qgl_win.obj
 0002:000033a8       ??_C@_0BL@MHED@glBindTexture?$CI?50x?$CFx?0?5?$CFu?5?$CJ?6?$AA@ 100403a8     qgl_win.obj
 0002:000033c4       ??_C@_09INHC@glBitmap?6?$AA@ 100403c4     qgl_win.obj
 0002:000033d0       ??_C@_0BL@KPCF@glBlendFunc?$CI?50x?$CFx?0?50x?$CFx?5?$CJ?6?$AA@ 100403d0     qgl_win.obj
 0002:000033ec       ??_C@_0BC@NOFA@glCallList?$CI?5?$CFu?5?$CJ?6?$AA@ 100403ec     qgl_win.obj
 0002:00003400       ??_C@_0N@BPDD@glCallLists?6?$AA@ 10040400     qgl_win.obj
 0002:00003410       ??_C@_08PHBI@glClear?6?$AA@ 10040410     qgl_win.obj
 0002:0000341c       ??_C@_0O@GFJN@glClearAccum?6?$AA@ 1004041c     qgl_win.obj
 0002:0000342c       ??_C@_0O@LEBG@glClearColor?6?$AA@ 1004042c     qgl_win.obj
 0002:0000343c       ??_C@_0O@ECKD@glClearDepth?6?$AA@ 1004043c     qgl_win.obj
 0002:0000344c       ??_C@_0O@BEHL@glClearIndex?6?$AA@ 1004044c     qgl_win.obj
 0002:0000345c       ??_C@_0BA@HGAB@glClearStencil?6?$AA@ 1004045c     qgl_win.obj
 0002:0000346c       ??_C@_0N@BPDN@glClipPlane?6?$AA@ 1004046c     qgl_win.obj
 0002:0000347c       ??_C@_0L@BCOE@glColor3b?6?$AA@ 1004047c     qgl_win.obj
 0002:00003488       ??_C@_0M@LCCE@glColor3bv?6?$AA@ 10040488     qgl_win.obj
 0002:00003494       ??_C@_0L@GFBL@glColor3d?6?$AA@ 10040494     qgl_win.obj
 0002:000034a0       ??_C@_0M@FOFD@glColor3dv?6?$AA@ 100404a0     qgl_win.obj
 0002:000034ac       ??_C@_0L@EIEO@glColor3f?6?$AA@ 100404ac     qgl_win.obj
 0002:000034b8       ??_C@_0M@PKHO@glColor3fv?6?$AA@ 100404b8     qgl_win.obj
 0002:000034c4       ??_C@_0L@JMEP@glColor3i?6?$AA@ 100404c4     qgl_win.obj
 0002:000034d0       ??_C@_0M@NEKK@glColor3iv?6?$AA@ 100404d0     qgl_win.obj
 0002:000034dc       ??_C@_0L@GOOH@glColor3s?6?$AA@ 100404dc     qgl_win.obj
 0002:000034e8       ??_C@_0M@MBFI@glColor3sv?6?$AA@ 100404e8     qgl_win.obj
 0002:000034f4       ??_C@_0M@BNCM@glColor3ub?6?$AA@ 100404f4     qgl_win.obj
 0002:00003500       ??_C@_0N@NJCL@glColor3ubv?6?$AA@ 10040500     qgl_win.obj
 0002:00003510       ??_C@_0M@JDIH@glColor3ui?6?$AA@ 10040510     qgl_win.obj
 0002:0000351c       ??_C@_0N@LPKF@glColor3uiv?6?$AA@ 1004051c     qgl_win.obj
 0002:0000352c       ??_C@_0M@GBCP@glColor3us?6?$AA@ 1004052c     qgl_win.obj
 0002:00003538       ??_C@_0N@KKFH@glColor3usv?6?$AA@ 10040538     qgl_win.obj
 0002:00003548       ??_C@_0L@KMIF@glColor4b?6?$AA@ 10040548     qgl_win.obj
 0002:00003554       ??_C@_0M@EIJK@glColor4bv?6?$AA@ 10040554     qgl_win.obj
 0002:00003560       ??_C@_0L@NLHK@glColor4d?6?$AA@ 10040560     qgl_win.obj
 0002:0000356c       ??_C@_0M@KEON@glColor4dv?6?$AA@ 1004056c     qgl_win.obj
 0002:00003578       ??_C@_0BK@KBOE@glColor4f?$CI?5?$CFf?0?$CFf?0?$CFf?0?$CFf?5?$CJ?6?$AA@ 10040578     qgl_win.obj
 0002:00003594       ??_C@_0BL@NMNF@glColor4fv?$CI?5?$CFf?0?$CFf?0?$CFf?0?$CFf?5?$CJ?6?$AA@ 10040594     qgl_win.obj
 0002:000035b0       ??_C@_0L@CCCO@glColor4i?6?$AA@ 100405b0     qgl_win.obj
 0002:000035bc       ??_C@_0M@COBE@glColor4iv?6?$AA@ 100405bc     qgl_win.obj
 0002:000035c8       ??_C@_0L@NAIG@glColor4s?6?$AA@ 100405c8     qgl_win.obj
 0002:000035d4       ??_C@_0M@DLOG@glColor4sv?6?$AA@ 100405d4     qgl_win.obj
 0002:000035e0       ??_C@_0N@LJNB@glColor4ubv?6?$AA@ 100405e0     qgl_win.obj
 0002:000035f0       ??_C@_0M@GJDJ@glColor4ui?6?$AA@ 100405f0     qgl_win.obj
 0002:000035fc       ??_C@_0N@NPFP@glColor4uiv?6?$AA@ 100405fc     qgl_win.obj
 0002:0000360c       ??_C@_0M@JLJB@glColor4us?6?$AA@ 1004060c     qgl_win.obj
 0002:00003618       ??_C@_0N@MKKN@glColor4usv?6?$AA@ 10040618     qgl_win.obj
 0002:00003628       ??_C@_0N@DHJN@glColorMask?6?$AA@ 10040628     qgl_win.obj
 0002:00003638       ??_C@_0BB@LKBH@glColorMaterial?6?$AA@ 10040638     qgl_win.obj
 0002:0000364c       ??_C@_0BA@DCJJ@glColorPointer?6?$AA@ 1004064c     qgl_win.obj
 0002:0000365c       ??_C@_0O@DIAB@glCopyPixels?6?$AA@ 1004065c     qgl_win.obj
 0002:0000366c       ??_C@_0BC@KDOL@glCopyTexImage1D?6?$AA@ 1004066c     qgl_win.obj
 0002:00003680       ??_C@_0BC@FFNA@glCopyTexImage2D?6?$AA@ 10040680     qgl_win.obj
 0002:00003694       ??_C@_0BF@GHHK@glCopyTexSubImage1D?6?$AA@ 10040694     qgl_win.obj
 0002:000036ac       ??_C@_0BF@JBEB@glCopyTexSubImage2D?6?$AA@ 100406ac     qgl_win.obj
 0002:000036c4       ??_C@_0M@JBCO@glCullFace?6?$AA@ 100406c4     qgl_win.obj
 0002:000036d0       ??_C@_0P@NEOC@glDeleteLists?6?$AA@ 100406d0     qgl_win.obj
 0002:000036e0       ??_C@_0BC@COHM@glDeleteTextures?6?$AA@ 100406e0     qgl_win.obj
 0002:000036f4       ??_C@_0N@OAMF@glDepthFunc?6?$AA@ 100406f4     qgl_win.obj
 0002:00003704       ??_C@_0N@NPCO@glDepthMask?6?$AA@ 10040704     qgl_win.obj
 0002:00003714       ??_C@_0O@MKJI@glDepthRange?6?$AA@ 10040714     qgl_win.obj
 0002:00003724       ??_C@_0BD@CBCN@glDisable?$CI?50x?$CFx?5?$CJ?6?$AA@ 10040724     qgl_win.obj
 0002:00003738       ??_C@_0BG@PGOG@glDisableClientState?6?$AA@ 10040738     qgl_win.obj
 0002:00003750       ??_C@_0O@OJCI@glDrawArrays?6?$AA@ 10040750     qgl_win.obj
 0002:00003760       ??_C@_0O@OFKH@glDrawBuffer?6?$AA@ 10040760     qgl_win.obj
 0002:00003770       ??_C@_0BA@HDNG@glDrawElements?6?$AA@ 10040770     qgl_win.obj
 0002:00003780       ??_C@_0O@IIAK@glDrawPixels?6?$AA@ 10040780     qgl_win.obj
 0002:00003790       ??_C@_0M@PKBJ@glEdgeFlag?6?$AA@ 10040790     qgl_win.obj
 0002:0000379c       ??_C@_0BD@NCKL@glEdgeFlagPointer?6?$AA@ 1004079c     qgl_win.obj
 0002:000037b0       ??_C@_0N@BFMM@glEdgeFlagv?6?$AA@ 100407b0     qgl_win.obj
 0002:000037c0       ??_C@_0BC@GNEA@glEnable?$CI?50x?$CFx?5?$CJ?6?$AA@ 100407c0     qgl_win.obj
 0002:000037d4       ??_C@_0BF@HHAP@glEnableClientState?6?$AA@ 100407d4     qgl_win.obj
 0002:000037ec       ??_C@_06MDMF@glEnd?6?$AA@  100407ec     qgl_win.obj
 0002:000037f4       ??_C@_0L@ENOJ@glEndList?6?$AA@ 100407f4     qgl_win.obj
 0002:00003800       ??_C@_0P@LELB@glEvalCoord1d?6?$AA@ 10040800     qgl_win.obj
 0002:00003810       ??_C@_0BA@PIIC@glEvalCoord1dv?6?$AA@ 10040810     qgl_win.obj
 0002:00003820       ??_C@_0P@JJOE@glEvalCoord1f?6?$AA@ 10040820     qgl_win.obj
 0002:00003830       ??_C@_0BA@FMKP@glEvalCoord1fv?6?$AA@ 10040830     qgl_win.obj
 0002:00003840       ??_C@_0P@ECIK@glEvalCoord2d?6?$AA@ 10040840     qgl_win.obj
 0002:00003850       ??_C@_0BA@JHHE@glEvalCoord2dv?6?$AA@ 10040850     qgl_win.obj
 0002:00003860       ??_C@_0P@GPNP@glEvalCoord2f?6?$AA@ 10040860     qgl_win.obj
 0002:00003870       ??_C@_0BA@DDFJ@glEvalCoord2fv?6?$AA@ 10040870     qgl_win.obj
 0002:00003880       ??_C@_0N@BHEO@glEvalMesh1?6?$AA@ 10040880     qgl_win.obj
 0002:00003890       ??_C@_0N@CMLB@glEvalMesh2?6?$AA@ 10040890     qgl_win.obj
 0002:000038a0       ??_C@_0O@OKJL@glEvalPoint1?6?$AA@ 100408a0     qgl_win.obj
 0002:000038b0       ??_C@_0O@NBGE@glEvalPoint2?6?$AA@ 100408b0     qgl_win.obj
 0002:000038c0       ??_C@_0BC@JENM@glFeedbackBuffer?6?$AA@ 100408c0     qgl_win.obj
 0002:000038d4       ??_C@_09LLOD@glFinish?6?$AA@ 100408d4     qgl_win.obj
 0002:000038e0       ??_C@_08BGPG@glFlush?6?$AA@ 100408e0     qgl_win.obj
 0002:000038ec       ??_C@_07OFK@glFogf?6?$AA@  100408ec     qgl_win.obj
 0002:000038f4       ??_C@_08HKDI@glFogfv?6?$AA@ 100408f4     qgl_win.obj
 0002:00003900       ??_C@_07NKFL@glFogi?6?$AA@ 10040900     qgl_win.obj
 0002:00003908       ??_C@_08FEOM@glFogiv?6?$AA@ 10040908     qgl_win.obj
 0002:00003914       ??_C@_0N@PDFP@glFrontFace?6?$AA@ 10040914     qgl_win.obj
 0002:00003924       ??_C@_0L@PADN@glFrustum?6?$AA@ 10040924     qgl_win.obj
 0002:00003930       ??_C@_0M@LGK@glGenLists?6?$AA@ 10040930     qgl_win.obj
 0002:0000393c       ??_C@_0P@IHKG@glGenTextures?6?$AA@ 1004093c     qgl_win.obj
 0002:0000394c       ??_C@_0P@KHLC@glGetBooleanv?6?$AA@ 1004094c     qgl_win.obj
 0002:0000395c       ??_C@_0BA@PJNG@glGetClipPlane?6?$AA@ 1004095c     qgl_win.obj
 0002:0000396c       ??_C@_0O@LBCP@glGetDoublev?6?$AA@ 1004096c     qgl_win.obj
 0002:0000397c       ??_C@_0M@GEBL@glGetError?6?$AA@ 1004097c     qgl_win.obj
 0002:00003988       ??_C@_0N@DGOL@glGetFloatv?6?$AA@ 10040988     qgl_win.obj
 0002:00003998       ??_C@_0P@EBGK@glGetIntegerv?6?$AA@ 10040998     qgl_win.obj
 0002:000039a8       ??_C@_0O@KOIO@glGetLightfv?6?$AA@ 100409a8     qgl_win.obj
 0002:000039b8       ??_C@_0O@IAFK@glGetLightiv?6?$AA@ 100409b8     qgl_win.obj
 0002:000039c8       ??_C@_0M@FNKA@glGetMapdv?6?$AA@ 100409c8     qgl_win.obj
 0002:000039d4       ??_C@_0M@PJIN@glGetMapfv?6?$AA@ 100409d4     qgl_win.obj
 0002:000039e0       ??_C@_0M@NHFJ@glGetMapiv?6?$AA@ 100409e0     qgl_win.obj
 0002:000039ec       ??_C@_0BB@NELO@glGetMaterialfv?6?$AA@ 100409ec     qgl_win.obj
 0002:00003a00       ??_C@_0BB@PKGK@glGetMaterialiv?6?$AA@ 10040a00     qgl_win.obj
 0002:00003a14       ??_C@_0BB@HPAI@glGetPixelMapfv?6?$AA@ 10040a14     qgl_win.obj
 0002:00003a28       ??_C@_0BC@BNCA@glGetPixelMapuiv?6?$AA@ 10040a28     qgl_win.obj
 0002:00003a3c       ??_C@_0BC@INC@glGetPixelMapusv?6?$AA@ 10040a3c     qgl_win.obj
 0002:00003a50       ??_C@_0P@FCA@glGetPointerv?6?$AA@ 10040a50     qgl_win.obj
 0002:00003a60       ??_C@_0BF@NFPA@glGetPolygonStipple?6?$AA@ 10040a60     qgl_win.obj
 0002:00003a78       ??_C@_0N@NMNP@glGetString?6?$AA@ 10040a78     qgl_win.obj
 0002:00003a88       ??_C@_0P@KNNB@glGetTexEnvfv?6?$AA@ 10040a88     qgl_win.obj
 0002:00003a98       ??_C@_0P@IDAF@glGetTexEnviv?6?$AA@ 10040a98     qgl_win.obj
 0002:00003aa8       ??_C@_0P@LMEI@glGetTexGendv?6?$AA@ 10040aa8     qgl_win.obj
 0002:00003ab8       ??_C@_0P@BIGF@glGetTexGenfv?6?$AA@ 10040ab8     qgl_win.obj
 0002:00003ac8       ??_C@_0P@DGLB@glGetTexGeniv?6?$AA@ 10040ac8     qgl_win.obj
 0002:00003ad8       ??_C@_0P@BKOA@glGetTexImage?6?$AA@ 10040ad8     qgl_win.obj
 0002:00003ae8       ??_C@_0BK@LLEB@glGetTexLevelParameterfv?6?$AA@ 10040ae8     qgl_win.obj
 0002:00003b04       ??_C@_0BK@JFJF@glGetTexLevelParameteriv?6?$AA@ 10040b04     qgl_win.obj
 0002:00003b20       ??_C@_0BF@OJHB@glGetTexParameterfv?6?$AA@ 10040b20     qgl_win.obj
 0002:00003b38       ??_C@_0BF@MHKF@glGetTexParameteriv?6?$AA@ 10040b38     qgl_win.obj
 0002:00003b50       ??_C@_0BG@PJGJ@glHint?$CI?50x?$CFx?0?50x?$CFx?5?$CJ?6?$AA@ 10040b50     qgl_win.obj
 0002:00003b68       ??_C@_0N@HKPA@glIndexMask?6?$AA@ 10040b68     qgl_win.obj
 0002:00003b78       ??_C@_0BA@NFPO@glIndexPointer?6?$AA@ 10040b78     qgl_win.obj
 0002:00003b88       ??_C@_09JJAO@glIndexd?6?$AA@ 10040b88     qgl_win.obj
 0002:00003b94       ??_C@_0L@ELKP@glIndexdv?6?$AA@ 10040b94     qgl_win.obj
 0002:00003ba0       ??_C@_09LEFL@glIndexf?6?$AA@ 10040ba0     qgl_win.obj
 0002:00003bac       ??_C@_0L@OPIC@glIndexfv?6?$AA@ 10040bac     qgl_win.obj
 0002:00003bb8       ??_C@_09GAFK@glIndexi?6?$AA@ 10040bb8     qgl_win.obj
 0002:00003bc4       ??_C@_0L@MBFG@glIndexiv?6?$AA@ 10040bc4     qgl_win.obj
 0002:00003bd0       ??_C@_09JCPC@glIndexs?6?$AA@ 10040bd0     qgl_win.obj
 0002:00003bdc       ??_C@_0L@NEKE@glIndexsv?6?$AA@ 10040bdc     qgl_win.obj
 0002:00003be8       ??_C@_0L@INA@glIndexub?6?$AA@ 10040be8     qgl_win.obj
 0002:00003bf4       ??_C@_0M@FEDO@glIndexubv?6?$AA@ 10040bf4     qgl_win.obj
 0002:00003c00       ??_C@_0N@CPDE@glInitNames?6?$AA@ 10040c00     qgl_win.obj
 0002:00003c10       ??_C@_0BF@IEMM@glInterleavedArrays?6?$AA@ 10040c10     qgl_win.obj
 0002:00003c28       ??_C@_0N@EJPL@glIsEnabled?6?$AA@ 10040c28     qgl_win.obj
 0002:00003c38       ??_C@_09BLFC@glIsList?6?$AA@ 10040c38     qgl_win.obj
 0002:00003c44       ??_C@_0N@PHEE@glIsTexture?6?$AA@ 10040c44     qgl_win.obj
 0002:00003c54       ??_C@_0P@OCFG@glLightModelf?6?$AA@ 10040c54     qgl_win.obj
 0002:00003c64       ??_C@_0BA@NNNE@glLightModelfv?6?$AA@ 10040c64     qgl_win.obj
 0002:00003c74       ??_C@_0P@DGFH@glLightModeli?6?$AA@ 10040c74     qgl_win.obj
 0002:00003c84       ??_C@_0BA@PDAA@glLightModeliv?6?$AA@ 10040c84     qgl_win.obj
 0002:00003c94       ??_C@_09GKPC@glLightf?6?$AA@ 10040c94     qgl_win.obj
 0002:00003ca0       ??_C@_0L@GOFM@glLightfv?6?$AA@ 10040ca0     qgl_win.obj
 0002:00003cac       ??_C@_09LOPD@glLighti?6?$AA@ 10040cac     qgl_win.obj
 0002:00003cb8       ??_C@_0L@EAII@glLightiv?6?$AA@ 10040cb8     qgl_win.obj
 0002:00003cc4       ??_C@_0P@HHKG@glLineStipple?6?$AA@ 10040cc4     qgl_win.obj
 0002:00003cd4       ??_C@_0N@BEDE@glLineWidth?6?$AA@ 10040cd4     qgl_win.obj
 0002:00003ce4       ??_C@_0M@CNFD@glListBase?6?$AA@ 10040ce4     qgl_win.obj
 0002:00003cf0       ??_C@_0BA@NLFN@glLoadIdentity?6?$AA@ 10040cf0     qgl_win.obj
 0002:00003d00       ??_C@_0P@EEGA@glLoadMatrixd?6?$AA@ 10040d00     qgl_win.obj
 0002:00003d10       ??_C@_0P@GJDF@glLoadMatrixf?6?$AA@ 10040d10     qgl_win.obj
 0002:00003d20       ??_C@_0M@KPNA@glLoadName?6?$AA@ 10040d20     qgl_win.obj
 0002:00003d2c       ??_C@_0L@HBBC@glLogicOp?6?$AA@ 10040d2c     qgl_win.obj
 0002:00003d38       ??_C@_08FKOO@glMap1d?6?$AA@ 10040d38     qgl_win.obj
 0002:00003d44       ??_C@_08HHLL@glMap1f?6?$AA@ 10040d44     qgl_win.obj
 0002:00003d50       ??_C@_08KMNF@glMap2d?6?$AA@ 10040d50     qgl_win.obj
 0002:00003d5c       ??_C@_08IBIA@glMap2f?6?$AA@ 10040d5c     qgl_win.obj
 0002:00003d68       ??_C@_0N@HCGO@glMapGrid1d?6?$AA@ 10040d68     qgl_win.obj
 0002:00003d78       ??_C@_0N@FPDL@glMapGrid1f?6?$AA@ 10040d78     qgl_win.obj
 0002:00003d88       ??_C@_0N@IEFF@glMapGrid2d?6?$AA@ 10040d88     qgl_win.obj
 0002:00003d98       ??_C@_0N@KJAA@glMapGrid2f?6?$AA@ 10040d98     qgl_win.obj
 0002:00003da8       ??_C@_0N@GODN@glMaterialf?6?$AA@ 10040da8     qgl_win.obj
 0002:00003db8       ??_C@_0O@PMFI@glMaterialfv?6?$AA@ 10040db8     qgl_win.obj
 0002:00003dc8       ??_C@_0N@LKDM@glMateriali?6?$AA@ 10040dc8     qgl_win.obj
 0002:00003dd8       ??_C@_0O@NCIM@glMaterialiv?6?$AA@ 10040dd8     qgl_win.obj
 0002:00003de8       ??_C@_0O@LIAL@glMatrixMode?6?$AA@ 10040de8     qgl_win.obj
 0002:00003df8       ??_C@_0P@OKEM@glMultMatrixd?6?$AA@ 10040df8     qgl_win.obj
 0002:00003e08       ??_C@_0P@MHBJ@glMultMatrixf?6?$AA@ 10040e08     qgl_win.obj
 0002:00003e18       ??_C@_0L@DHBP@glNewList?6?$AA@ 10040e18     qgl_win.obj
 0002:00003e24       ??_C@_0M@MPKC@glNormal3b?6?$AA@ 10040e24     qgl_win.obj
 0002:00003e30       ??_C@_0N@DMPJ@glNormal3bv?6?$AA@ 10040e30     qgl_win.obj
 0002:00003e40       ??_C@_0M@LIFN@glNormal3d?6?$AA@ 10040e40     qgl_win.obj
 0002:00003e4c       ??_C@_0N@NAIO@glNormal3dv?6?$AA@ 10040e4c     qgl_win.obj
 0002:00003e5c       ??_C@_0M@JFAI@glNormal3f?6?$AA@ 10040e5c     qgl_win.obj
 0002:00003e68       ??_C@_0N@HEKD@glNormal3fv?6?$AA@ 10040e68     qgl_win.obj
 0002:00003e78       ??_C@_0M@EBAJ@glNormal3i?6?$AA@ 10040e78     qgl_win.obj
 0002:00003e84       ??_C@_0N@FKHH@glNormal3iv?6?$AA@ 10040e84     qgl_win.obj
 0002:00003e94       ??_C@_0M@LDKB@glNormal3s?6?$AA@ 10040e94     qgl_win.obj
 0002:00003ea0       ??_C@_0N@EPIF@glNormal3sv?6?$AA@ 10040ea0     qgl_win.obj
 0002:00003eb0       ??_C@_0BB@PP@glNormalPointer?6?$AA@ 10040eb0     qgl_win.obj
 0002:00003ec4       ??_C@_08OOBE@glOrtho?6?$AA@ 10040ec4     qgl_win.obj
 0002:00003ed0       ??_C@_0P@GEIP@glPassThrough?6?$AA@ 10040ed0     qgl_win.obj
 0002:00003ee0       ??_C@_0O@FHOO@glPixelMapfv?6?$AA@ 10040ee0     qgl_win.obj
 0002:00003ef0       ??_C@_0P@KEAI@glPixelMapuiv?6?$AA@ 10040ef0     qgl_win.obj
 0002:00003f00       ??_C@_0P@LBPK@glPixelMapusv?6?$AA@ 10040f00     qgl_win.obj
 0002:00003f10       ??_C@_0P@GMNN@glPixelStoref?6?$AA@ 10040f10     qgl_win.obj
 0002:00003f20       ??_C@_0P@LINM@glPixelStorei?6?$AA@ 10040f20     qgl_win.obj
 0002:00003f30       ??_C@_0BC@FPDN@glPixelTransferf?6?$AA@ 10040f30     qgl_win.obj
 0002:00003f44       ??_C@_0BC@ILDM@glPixelTransferi?6?$AA@ 10040f44     qgl_win.obj
 0002:00003f58       ??_C@_0N@MOPA@glPixelZoom?6?$AA@ 10040f58     qgl_win.obj
 0002:00003f68       ??_C@_0N@IJAG@glPointSize?6?$AA@ 10040f68     qgl_win.obj
 0002:00003f78       ??_C@_0BN@EGCF@glPolygonMode?$CI?50x?$CFx?0?50x?$CFx?5?$CJ?6?$AA@ 10040f78     qgl_win.obj
 0002:00003f98       ??_C@_0BB@BCIG@glPolygonOffset?6?$AA@ 10040f98     qgl_win.obj
 0002:00003fac       ??_C@_0BC@DPMO@glPolygonStipple?6?$AA@ 10040fac     qgl_win.obj
 0002:00003fc0       ??_C@_0N@KPFH@glPopAttrib?6?$AA@ 10040fc0     qgl_win.obj
 0002:00003fd0       ??_C@_0BD@EMAK@glPopClientAttrib?6?$AA@ 10040fd0     qgl_win.obj
 0002:00003fe4       ??_C@_0N@KCG@glPopMatrix?6?$AA@ 10040fe4     qgl_win.obj
 0002:00003ff4       ??_C@_0L@MOPC@glPopName?6?$AA@ 10040ff4     qgl_win.obj
 0002:00004000       ??_C@_0BG@GDOA@glPrioritizeTextures?6?$AA@ 10041000     qgl_win.obj
 0002:00004018       ??_C@_0O@FED@glPushAttrib?6?$AA@ 10041018     qgl_win.obj
 0002:00004028       ??_C@_0BE@HLDH@glPushClientAttrib?6?$AA@ 10041028     qgl_win.obj
 0002:0000403c       ??_C@_0O@KADC@glPushMatrix?6?$AA@ 1004103c     qgl_win.obj
 0002:0000404c       ??_C@_0M@IMAD@glPushName?6?$AA@ 1004104c     qgl_win.obj
 0002:00004058       ??_C@_0P@BEAP@glRasterPot2d?6?$AA@ 10041058     qgl_win.obj
 0002:00004068       ??_C@_0BA@KINI@glRasterPos2dv?6?$AA@ 10041068     qgl_win.obj
 0002:00004078       ??_C@_0P@MDOE@glRasterPos2f?6?$AA@ 10041078     qgl_win.obj
 0002:00004088       ??_C@_0BA@EIII@glRasterPos2if?6?$AA@ 10041088     qgl_win.obj
 0002:00004098       ??_C@_0BA@CCCB@glRasterPos2iv?6?$AA@ 10041098     qgl_win.obj
 0002:000040a8       ??_C@_0P@OFEN@glRasterPos2s?6?$AA@ 100410a8     qgl_win.obj
 0002:000040b8       ??_C@_0BA@DHND@glRasterPos2sv?6?$AA@ 100410b8     qgl_win.obj
 0002:000040c8       ??_C@_0P@LMKH@glRasterPos3d?6?$AA@ 100410c8     qgl_win.obj
 0002:000040d8       ??_C@_0BA@INIK@glRasterPos3dv?6?$AA@ 100410d8     qgl_win.obj
 0002:000040e8       ??_C@_0P@JBPC@glRasterPos3f?6?$AA@ 100410e8     qgl_win.obj
 0002:000040f8       ??_C@_0BA@CJKH@glRasterPos3fv?6?$AA@ 100410f8     qgl_win.obj
 0002:00004108       ??_C@_0P@EFPD@glRasterPos3i?6?$AA@ 10041108     qgl_win.obj
 0002:00004118       ??_C@_0BA@HHD@glRasterPos3iv?6?$AA@ 10041118     qgl_win.obj
 0002:00004128       ??_C@_0P@LHFL@glRasterPos3s?6?$AA@ 10041128     qgl_win.obj
 0002:00004138       ??_C@_0BA@BCIB@glRasterPos3sv?6?$AA@ 10041138     qgl_win.obj
 0002:00004148       ??_C@_0P@CMG@glRasterPos4d?6?$AA@ 10041148     qgl_win.obj
 0002:00004158       ??_C@_0BA@HHDE@glRasterPos4dv?6?$AA@ 10041158     qgl_win.obj
 0002:00004168       ??_C@_0P@CPJD@glRasterPos4f?6?$AA@ 10041168     qgl_win.obj
 0002:00004178       ??_C@_0BA@NDBJ@glRasterPos4fv?6?$AA@ 10041178     qgl_win.obj
 0002:00004188       ??_C@_0P@PLJC@glRasterPos4i?6?$AA@ 10041188     qgl_win.obj
 0002:00004198       ??_C@_0BA@PNMN@glRasterPos4iv?6?$AA@ 10041198     qgl_win.obj
 0002:000041a8       ??_C@_0P@JDK@glRasterPos4s?6?$AA@ 100411a8     qgl_win.obj
 0002:000041b8       ??_C@_0BA@OIDP@glRasterPos4sv?6?$AA@ 100411b8     qgl_win.obj
 0002:000041c8       ??_C@_0O@DLIK@glReadBuffer?6?$AA@ 100411c8     qgl_win.obj
 0002:000041d8       ??_C@_0O@FGCH@glReadPixels?6?$AA@ 100411d8     qgl_win.obj
 0002:000041e8       ??_C@_08GACJ@glRectd?6?$AA@ 100411e8     qgl_win.obj
 0002:000041f4       ??_C@_09MKFG@glRectdv?6?$AA@ 100411f4     qgl_win.obj
 0002:00004200       ??_C@_08ENHM@glRectf?6?$AA@ 10041200     qgl_win.obj
 0002:0000420c       ??_C@_09GOHL@glRectfv?6?$AA@ 1004120c     qgl_win.obj
 0002:00004218       ??_C@_08JJHN@glRecti?6?$AA@ 10041218     qgl_win.obj
 0002:00004224       ??_C@_09EAKP@glRectiv?6?$AA@ 10041224     qgl_win.obj
 0002:00004230       ??_C@_08GLNF@glRects?6?$AA@ 10041230     qgl_win.obj
 0002:0000423c       ??_C@_09FFFN@glRectsv?6?$AA@ 1004123c     qgl_win.obj
 0002:00004248       ??_C@_0O@CGMI@glRenderMode?6?$AA@ 10041248     qgl_win.obj
 0002:00004258       ??_C@_0L@OHB@glRotated?6?$AA@ 10041258     qgl_win.obj
 0002:00004264       ??_C@_0L@CDCE@glRotatef?6?$AA@ 10041264     qgl_win.obj
 0002:00004270       ??_C@_09LDBC@glScaled?6?$AA@ 10041270     qgl_win.obj
 0002:0000427c       ??_C@_09JOEH@glScalef?6?$AA@ 1004127c     qgl_win.obj
 0002:00004288       ??_C@_0L@CNOI@glScissor?6?$AA@ 10041288     qgl_win.obj
 0002:00004294       ??_C@_0BA@LPAE@glSelectBuffer?6?$AA@ 10041294     qgl_win.obj
 0002:000042a4       ??_C@_0O@ECO@glShadeModel?6?$AA@ 100412a4     qgl_win.obj
 0002:000042b4       ??_C@_0P@CJPH@glStencilFunc?6?$AA@ 100412b4     qgl_win.obj
 0002:000042c4       ??_C@_0P@BGBM@glStencilMask?6?$AA@ 100412c4     qgl_win.obj
 0002:000042d4       ??_C@_0N@BCCI@glStencilOp?6?$AA@ 100412d4     qgl_win.obj
 0002:000042e4       ??_C@_0O@JKAL@glTexCoord1d?6?$AA@ 100412e4     qgl_win.obj
 0002:000042f4       ??_C@_0P@FDKM@glTexCoord1dv?6?$AA@ 100412f4     qgl_win.obj
 0002:00004304       ??_C@_0O@LHFO@glTexCoord1f?6?$AA@ 10041304     qgl_win.obj
 0002:00004314       ??_C@_0P@PHIB@glTexCoord1fv?6?$AA@ 10041314     qgl_win.obj
 0002:00004324       ??_C@_0O@GDFP@glTexCoord1i?6?$AA@ 10041324     qgl_win.obj
 0002:00004334       ??_C@_0P@NJFF@glTexCoord1iv?6?$AA@ 10041334     qgl_win.obj
 0002:00004344       ??_C@_0O@JBPH@glTexCoord1s?6?$AA@ 10041344     qgl_win.obj
 0002:00004354       ??_C@_0P@MMKH@glTexCoord1sv?6?$AA@ 10041354     qgl_win.obj
 0002:00004364       ??_C@_0O@GMDA@glTexCoord2d?6?$AA@ 10041364     qgl_win.obj
 0002:00004374       ??_C@_0P@DMFK@glTexCoord2dv?6?$AA@ 10041374     qgl_win.obj
 0002:00004384       ??_C@_0O@EBGF@glTexCoord2f?6?$AA@ 10041384     qgl_win.obj
 0002:00004394       ??_C@_0P@JIHH@glTexCoord2fv?6?$AA@ 10041394     qgl_win.obj
 0002:000043a4       ??_C@_0O@JFGE@glTexCoord2i?6?$AA@ 100413a4     qgl_win.obj
 0002:000043b4       ??_C@_0P@LGKD@glTexCoord2iv?6?$AA@ 100413b4     qgl_win.obj
 0002:000043c4       ??_C@_0O@GHMM@glTexCoord2s?6?$AA@ 100413c4     qgl_win.obj
 0002:000043d4       ??_C@_0P@KDFB@glTexCoord2sv?6?$AA@ 100413d4     qgl_win.obj
 0002:000043e4       ??_C@_0O@DOCG@glTexCoord3d?6?$AA@ 100413e4     qgl_win.obj
 0002:000043f4       ??_C@_0P@BJAI@glTexCoord3dv?6?$AA@ 100413f4     qgl_win.obj
 0002:00004404       ??_C@_0O@BDHD@glTexCoord3f?6?$AA@ 10041404     qgl_win.obj
 0002:00004414       ??_C@_0P@LNCF@glTexCoord3fv?6?$AA@ 10041414     qgl_win.obj
 0002:00004424       ??_C@_0O@MHHC@glTexCoord3i?6?$AA@ 10041424     qgl_win.obj
 0002:00004434       ??_C@_0P@JDPB@glTexCoord3iv?6?$AA@ 10041434     qgl_win.obj
 0002:00004444       ??_C@_0O@DFNK@glTexCoord3s?6?$AA@ 10041444     qgl_win.obj
 0002:00004454       ??_C@_0P@IGAD@glTexCoord3sv?6?$AA@ 10041454     qgl_win.obj
 0002:00004464       ??_C@_0O@IAEH@glTexCoord4d?6?$AA@ 10041464     qgl_win.obj
 0002:00004474       ??_C@_0P@ODLG@glTexCoord4dv?6?$AA@ 10041474     qgl_win.obj
 0002:00004484       ??_C@_0O@KNBC@glTexCoord4f?6?$AA@ 10041484     qgl_win.obj
 0002:00004494       ??_C@_0P@EHJL@glTexCoord4fv?6?$AA@ 10041494     qgl_win.obj
 0002:000044a4       ??_C@_0O@HJBD@glTexCoord4i?6?$AA@ 100414a4     qgl_win.obj
 0002:000044b4       ??_C@_0P@GJEP@glTexCoord4iv?6?$AA@ 100414b4     qgl_win.obj
 0002:000044c4       ??_C@_0O@ILLL@glTexCoord4s?6?$AA@ 100414c4     qgl_win.obj
 0002:000044d4       ??_C@_0P@HMLN@glTexCoord4sv?6?$AA@ 100414d4     qgl_win.obj
 0002:000044e4       ??_C@_0BD@CLNM@glTexCoordPointer?6?$AA@ 100414e4     qgl_win.obj
 0002:000044f8       ??_C@_0BN@KOFE@glTexEnvf?$CI?50x?$CFx?0?50x?$CFx?0?5?$CFf?5?$CJ?6?$AA@ 100414f8     qgl_win.obj
 0002:00004518       ??_C@_0M@EGBB@glTexEnvfv?6?$AA@ 10041518     qgl_win.obj
 0002:00004524       ??_C@_0BP@FJN@glTexEnvi?$CI?50x?$CFx?0?50x?$CFx?0?50x?$CFx?5?$CJ?6?$AA@ 10041524     qgl_win.obj
 0002:00004544       ??_C@_0M@GIMF@glTexEnviv?6?$AA@ 10041544     qgl_win.obj
 0002:00004550       ??_C@_0L@LOBJ@glTexGend?6?$AA@ 10041550     qgl_win.obj
 0002:0000455c       ??_C@_0M@FHII@glTexGendv?6?$AA@ 1004155c     qgl_win.obj
 0002:00004568       ??_C@_0L@JDEM@glTexGenf?6?$AA@ 10041568     qgl_win.obj
 0002:00004574       ??_C@_0M@PDKF@glTexGenfv?6?$AA@ 10041574     qgl_win.obj
 0002:00004580       ??_C@_0L@EHEN@glTexGeni?6?$AA@ 10041580     qgl_win.obj
 0002:0000458c       ??_C@_0M@NNHB@glTexGeniv?6?$AA@ 1004158c     qgl_win.obj
 0002:00004598       ??_C@_0O@BECN@glTexImage1D?6?$AA@ 10041598     qgl_win.obj
 0002:000045a8       ??_C@_0O@OCBG@glTexImage2D?6?$AA@ 100415a8     qgl_win.obj
 0002:000045b8       ??_C@_0CD@MGJM@glTexParameterf?$CI?50x?$CFx?0?50x?$CFx?0?5?$CFf?5@ 100415b8     qgl_win.obj
 0002:000045dc       ??_C@_0BC@DEP@glTexParameterfv?6?$AA@ 100415dc     qgl_win.obj
 0002:000045f0       ??_C@_0CF@LPLO@glTexParameteri?$CI?50x?$CFx?0?50x?$CFx?0?50x?$CF@ 100415f0     qgl_win.obj
 0002:00004618       ??_C@_0BC@CNJL@glTexParameteriv?6?$AA@ 10041618     qgl_win.obj
 0002:0000462c       ??_C@_0BB@NKAI@glTexSubImage1D?6?$AA@ 1004162c     qgl_win.obj
 0002:00004640       ??_C@_0BB@CMDD@glTexSubImage2D?6?$AA@ 10041640     qgl_win.obj
 0002:00004654       ??_C@_0O@NDBJ@glTranslated?6?$AA@ 10041654     qgl_win.obj
 0002:00004664       ??_C@_0O@POEM@glTranslatef?6?$AA@ 10041664     qgl_win.obj
 0002:00004674       ??_C@_0M@CPPO@glVertex2d?6?$AA@ 10041674     qgl_win.obj
 0002:00004680       ??_C@_0N@IGBJ@glVertex2dv?6?$AA@ 10041680     qgl_win.obj
 0002:00004690       ??_C@_0M@CKL@glVertex2f?6?$AA@ 10041690     qgl_win.obj
 0002:0000469c       ??_C@_0N@CCDE@glVertex2fv?6?$AA@ 1004169c     qgl_win.obj
 0002:000046ac       ??_C@_0M@NGKK@glVertex2i?6?$AA@ 100416ac     qgl_win.obj
 0002:000046b8       ??_C@_0N@MOA@glVertex2iv?6?$AA@ 100416b8     qgl_win.obj
 0002:000046c8       ??_C@_0M@CEAC@glVertex2s?6?$AA@ 100416c8     qgl_win.obj
 0002:000046d4       ??_C@_0N@BJBC@glVertex2sv?6?$AA@ 100416d4     qgl_win.obj
 0002:000046e4       ??_C@_0M@HNOI@glVertex3d?6?$AA@ 100416e4     qgl_win.obj
 0002:000046f0       ??_C@_0N@KDEL@glVertex3dv?6?$AA@ 100416f0     qgl_win.obj
 0002:00004700       ??_C@_0M@FALN@glVertex3f?6?$AA@ 10041700     qgl_win.obj
 0002:0000470c       ??_C@_0N@HGG@glVertex3fv?6?$AA@ 1004170c     qgl_win.obj
 0002:0000471c       ??_C@_0M@IELM@glVertex3i?6?$AA@ 1004171c     qgl_win.obj
 0002:00004728       ??_C@_0N@CJLC@glVertex3iv?6?$AA@ 10041728     qgl_win.obj
 0002:00004738       ??_C@_0M@HGBE@glVertex3s?6?$AA@ 10041738     qgl_win.obj
 0002:00004744       ??_C@_0N@DMEA@glVertex3sv?6?$AA@ 10041744     qgl_win.obj
 0002:00004754       ??_C@_0M@MDIJ@glVertex4d?6?$AA@ 10041754     qgl_win.obj
 0002:00004760       ??_C@_0N@FJPF@glVertex4dv?6?$AA@ 10041760     qgl_win.obj
 0002:00004770       ??_C@_0M@OONM@glVertex4f?6?$AA@ 10041770     qgl_win.obj
 0002:0000477c       ??_C@_0N@PNNI@glVertex4fv?6?$AA@ 1004177c     qgl_win.obj
 0002:0000478c       ??_C@_0M@DKNN@glVertex4i?6?$AA@ 1004178c     qgl_win.obj
 0002:00004798       ??_C@_0N@NDAM@glVertex4iv?6?$AA@ 10041798     qgl_win.obj
 0002:000047a8       ??_C@_0M@MIHF@glVertex4s?6?$AA@ 100417a8     qgl_win.obj
 0002:000047b4       ??_C@_0N@MGPO@glVertex4sv?6?$AA@ 100417b4     qgl_win.obj
 0002:000047c4       ??_C@_0BB@CKHA@glVertexPointer?6?$AA@ 100417c4     qgl_win.obj
 0002:000047d8       ??_C@_0M@LCBL@glViewport?6?$AA@ 100417d8     qgl_win.obj
 0002:000047e4       ??_C@_0BG@EHBJ@?$CK?$CK?$CK?5R_BeginFrame?5?$CK?$CK?$CK?6?$AA@ 100417e4     qgl_win.obj
 0002:000047fc       ??_C@_06DPMO@Client?$AA@   100417fc     LIBCMTD:dbgheap.obj
 0002:00004804       ??_C@_06BAFM@Ignore?$AA@   10041804     LIBCMTD:dbgheap.obj
 0002:0000480c       ??_C@_03DICE@CRT?$AA@      1004180c     LIBCMTD:dbgheap.obj
 0002:00004810       ??_C@_06BILL@Normal?$AA@   10041810     LIBCMTD:dbgheap.obj
 0002:00004818       ??_C@_04NEN@Free?$AA@      10041818     LIBCMTD:dbgheap.obj
 0002:00004820       ??_C@_0DC@CGID@Error?3?5memory?5allocation?3?5bad?5me@ 10041820     LIBCMTD:dbgheap.obj
 0002:00004854       ??_C@_0CE@FMIA@Invalid?5allocation?5size?3?5?$CFu?5byte@ 10041854     LIBCMTD:dbgheap.obj
 0002:00004878       ??_C@_0CB@CPBI@Client?5hook?5allocation?5failure?4?6@ 10041878     LIBCMTD:dbgheap.obj
 0002:0000489c       ??_C@_0DF@DKHF@Client?5hook?5allocation?5failure?5a@ 1004189c     LIBCMTD:dbgheap.obj
 0002:000048d4       ??_C@_09IMJC@dbgheap?4c?$AA@ 100418d4     LIBCMTD:dbgheap.obj
 0002:000048e0       ??_C@_0BC@EPKL@_CrtCheckMemory?$CI?$CJ?$AA@ 100418e0     LIBCMTD:dbgheap.obj
 0002:000048f4       ??_C@_0BK@JDHA@_pFirstBlock?5?$DN?$DN?5pOldBlock?$AA@ 100418f4     LIBCMTD:dbgheap.obj
 0002:00004910       ??_C@_0BJ@NMEF@_pLastBlock?5?$DN?$DN?5pOldBlock?$AA@ 10041910     LIBCMTD:dbgheap.obj
 0002:0000492c       ??_C@_0DC@BOCN@fRealloc?5?$HM?$HM?5?$CI?$CBfRealloc?5?$CG?$CG?5pNewBl@ 1004192c     LIBCMTD:dbgheap.obj
 0002:00004960       ??_C@_0DK@DKOM@_BLOCK_TYPE?$CIpOldBlock?9?$DOnBlockUse@ 10041960     LIBCMTD:dbgheap.obj
 0002:0000499c       ??_C@_0EF@EDKM@pOldBlock?9?$DOnLine?5?$DN?$DN?5IGNORE_LINE?5@ 1004199c     LIBCMTD:dbgheap.obj
 0002:000049e4       ??_C@_0CC@GPMO@_CrtIsValidHeapPointer?$CIpUserData@ 100419e4     LIBCMTD:dbgheap.obj
 0002:00004a08       ??_C@_0CN@FHGE@Allocation?5too?5large?5or?5negative@ 10041a08     LIBCMTD:dbgheap.obj
 0002:00004a38       ??_C@_0CE@EAMN@Client?5hook?5re?9allocation?5failur@ 10041a38     LIBCMTD:dbgheap.obj
 0002:00004a5c       ??_C@_0DI@KKMM@Client?5hook?5re?9allocation?5failur@ 10041a5c     LIBCMTD:dbgheap.obj
 0002:00004a94       ??_C@_0BG@JCEC@_pFirstBlock?5?$DN?$DN?5pHead?$AA@ 10041a94     LIBCMTD:dbgheap.obj
 0002:00004aac       ??_C@_0BF@NLNN@_pLastBlock?5?$DN?$DN?5pHead?$AA@ 10041aac     LIBCMTD:dbgheap.obj
 0002:00004ac4       ??_C@_0BO@PLHH@pHead?9?$DOnBlockUse?5?$DN?$DN?5nBlockUse?$AA@ 10041ac4     LIBCMTD:dbgheap.obj
 0002:00004ae4       ??_C@_0DN@KKIO@pHead?9?$DOnLine?5?$DN?$DN?5IGNORE_LINE?5?$CG?$CG?5p@ 10041ae4     LIBCMTD:dbgheap.obj
 0002:00004b24       ??_C@_0CK@OJNB@DAMAGE?3?5after?5?$CFhs?5block?5?$CI?$CD?$CFd?$CJ?5at@ 10041b24     LIBCMTD:dbgheap.obj
 0002:00004b50       ??_C@_0CL@IJIL@DAMAGE?3?5before?5?$CFhs?5block?5?$CI?$CD?$CFd?$CJ?5a@ 10041b50     LIBCMTD:dbgheap.obj
 0002:00004b7c       ??_C@_0CH@PHOC@_BLOCK_TYPE_IS_VALID?$CIpHead?9?$DOnBlo@ 10041b7c     LIBCMTD:dbgheap.obj
 0002:00004ba4       ??_C@_0BL@MBNA@Client?5hook?5free?5failure?4?6?$AA@ 10041ba4     LIBCMTD:dbgheap.obj
 0002:00004bc0       ??_C@_0DK@EKKL@memory?5check?5error?5at?50x?$CF08X?5?$DN?50@ 10041bc0     LIBCMTD:dbgheap.obj
 0002:00004bfc       ??_C@_0CJ@GCII@?$CFhs?5located?5at?50x?$CF08X?5is?5?$CFu?5byte@ 10041bfc     LIBCMTD:dbgheap.obj
 0002:00004c28       ??_C@_0CA@EJPI@?$CFhs?5allocated?5at?5file?5?$CFhs?$CI?$CFd?$CJ?4?6?$AA@ 10041c28     LIBCMTD:dbgheap.obj
 0002:00004c48       ??_C@_0CJ@LHHG@DAMAGE?3?5on?5top?5of?5Free?5block?5at?5@ 10041c48     LIBCMTD:dbgheap.obj
 0002:00004c74       ??_C@_07GJHM@DAMAGED?$AA@  10041c74     LIBCMTD:dbgheap.obj
 0002:00004c7c       ??_C@_0CL@ODIE@_heapchk?5fails?5with?5unknown?5retu@ 10041c7c     LIBCMTD:dbgheap.obj
 0002:00004ca8       ??_C@_0CC@EHNC@_heapchk?5fails?5with?5_HEAPBADPTR?4@ 10041ca8     LIBCMTD:dbgheap.obj
 0002:00004ccc       ??_C@_0CC@JNDP@_heapchk?5fails?5with?5_HEAPBADEND?4@ 10041ccc     LIBCMTD:dbgheap.obj
 0002:00004cf0       ??_C@_0CD@DNMG@_heapchk?5fails?5with?5_HEAPBADNODE@ 10041cf0     LIBCMTD:dbgheap.obj
 0002:00004d14       ??_C@_0CE@JMCB@_heapchk?5fails?5with?5_HEAPBADBEGI@ 10041d14     LIBCMTD:dbgheap.obj
 0002:00004d38       ??_C@_0CD@MEMI@Bad?5memory?5block?5found?5at?50x?$CF08X@ 10041d38     LIBCMTD:dbgheap.obj
 0002:00004d5c       ??_C@_0CI@GMAO@_CrtMemCheckPoint?3?5NULL?5state?5po@ 10041d5c     LIBCMTD:dbgheap.obj
 0002:00004d84       ??_C@_0CI@MNAE@_CrtMemDifference?3?5NULL?5state?5po@ 10041d84     LIBCMTD:dbgheap.obj
 0002:00004dac       ??_C@_0BH@PKIJ@Object?5dump?5complete?4?6?$AA@ 10041dac     LIBCMTD:dbgheap.obj
 0002:00004dc4       ??_C@_0DB@DBPF@crt?5block?5at?50x?$CF08X?0?5subtype?5?$CFx?0@ 10041dc4     LIBCMTD:dbgheap.obj
 0002:00004df8       ??_C@_0CI@JLM@normal?5block?5at?50x?$CF08X?0?5?$CFu?5bytes@ 10041df8     LIBCMTD:dbgheap.obj
 0002:00004e20       ??_C@_0DE@PFEA@client?5block?5at?50x?$CF08X?0?5subtype?5@ 10041e20     LIBCMTD:dbgheap.obj
 0002:00004e54       ??_C@_06MBCE@?$HL?$CFld?$HN?5?$AA@ 10041e54     LIBCMTD:dbgheap.obj
 0002:00004e5c       ??_C@_0L@BLDJ@?$CFhs?$CI?$CFd?$CJ?5?3?5?$AA@ 10041e5c     LIBCMTD:dbgheap.obj
 0002:00004e68       ??_C@_0BE@FEMA@?$CDFile?5Error?$CD?$CI?$CFd?$CJ?5?3?5?$AA@ 10041e68     LIBCMTD:dbgheap.obj
 0002:00004e7c       ??_C@_0BE@FPPM@Dumping?5objects?5?9?$DO?6?$AA@ 10041e7c     LIBCMTD:dbgheap.obj
 0002:00004e90       ??_C@_0BA@POLM@?5Data?3?5?$DM?$CFs?$DO?5?$CFs?6?$AA@ 10041e90     LIBCMTD:dbgheap.obj
 0002:00004ea0       ??_C@_05JLAO@?$CF?42X?5?$AA@ 10041ea0     LIBCMTD:dbgheap.obj
 0002:00004ea8       ??_C@_0BI@KONA@Detected?5memory?5leaks?$CB?6?$AA@ 10041ea8     LIBCMTD:dbgheap.obj
 0002:00004ec0       ??_C@_0BP@LCCN@Total?5allocations?3?5?$CFld?5bytes?4?6?$AA@ 10041ec0     LIBCMTD:dbgheap.obj
 0002:00004ee0       ??_C@_0CB@COID@Largest?5number?5used?3?5?$CFld?5bytes?4?6@ 10041ee0     LIBCMTD:dbgheap.obj
 0002:00004f04       ??_C@_0BO@MEJD@?$CFld?5bytes?5in?5?$CFld?5?$CFhs?5Blocks?4?6?$AA@ 10041f04     LIBCMTD:dbgheap.obj
 0002:00004f24       ??_C@_0P@LNLA@format?5?$CB?$DN?5NULL?$AA@ 10041f24     LIBCMTD:vsprintf.obj
 0002:00004f34       ??_C@_0L@HE@vsprintf?4c?$AA@ 10041f34     LIBCMTD:vsprintf.obj
 0002:00004f40       ??_C@_0P@OOIN@string?5?$CB?$DN?5NULL?$AA@ 10041f40     LIBCMTD:vsprintf.obj
 0002:00004f50       ??_C@_08PHBD@fclose?4c?$AA@ 10041f50     LIBCMTD:fclose.obj
 0002:00004f5c       ??_C@_0P@FHEA@stream?5?$CB?$DN?5NULL?$AA@ 10041f5c     LIBCMTD:fclose.obj
 0002:00004f6c       ??_C@_0M@KJPK@str?5?$CB?$DN?5NULL?$AA@ 10041f6c     LIBCMTD:fclose.obj
 0002:00004f78       ??_C@_0BC@IPFL@?$CKmode?5?$CB?$DN?5_T?$CI?8?20?8?$CJ?$AA@ 10041f78     LIBCMTD:fopen.obj
 0002:00004f8c       ??_C@_0N@BKPP@mode?5?$CB?$DN?5NULL?$AA@ 10041f8c     LIBCMTD:fopen.obj
 0002:00004f9c       ??_C@_0BC@GOED@?$CKfile?5?$CB?$DN?5_T?$CI?8?20?8?$CJ?$AA@ 10041f9c     LIBCMTD:fopen.obj
 0002:00004fb0       ??_C@_07OMGG@fopen?4c?$AA@ 10041fb0     LIBCMTD:fopen.obj
 0002:00004fb8       ??_C@_0N@MCKG@file?5?$CB?$DN?5NULL?$AA@ 10041fb8     LIBCMTD:fopen.obj
 0002:00004fc8       ??_C@_02JJJH@?6?6?$AA@     10041fc8     LIBCMTD:assert.obj
 0002:00004fcc       ??_C@_01BJG@?6?$AA@        10041fcc     LIBCMTD:assert.obj
 0002:00004fd0       ??_C@_03NAME@?4?4?4?$AA@   10041fd0     LIBCMTD:assert.obj
 0002:00004fd4       ??_C@_0CF@JPDF@Microsoft?5Visual?5C?$CL?$CL?5Runtime?5Lib@ 10041fd4     LIBCMTD:assert.obj
 0002:00004ffc       ??_C@_0DN@MHHJ@?$CIPress?5Retry?5to?5debug?5the?5applic@ 10041ffc     LIBCMTD:assert.obj
 0002:0000503c       ??_C@_0HA@EJLJ@For?5information?5on?5how?5your?5prog@ 1004203c     LIBCMTD:assert.obj
 0002:000050ac       ??_C@_0N@NOAB@Expression?3?5?$AA@ 100420ac     LIBCMTD:assert.obj
 0002:000050bc       ??_C@_06JMOL@Line?3?5?$AA@ 100420bc     LIBCMTD:assert.obj
 0002:000050c4       ??_C@_06FAAO@File?3?5?$AA@ 100420c4     LIBCMTD:assert.obj
 0002:000050cc       ??_C@_0BH@NNCD@?$DMprogram?5name?5unknown?$DO?$AA@ 100420cc     LIBCMTD:assert.obj
 0002:000050e4       ??_C@_09PIFG@Program?3?5?$AA@ 100420e4     LIBCMTD:assert.obj
 0002:000050f0       ??_C@_0BC@OIMC@Assertion?5failed?$CB?$AA@ 100420f0     LIBCMTD:assert.obj
 0002:00005104       ??_C@_09DLOM@fprintf?4c?$AA@ 10042104     LIBCMTD:fprintf.obj
 0002:00005110       ??_C@_09JDKJ@asctime?4c?$AA@ 10042110     LIBCMTD:asctime.obj
 0002:0000511c       ??_C@_0BK@JEGK@IsProcessorFeaturePresent?$AA@ 1004211c     LIBCMTD:testfdiv.obj
 0002:00005138       ??_C@_08OBID@KERNEL32?$AA@ 10042138     LIBCMTD:testfdiv.obj
 0002:00005144       ??_C@_05OFLO@e?$CL000?$AA@ 10042144     LIBCMTD:cvt.obj
 0002:0000514c       ??_C@_07PDLA@mlock?4c?$AA@ 1004214c     LIBCMTD:mlock.obj
 0002:00005154       ??_C@_0BB@BLL@Assertion?5Failed?$AA@ 10042154     LIBCMTD:dbgrpt.obj
 0002:00005168       ??_C@_05CKBG@Error?$AA@    10042168     LIBCMTD:dbgrpt.obj
 0002:00005170       ??_C@_07JCGI@Warning?$AA@  10042170     LIBCMTD:dbgrpt.obj
 0002:00005178       ??_C@_0M@ODEP@?$CFs?$CI?$CFd?$CJ?5?3?5?$CFs?$AA@ 10042178     LIBCMTD:dbgrpt.obj
 0002:00005184       ??_C@_01FEHD@?$AN?$AA@     10042184     LIBCMTD:dbgrpt.obj
 0002:00005188       ??_C@_0BD@BEAK@Assertion?5failed?3?5?$AA@ 10042188     LIBCMTD:dbgrpt.obj
 0002:0000519c       ??_C@_0CL@LCCP@_CrtDbgReport?3?5String?5too?5long?5o@ 1004219c     LIBCMTD:dbgrpt.obj
 0002:000051c8       ??_C@_0DC@EMDK@Second?5Chance?5Assertion?5Failed?3?5@ 100421c8     LIBCMTD:dbgrpt.obj
 0002:000051fc       ??_C@_09NJAK@wsprintfA?$AA@ 100421fc     LIBCMTD:dbgrpt.obj
 0002:00005208       ??_C@_0L@HKL@user32?4dll?$AA@ 10042208     LIBCMTD:dbgrpt.obj
 0002:00005214       ??_C@_0CD@GCMD@Microsoft?5Visual?5C?$CL?$CL?5Debug?5Libra@ 10042214     LIBCMTD:dbgrpt.obj
 0002:00005238       ??_C@_0FD@EBDD@Debug?5?$CFs?$CB?6?6Program?3?5?$CFs?$CFs?$CFs?$CFs?$CFs?$CFs@ 10042238     LIBCMTD:dbgrpt.obj
 0002:0000528c       ??_C@_09DCKN@?6Module?3?5?$AA@ 1004228c     LIBCMTD:dbgrpt.obj
 0002:00005298       ??_C@_07HJII@?6File?3?5?$AA@ 10042298     LIBCMTD:dbgrpt.obj
 0002:000052a0       ??_C@_07LFGN@?6Line?3?5?$AA@ 100422a0     LIBCMTD:dbgrpt.obj
 0002:000052a8       ??_C@_0HD@BHFH@?6?6For?5information?5on?5how?5your?5pr@ 100422a8     LIBCMTD:dbgrpt.obj
 0002:0000531c       ??_C@_08GFHP@dbgrpt?4c?$AA@ 1004231c     LIBCMTD:dbgrpt.obj
 0002:00005328       ??_C@_0BG@FBEA@szUserMessage?5?$CB?$DN?5NULL?$AA@ 10042328     LIBCMTD:dbgrpt.obj
 0002:00005340       ??_C@_09NEAG@sprintf?4c?$AA@ 10042340     LIBCMTD:sprintf.obj
 0002:00005358       __DEFAULT_CW_in_mem        10042358     LIBCMTD:common.obj
 0002:0000535a       __pi_by_2_to_61            1004235a     LIBCMTD:common.obj
 0002:00005394       ??_C@_03GAFO@_yn?$AA@      10042394     LIBCMTD:fpexcept.obj
 0002:00005398       ??_C@_03GNLD@_y1?$AA@      10042398     LIBCMTD:fpexcept.obj
 0002:0000539c       ??_C@_03MHCE@_y0?$AA@      1004239c     LIBCMTD:fpexcept.obj
 0002:000053a0       ??_C@_05PAK@frexp?$AA@     100423a0     LIBCMTD:fpexcept.obj
 0002:000053a8       ??_C@_04JKCH@fmod?$AA@     100423a8     LIBCMTD:fpexcept.obj
 0002:000053b0       ??_C@_06GGHF@_hypot?$AA@   100423b0     LIBCMTD:fpexcept.obj
 0002:000053b8       ??_C@_05JNMC@_cabs?$AA@    100423b8     LIBCMTD:fpexcept.obj
 0002:000053c0       ??_C@_05MEKH@ldexp?$AA@    100423c0     LIBCMTD:fpexcept.obj
 0002:000053c8       ??_C@_04KAOJ@modf?$AA@     100423c8     LIBCMTD:fpexcept.obj
 0002:000053d0       ??_C@_04EHAJ@fabs?$AA@     100423d0     LIBCMTD:fpexcept.obj
 0002:000053d8       ??_C@_05MFBN@floor?$AA@    100423d8     LIBCMTD:fpexcept.obj
 0002:000053e0       ??_C@_04JJMP@ceil?$AA@     100423e0     LIBCMTD:fpexcept.obj
 0002:000053e8       ??_C@_03JLPI@tan?$AA@      100423e8     LIBCMTD:fpexcept.obj
 0002:000053ec       ??_C@_03DLFL@cos?$AA@      100423ec     LIBCMTD:fpexcept.obj
 0002:000053f0       ??_C@_03JAMN@sin?$AA@      100423f0     LIBCMTD:fpexcept.obj
 0002:000053f4       ??_C@_04LMBE@sqrt?$AA@     100423f4     LIBCMTD:fpexcept.obj
 0002:000053fc       ??_C@_05BFPO@atan2?$AA@    100423fc     LIBCMTD:fpexcept.obj
 0002:00005404       ??_C@_04EAGN@atan?$AA@     10042404     LIBCMTD:fpexcept.obj
 0002:0000540c       ??_C@_04OAMO@acos?$AA@     1004240c     LIBCMTD:fpexcept.obj
 0002:00005414       ??_C@_04ELFI@asin?$AA@     10042414     LIBCMTD:fpexcept.obj
 0002:0000541c       ??_C@_04LFAD@tanh?$AA@     1004241c     LIBCMTD:fpexcept.obj
 0002:00005424       ??_C@_04PFKD@cosh?$AA@     10042424     LIBCMTD:fpexcept.obj
 0002:0000542c       ??_C@_04NPAI@sinh?$AA@     1004242c     LIBCMTD:fpexcept.obj
 0002:00005434       ??_C@_05IJHH@log10?$AA@    10042434     LIBCMTD:fpexcept.obj
 0002:0000543c       ??_C@_03BGKD@log?$AA@      1004243c     LIBCMTD:fpexcept.obj
 0002:00005440       ??_C@_03EGFG@pow?$AA@      10042440     LIBCMTD:fpexcept.obj
 0002:00005444       ??_C@_03CDGJ@exp?$AA@      10042444     LIBCMTD:fpexcept.obj
 0002:00005448       ??_C@_07PCLE@LC_TIME?$AA@  10042448     LIBCMTD:setlocal.obj
 0002:00005450       ??_C@_0L@NKG@LC_NUMERIC?$AA@ 10042450     LIBCMTD:setlocal.obj
 0002:0000545c       ??_C@_0M@CBIH@LC_MONETARY?$AA@ 1004245c     LIBCMTD:setlocal.obj
 0002:00005468       ??_C@_08LFGE@LC_CTYPE?$AA@ 10042468     LIBCMTD:setlocal.obj
 0002:00005474       ??_C@_0L@CFLC@LC_COLLATE?$AA@ 10042474     LIBCMTD:setlocal.obj
 0002:00005480       ??_C@_06GCPK@LC_ALL?$AA@   10042480     LIBCMTD:setlocal.obj
 0002:00005488       ??_C@_02BGDO@?$DN?$DL?$AA@ 10042488     LIBCMTD:setlocal.obj
 0002:0000548c       ??_C@_0L@MOEE@setlocal?4c?$AA@ 1004248c     LIBCMTD:setlocal.obj
 0002:00005498       ??_C@_01KPOD@?$DN?$AA@     10042498     LIBCMTD:setlocal.obj
 0002:0000549c       ??_C@_03DBOJ@_?4?0?$AA@    1004249c     LIBCMTD:setlocal.obj
 0002:000054a0       ??_C@_01PJCK@?4?$AA@       100424a0     LIBCMTD:setlocal.obj
 0002:000054a4       ??_C@_01NON@_?$AA@         100424a4     LIBCMTD:setlocal.obj
 0002:000054a8       ??_C@_01A@?$AA?$AA@        100424a8     LIBCMTD:a_map.obj
 0002:000054ac       ??_C@_13A@?$AA?$AA?$AA?$AA@ 100424ac     LIBCMTD:a_map.obj
 0002:000054c8       ??_C@_0DP@IHIN@?$CI?$CCinconsistent?5IOB?5fields?$CC?0?5stre@ 100424c8     LIBCMTD:_flsbuf.obj
 0002:00005508       ??_C@_09LGEI@_flsbuf?4c?$AA@ 10042508     LIBCMTD:_flsbuf.obj
 0002:00005514       ___lookuptable             10042514     LIBCMTD:output.obj
 0002:00005570       ??_C@_1O@POHA@?$AA?$CI?$AAn?$AAu?$AAl?$AAl?$AA?$CJ?$AA?$AA@ 10042570     LIBCMTD:output.obj
 0002:00005580       ??_C@_06ONKE@?$CInull?$CJ?$AA@ 10042580     LIBCMTD:output.obj
 0002:00005588       ??_C@_08MIHI@output?4c?$AA@ 10042588     LIBCMTD:output.obj
 0002:00005594       ??_C@_0P@PIHB@ch?5?$CB?$DN?5_T?$CI?8?20?8?$CJ?$AA@ 10042594     LIBCMTD:output.obj
 0002:000055a4       ??_C@_07HPAH@_file?4c?$AA@ 100425a4     LIBCMTD:_file.obj
 0002:000055ac       ??_C@_0L@JIE@_freebuf?4c?$AA@ 100425ac     LIBCMTD:_freebuf.obj
 0002:000055b8       ??_C@_07INLA@_open?4c?$AA@ 100425b8     LIBCMTD:_open.obj
 0002:000055c0       ??_C@_0BB@COCE@filename?5?$CB?$DN?5NULL?$AA@ 100425c0     LIBCMTD:_open.obj
 0002:000055d4       ??_C@_08HJEP@stream?4c?$AA@ 100425d4     LIBCMTD:stream.obj
 0002:000055e0       ??_C@_08CNMA@winsig?4c?$AA@ 100425e0     LIBCMTD:winsig.obj
 0002:000055ec       ??_C@_0BD@NJFP@GetLastActivePopup?$AA@ 100425ec     LIBCMTD:crtmbox.obj
 0002:00005600       ??_C@_0BA@GILI@GetActiveWindow?$AA@ 10042600     LIBCMTD:crtmbox.obj
 0002:00005610       ??_C@_0M@PKCK@MessageBoxA?$AA@ 10042610     LIBCMTD:crtmbox.obj
 0002:0000561c       ??_C@_09GCII@setvbuf?4c?$AA@ 1004261c     LIBCMTD:setvbuf.obj
 0002:00005628       ??_C@_09JNND@_sftbuf?4c?$AA@ 10042628     LIBCMTD:_sftbuf.obj
 0002:00005634       ??_C@_0BH@EOPG@flag?5?$DN?$DN?50?5?$HM?$HM?5flag?5?$DN?$DN?51?$AA@ 10042634     LIBCMTD:_sftbuf.obj
 0002:0000564c       ___dnames                  1004264c     LIBCMTD:timeset.obj
 0002:00005664       ___mnames                  10042664     LIBCMTD:timeset.obj
 0002:0000568c       ??_C@_0L@ENLJ@tidtable?4c?$AA@ 1004268c     LIBCMTD:tidtable.obj
 0002:00005698       ??_C@_07DEKI@tzset?4c?$AA@ 10042698     LIBCMTD:tzset.obj
 0002:000056a0       ??_C@_02JHIA@TZ?$AA@       100426a0     LIBCMTD:tzset.obj
 0002:000056a4       ??_C@_08LLGM@gmtime?4c?$AA@ 100426a4     LIBCMTD:gmtime.obj
 0002:000056b0       ??_C@_08KFDJ@ioinit?4c?$AA@ 100426b0     LIBCMTD:ioinit.obj
 0002:000056bc       ??_C@_09IGKD@stdenvp?4c?$AA@ 100426bc     LIBCMTD:stdenvp.obj
 0002:000056c8       ??_C@_09MPMN@stdargv?4c?$AA@ 100426c8     LIBCMTD:stdargv.obj
 0002:000056d4       ??_C@_07BNNE@a_env?4c?$AA@ 100426d4     LIBCMTD:a_env.obj
 0002:000056dc       ??_C@_0P@GGKG@runtime?5error?5?$AA@ 100426dc     LIBCMTD:crt0msg.obj
 0002:000056ec       ??_C@_02PIMC@?$AN?6?$AA@   100426ec     LIBCMTD:crt0msg.obj
 0002:000056f0       ??_C@_0O@DELO@TLOSS?5error?$AN?6?$AA@ 100426f0     LIBCMTD:crt0msg.obj
 0002:00005700       ??_C@_0N@OMLL@SING?5error?$AN?6?$AA@ 10042700     LIBCMTD:crt0msg.obj
 0002:00005710       ??_C@_0P@OJAK@DOMAIN?5error?$AN?6?$AA@ 10042710     LIBCMTD:crt0msg.obj
 0002:00005720       ??_C@_0CF@EANP@R6028?$AN?6?9?5unable?5to?5initialize?5he@ 10042720     LIBCMTD:crt0msg.obj
 0002:00005748       ??_C@_0DF@ECGN@R6027?$AN?6?9?5not?5enough?5space?5for?5lo@ 10042748     LIBCMTD:crt0msg.obj
 0002:00005780       ??_C@_0DF@FKAC@R6026?$AN?6?9?5not?5enough?5space?5for?5st@ 10042780     LIBCMTD:crt0msg.obj
 0002:000057b8       ??_C@_0CG@DPMN@R6025?$AN?6?9?5pure?5virtual?5function?5c@ 100427b8     LIBCMTD:crt0msg.obj
 0002:000057e0       ??_C@_0DF@CKIP@R6024?$AN?6?9?5not?5enough?5space?5for?5_o@ 100427e0     LIBCMTD:crt0msg.obj
 0002:00005818       ??_C@_0CJ@GGOE@R6019?$AN?6?9?5unable?5to?5open?5console?5@ 10042818     LIBCMTD:crt0msg.obj
 0002:00005844       ??_C@_0CB@LBOB@R6018?$AN?6?9?5unexpected?5heap?5error?$AN?6@ 10042844     LIBCMTD:crt0msg.obj
 0002:00005868       ??_C@_0CN@FPEG@R6017?$AN?6?9?5unexpected?5multithread?5@ 10042868     LIBCMTD:crt0msg.obj
 0002:00005898       ??_C@_0CM@OBIC@R6016?$AN?6?9?5not?5enough?5space?5for?5th@ 10042898     LIBCMTD:crt0msg.obj
 0002:000058c4       ??_C@_0CB@HPAL@?$AN?6abnormal?5program?5termination?$AN?6@ 100428c4     LIBCMTD:crt0msg.obj
 0002:000058e8       ??_C@_0CM@JOOB@R6009?$AN?6?9?5not?5enough?5space?5for?5en@ 100428e8     LIBCMTD:crt0msg.obj
 0002:00005914       ??_C@_0CK@OIBL@R6008?$AN?6?9?5not?5enough?5space?5for?5ar@ 10042914     LIBCMTD:crt0msg.obj
 0002:00005940       ??_C@_0CF@LKPB@R6002?$AN?6?9?5floating?5point?5not?5load@ 10042940     LIBCMTD:crt0msg.obj
 0002:00005968       ??_C@_0BK@DEOK@Runtime?5Error?$CB?6?6Program?3?5?$AA@ 10042968     LIBCMTD:crt0msg.obj
 0002:00005994       ??_C@_0L@EEGJ@inittime?4c?$AA@ 10042994     LIBCMTD:inittime.obj
 0002:000059a0       ??_C@_09IMJJ@initnum?4c?$AA@ 100429a0     LIBCMTD:initnum.obj
 0002:000059ac       ??_C@_09KPNI@initmon?4c?$AA@ 100429ac     LIBCMTD:initmon.obj
 0002:000059b8       ??_C@_0L@COIL@initctyp?4c?$AA@ 100429b8     LIBCMTD:initctyp.obj
 0002:000059c4       ??_C@_08OBJD@Paraguay?$AA@ 100429c4     LIBCMTD:getqloc.obj
 0002:000059d0       ??_C@_07GLKH@Uruguay?$AA@  100429d0     LIBCMTD:getqloc.obj
 0002:000059d8       ??_C@_05FPFC@Chile?$AA@    100429d8     LIBCMTD:getqloc.obj
 0002:000059e0       ??_C@_07IIGF@Ecuador?$AA@  100429e0     LIBCMTD:getqloc.obj
 0002:000059e8       ??_C@_09PKAL@Argentina?$AA@ 100429e8     LIBCMTD:getqloc.obj
 0002:000059f4       ??_C@_04LKAH@Peru?$AA@     100429f4     LIBCMTD:getqloc.obj
 0002:000059fc       ??_C@_08NEEM@Colombia?$AA@ 100429fc     LIBCMTD:getqloc.obj
 0002:00005a08       ??_C@_09ODEB@Venezuela?$AA@ 10042a08     LIBCMTD:getqloc.obj
 0002:00005a14       ??_C@_0BD@CLEL@Dominican?5Republic?$AA@ 10042a14     LIBCMTD:getqloc.obj
 0002:00005a28       ??_C@_0N@MDGL@South?5Africa?$AA@ 10042a28     LIBCMTD:getqloc.obj
 0002:00005a38       ??_C@_06NKBG@Panama?$AA@   10042a38     LIBCMTD:getqloc.obj
 0002:00005a40       ??_C@_0L@BMHO@Luxembourg?$AA@ 10042a40     LIBCMTD:getqloc.obj
 0002:00005a4c       ??_C@_0L@IMDK@Costa?5Rica?$AA@ 10042a4c     LIBCMTD:getqloc.obj
 0002:00005a58       ??_C@_0M@BLJF@Switzerland?$AA@ 10042a58     LIBCMTD:getqloc.obj
 0002:00005a64       ??_C@_09KBOL@Guatemala?$AA@ 10042a64     LIBCMTD:getqloc.obj
 0002:00005a70       ??_C@_06JNAK@Canada?$AA@   10042a70     LIBCMTD:getqloc.obj
 0002:00005a78       ??_C@_0BG@OLLP@Spanish?5?9?5Modern?5Sort?$AA@ 10042a78     LIBCMTD:getqloc.obj
 0002:00005a90       ??_C@_09IDKE@Australia?$AA@ 10042a90     LIBCMTD:getqloc.obj
 0002:00005a9c       ??_C@_07JJJJ@English?$AA@  10042a9c     LIBCMTD:getqloc.obj
 0002:00005aa4       ??_C@_07NMDO@Austria?$AA@  10042aa4     LIBCMTD:getqloc.obj
 0002:00005aac       ??_C@_06DEFE@German?$AA@   10042aac     LIBCMTD:getqloc.obj
 0002:00005ab4       ??_C@_07JAIH@Belgium?$AA@  10042ab4     LIBCMTD:getqloc.obj
 0002:00005abc       ??_C@_06BNLJ@Mexico?$AA@   10042abc     LIBCMTD:getqloc.obj
 0002:00005ac4       ??_C@_07JHAG@Spanish?$AA@  10042ac4     LIBCMTD:getqloc.obj
 0002:00005acc       ??_C@_06DADE@Basque?$AA@   10042acc     LIBCMTD:getqloc.obj
 0002:00005ad4       ??_C@_06ENFP@Sweden?$AA@   10042ad4     LIBCMTD:getqloc.obj
 0002:00005adc       ??_C@_07JPMH@Swedish?$AA@  10042adc     LIBCMTD:getqloc.obj
 0002:00005ae4       ??_C@_07IEKF@Iceland?$AA@  10042ae4     LIBCMTD:getqloc.obj
 0002:00005aec       ??_C@_09KNEA@Icelandic?$AA@ 10042aec     LIBCMTD:getqloc.obj
 0002:00005af8       ??_C@_06IJOD@France?$AA@   10042af8     LIBCMTD:getqloc.obj
 0002:00005b00       ??_C@_06EINI@French?$AA@   10042b00     LIBCMTD:getqloc.obj
 0002:00005b08       ??_C@_07FOOE@Finland?$AA@  10042b08     LIBCMTD:getqloc.obj
 0002:00005b10       ??_C@_07OJOM@Finnish?$AA@  10042b10     LIBCMTD:getqloc.obj
 0002:00005b18       ??_C@_05FFAC@Spain?$AA@    10042b18     LIBCMTD:getqloc.obj
 0002:00005b20       ??_C@_0BL@BIHM@Spanish?5?9?5Traditional?5Sort?$AA@ 10042b20     LIBCMTD:getqloc.obj
 0002:00005b3c       ??_C@_0O@GLHB@united?9states?$AA@ 10042b3c     LIBCMTD:getqloc.obj
 0002:00005b4c       ??_C@_0P@IIKK@united?9kingdom?$AA@ 10042b4c     LIBCMTD:getqloc.obj
 0002:00005b5c       ??_C@_0BC@FHBO@trinidad?5?$CG?5tobago?$AA@ 10042b5c     LIBCMTD:getqloc.obj
 0002:00005b70       ??_C@_0M@BDFM@south?9korea?$AA@ 10042b70     LIBCMTD:getqloc.obj
 0002:00005b7c       ??_C@_0N@CKFA@south?9africa?$AA@ 10042b7c     LIBCMTD:getqloc.obj
 0002:00005b8c       ??_C@_0M@HNHN@south?5korea?$AA@ 10042b8c     LIBCMTD:getqloc.obj
 0002:00005b98       ??_C@_0N@MKDO@south?5africa?$AA@ 10042b98     LIBCMTD:getqloc.obj
 0002:00005ba8       ??_C@_06KFFJ@slovak?$AA@   10042ba8     LIBCMTD:getqloc.obj
 0002:00005bb0       ??_C@_0M@NMAC@puerto?9rico?$AA@ 10042bb0     LIBCMTD:getqloc.obj
 0002:00005bbc       ??_C@_08EJOH@pr?9china?$AA@ 10042bbc     LIBCMTD:getqloc.obj
 0002:00005bc8       ??_C@_08CHMG@pr?5china?$AA@ 10042bc8     LIBCMTD:getqloc.obj
 0002:00005bd4       ??_C@_02OCJK@nz?$AA@       10042bd4     LIBCMTD:getqloc.obj
 0002:00005bd8       ??_C@_0M@MMKA@new?9zealand?$AA@ 10042bd8     LIBCMTD:getqloc.obj
 0002:00005be4       ??_C@_09MGEH@hong?9kong?$AA@ 10042be4     LIBCMTD:getqloc.obj
 0002:00005bf0       ??_C@_07CCAK@holland?$AA@  10042bf0     LIBCMTD:getqloc.obj
 0002:00005bf8       ??_C@_0O@MEPL@great?5britain?$AA@ 10042bf8     LIBCMTD:getqloc.obj
 0002:00005c08       ??_C@_07LGIB@england?$AA@  10042c08     LIBCMTD:getqloc.obj
 0002:00005c10       ??_C@_05BMOA@czech?$AA@    10042c10     LIBCMTD:getqloc.obj
 0002:00005c18       ??_C@_05NMPB@china?$AA@    10042c18     LIBCMTD:getqloc.obj
 0002:00005c20       ??_C@_07GN@britain?$AA@    10042c20     LIBCMTD:getqloc.obj
 0002:00005c28       ??_C@_07DLAK@america?$AA@  10042c28     LIBCMTD:getqloc.obj
 0002:00005c30       ??_C@_03IPEP@usa?$AA@      10042c30     LIBCMTD:getqloc.obj
 0002:00005c34       ??_C@_02PILH@us?$AA@       10042c34     LIBCMTD:getqloc.obj
 0002:00005c38       ??_C@_02FHP@uk?$AA@        10042c38     LIBCMTD:getqloc.obj
 0002:00005c3c       ??_C@_05DEAI@swiss?$AA@    10042c3c     LIBCMTD:getqloc.obj
 0002:00005c44       ??_C@_0BA@LIAF@swedish?9finland?$AA@ 10042c44     LIBCMTD:getqloc.obj
 0002:00005c54       ??_C@_0BC@FMEG@spanish?9venezuela?$AA@ 10042c54     LIBCMTD:getqloc.obj
 0002:00005c68       ??_C@_0BA@BNMG@spanish?9uruguay?$AA@ 10042c68     LIBCMTD:getqloc.obj
 0002:00005c78       ??_C@_0BE@BKDJ@spanish?9puerto?5rico?$AA@ 10042c78     LIBCMTD:getqloc.obj
 0002:00005c8c       ??_C@_0N@JIBL@spanish?9peru?$AA@ 10042c8c     LIBCMTD:getqloc.obj
 0002:00005c9c       ??_C@_0BB@OGOF@spanish?9paraguay?$AA@ 10042c9c     LIBCMTD:getqloc.obj
 0002:00005cb0       ??_C@_0P@LLFA@spanish?9panama?$AA@ 10042cb0     LIBCMTD:getqloc.obj
 0002:00005cc0       ??_C@_0BC@BBJM@spanish?9nicaragua?$AA@ 10042cc0     LIBCMTD:getqloc.obj
 0002:00005cd4       ??_C@_0P@NJBN@spanish?9modern?$AA@ 10042cd4     LIBCMTD:getqloc.obj
 0002:00005ce4       ??_C@_0BA@NHDN@spanish?9mexican?$AA@ 10042ce4     LIBCMTD:getqloc.obj
 0002:00005cf4       ??_C@_0BB@JHOJ@spanish?9honduras?$AA@ 10042cf4     LIBCMTD:getqloc.obj
 0002:00005d08       ??_C@_0BC@BOOM@spanish?9guatemala?$AA@ 10042d08     LIBCMTD:getqloc.obj
 0002:00005d1c       ??_C@_0BE@EELI@spanish?9el?5salvador?$AA@ 10042d1c     LIBCMTD:getqloc.obj
 0002:00005d30       ??_C@_0BA@POAE@spanish?9ecuador?$AA@ 10042d30     LIBCMTD:getqloc.obj
 0002:00005d40       ??_C@_0BL@LDKN@spanish?9dominican?5republic?$AA@ 10042d40     LIBCMTD:getqloc.obj
 0002:00005d5c       ??_C@_0BD@HPMH@spanish?9costa?5rica?$AA@ 10042d5c     LIBCMTD:getqloc.obj
 0002:00005d70       ??_C@_0BB@NDDK@spanish?9colombia?$AA@ 10042d70     LIBCMTD:getqloc.obj
 0002:00005d84       ??_C@_0O@BJHA@spanish?9chile?$AA@ 10042d84     LIBCMTD:getqloc.obj
 0002:00005d94       ??_C@_0BA@OBNG@spanish?9bolivia?$AA@ 10042d94     LIBCMTD:getqloc.obj
 0002:00005da4       ??_C@_0BC@EFAM@spanish?9argentina?$AA@ 10042da4     LIBCMTD:getqloc.obj
 0002:00005db8       ??_C@_0BF@KMMM@portuguese?9brazilian?$AA@ 10042db8     LIBCMTD:getqloc.obj
 0002:00005dd0       ??_C@_0BC@BAAE@norwegian?9nynorsk?$AA@ 10042dd0     LIBCMTD:getqloc.obj
 0002:00005de4       ??_C@_0BB@PBHK@norwegian?9bokmal?$AA@ 10042de4     LIBCMTD:getqloc.obj
 0002:00005df8       ??_C@_09EHKL@norwegian?$AA@ 10042df8     LIBCMTD:getqloc.obj
 0002:00005e04       ??_C@_0O@BEAN@italian?9swiss?$AA@ 10042e04     LIBCMTD:getqloc.obj
 0002:00005e14       ??_C@_0O@OIFK@irish?9english?$AA@ 10042e14     LIBCMTD:getqloc.obj
 0002:00005e24       ??_C@_0N@NBPL@german?9swiss?$AA@ 10042e24     LIBCMTD:getqloc.obj
 0002:00005e34       ??_C@_0BC@ICFJ@german?9luxembourg?$AA@ 10042e34     LIBCMTD:getqloc.obj
 0002:00005e48       ??_C@_0BE@GGPC@german?9lichtenstein?$AA@ 10042e48     LIBCMTD:getqloc.obj
 0002:00005e5c       ??_C@_0BA@MKDC@german?9austrian?$AA@ 10042e5c     LIBCMTD:getqloc.obj
 0002:00005e6c       ??_C@_0N@ODNB@french?9swiss?$AA@ 10042e6c     LIBCMTD:getqloc.obj
 0002:00005e7c       ??_C@_0BC@MGCM@french?9luxembourg?$AA@ 10042e7c     LIBCMTD:getqloc.obj
 0002:00005e90       ??_C@_0BA@NABK@french?9canadian?$AA@ 10042e90     LIBCMTD:getqloc.obj
 0002:00005ea0       ??_C@_0P@CJNO@french?9belgian?$AA@ 10042ea0     LIBCMTD:getqloc.obj
 0002:00005eb0       ??_C@_0M@LJOL@english?9usa?$AA@ 10042eb0     LIBCMTD:getqloc.obj
 0002:00005ebc       ??_C@_0L@FMNC@english?9us?$AA@ 10042ebc     LIBCMTD:getqloc.obj
 0002:00005ec8       ??_C@_0L@KBBK@english?9uk?$AA@ 10042ec8     LIBCMTD:getqloc.obj
 0002:00005ed4       ??_C@_0BK@NDDE@english?9trinidad?5y?5tobago?$AA@ 10042ed4     LIBCMTD:getqloc.obj
 0002:00005ef0       ??_C@_0BF@LKML@english?9south?5africa?$AA@ 10042ef0     LIBCMTD:getqloc.obj
 0002:00005f08       ??_C@_0L@EGPP@english?9nz?$AA@ 10042f08     LIBCMTD:getqloc.obj
 0002:00005f14       ??_C@_0BA@HLH@english?9jamaica?$AA@ 10042f14     LIBCMTD:getqloc.obj
 0002:00005f24       ??_C@_0M@PMJI@english?9ire?$AA@ 10042f24     LIBCMTD:getqloc.obj
 0002:00005f30       ??_C@_0BC@HINE@english?9caribbean?$AA@ 10042f30     LIBCMTD:getqloc.obj
 0002:00005f44       ??_C@_0M@DCFH@english?9can?$AA@ 10042f44     LIBCMTD:getqloc.obj
 0002:00005f50       ??_C@_0P@DGHK@english?9belize?$AA@ 10042f50     LIBCMTD:getqloc.obj
 0002:00005f60       ??_C@_0M@FLHK@english?9aus?$AA@ 10042f60     LIBCMTD:getqloc.obj
 0002:00005f6c       ??_C@_0BB@HNCK@english?9american?$AA@ 10042f6c     LIBCMTD:getqloc.obj
 0002:00005f80       ??_C@_0O@PAMI@dutch?9belgian?$AA@ 10042f80     LIBCMTD:getqloc.obj
 0002:00005f90       ??_C@_0BE@FPEJ@chinese?9traditional?$AA@ 10042f90     LIBCMTD:getqloc.obj
 0002:00005fa4       ??_C@_0BC@CHFL@chinese?9singapore?$AA@ 10042fa4     LIBCMTD:getqloc.obj
 0002:00005fb8       ??_C@_0BD@DCMH@chinese?9simplified?$AA@ 10042fb8     LIBCMTD:getqloc.obj
 0002:00005fcc       ??_C@_0BB@JMOE@chinese?9hongkong?$AA@ 10042fcc     LIBCMTD:getqloc.obj
 0002:00005fe0       ??_C@_07NGFN@chinese?$AA@  10042fe0     LIBCMTD:getqloc.obj
 0002:00005fe8       ??_C@_03PCOI@chi?$AA@      10042fe8     LIBCMTD:getqloc.obj
 0002:00005fec       ??_C@_03FIHP@chh?$AA@      10042fec     LIBCMTD:getqloc.obj
 0002:00005ff0       ??_C@_08HFLO@canadian?$AA@ 10042ff0     LIBCMTD:getqloc.obj
 0002:00005ffc       ??_C@_07INIJ@belgian?$AA@  10042ffc     LIBCMTD:getqloc.obj
 0002:00006004       ??_C@_0L@LCCA@australian?$AA@ 10043004     LIBCMTD:getqloc.obj
 0002:00006010       ??_C@_0BB@BJIO@american?9english?$AA@ 10043010     LIBCMTD:getqloc.obj
 0002:00006024       ??_C@_0BB@DAGO@american?5english?$AA@ 10043024     LIBCMTD:getqloc.obj
 0002:00006038       ??_C@_08HENB@american?$AA@ 10043038     LIBCMTD:getqloc.obj
 0002:00006044       ??_C@_03DGJE@OCP?$AA@      10043044     LIBCMTD:getqloc.obj
 0002:00006048       ??_C@_03EKFG@ACP?$AA@      10043048     LIBCMTD:getqloc.obj
 0002:0000604c       ??_C@_09EMDO@_getbuf?4c?$AA@ 1004304c     LIBCMTD:_getbuf.obj
 0002:00006058       ??_C@_09LNLM@osfinfo?4c?$AA@ 10043058     LIBCMTD:osfinfo.obj
 0002:00006064       ??_C@_06PAPI@1?$CDQNAN?$AA@ 10043064     LIBCMTD:x10fout.obj
 0002:0000606c       ??_C@_05BGNL@1?$CDINF?$AA@ 1004306c     LIBCMTD:x10fout.obj
 0002:00006074       ??_C@_05EDPF@1?$CDIND?$AA@ 10043074     LIBCMTD:x10fout.obj
 0002:0000607c       ??_C@_06LKFM@1?$CDSNAN?$AA@ 1004307c     LIBCMTD:x10fout.obj
 0002:00006084       ??_C@_07CJME@H?3mm?3ss?$AA@ 10043084     LIBCMTD:strftime.obj
 0002:0000608c       ??_C@_0BE@MHI@dddd?0?5MMMM?5dd?0?5yyyy?$AA@ 1004308c     LIBCMTD:strftime.obj
 0002:000060a0       ??_C@_06HCAD@M?1d?1yy?$AA@ 100430a0     LIBCMTD:strftime.obj
 0002:000060a8       ??_C@_02DBLP@PM?$AA@       100430a8     LIBCMTD:strftime.obj
 0002:000060ac       ??_C@_02ENLM@AM?$AA@       100430ac     LIBCMTD:strftime.obj
 0002:000060b0       ??_C@_08LIDF@December?$AA@ 100430b0     LIBCMTD:strftime.obj
 0002:000060bc       ??_C@_08NJLI@November?$AA@ 100430bc     LIBCMTD:strftime.obj
 0002:000060c8       ??_C@_07IAMM@October?$AA@  100430c8     LIBCMTD:strftime.obj
 0002:000060d0       ??_C@_09MKGD@September?$AA@ 100430d0     LIBCMTD:strftime.obj
 0002:000060dc       ??_C@_06PADP@August?$AA@   100430dc     LIBCMTD:strftime.obj
 0002:000060e4       ??_C@_04PIJO@July?$AA@     100430e4     LIBCMTD:strftime.obj
 0002:000060ec       ??_C@_04ICFP@June?$AA@     100430ec     LIBCMTD:strftime.obj
 0002:000060f4       ??_C@_05JFGC@April?$AA@    100430f4     LIBCMTD:strftime.obj
 0002:000060fc       ??_C@_05FGPD@March?$AA@    100430fc     LIBCMTD:strftime.obj
 0002:00006104       ??_C@_08PGBA@February?$AA@ 10043104     LIBCMTD:strftime.obj
 0002:00006110       ??_C@_07BPKJ@January?$AA@  10043110     LIBCMTD:strftime.obj
 0002:00006118       ??_C@_03PGJO@Dec?$AA@      10043118     LIBCMTD:strftime.obj
 0002:0000611c       ??_C@_03PDLM@Nov?$AA@      1004311c     LIBCMTD:strftime.obj
 0002:00006120       ??_C@_03BLHK@Oct?$AA@      10043120     LIBCMTD:strftime.obj
 0002:00006124       ??_C@_03DPFM@Sep?$AA@      10043124     LIBCMTD:strftime.obj
 0002:00006128       ??_C@_03CMCH@Aug?$AA@      10043128     LIBCMTD:strftime.obj
 0002:0000612c       ??_C@_03OBKI@Jul?$AA@      1004312c     LIBCMTD:strftime.obj
 0002:00006130       ??_C@_03LEIG@Jun?$AA@      10043130     LIBCMTD:strftime.obj
 0002:00006134       ??_C@_03MGHB@May?$AA@      10043134     LIBCMTD:strftime.obj
 0002:00006138       ??_C@_03MJJM@Apr?$AA@      10043138     LIBCMTD:strftime.obj
 0002:0000613c       ??_C@_03GNHA@Mar?$AA@      1004313c     LIBCMTD:strftime.obj
 0002:00006140       ??_C@_03PICE@Feb?$AA@      10043140     LIBCMTD:strftime.obj
 0002:00006144       ??_C@_03IEIF@Jan?$AA@      10043144     LIBCMTD:strftime.obj
 0002:00006148       ??_C@_08FAKH@Saturday?$AA@ 10043148     LIBCMTD:strftime.obj
 0002:00006154       ??_C@_06ONCK@Friday?$AA@   10043154     LIBCMTD:strftime.obj
 0002:0000615c       ??_C@_08CCFO@Thursday?$AA@ 1004315c     LIBCMTD:strftime.obj
 0002:00006168       ??_C@_09PBIN@Wednesday?$AA@ 10043168     LIBCMTD:strftime.obj
 0002:00006174       ??_C@_07BMBC@Tuesday?$AA@  10043174     LIBCMTD:strftime.obj
 0002:0000617c       ??_C@_06CHLK@Monday?$AA@   1004317c     LIBCMTD:strftime.obj
 0002:00006184       ??_C@_06OOEM@Sunday?$AA@   10043184     LIBCMTD:strftime.obj
 0002:0000618c       ??_C@_03MPKK@Sat?$AA@      1004318c     LIBCMTD:strftime.obj
 0002:00006190       ??_C@_03FINJ@Fri?$AA@      10043190     LIBCMTD:strftime.obj
 0002:00006194       ??_C@_03HIKC@Thu?$AA@      10043194     LIBCMTD:strftime.obj
 0002:00006198       ??_C@_03HECK@Wed?$AA@      10043198     LIBCMTD:strftime.obj
 0002:0000619c       ??_C@_03ECCP@Tue?$AA@      1004319c     LIBCMTD:strftime.obj
 0002:000061a0       ??_C@_03PIEP@Mon?$AA@      100431a0     LIBCMTD:strftime.obj
 0002:000061a4       ??_C@_03FHEP@Sun?$AA@      100431a4     LIBCMTD:strftime.obj
 0002:000061a8       ??_C@_03MKGK@a?1p?$AA@     100431a8     LIBCMTD:strftime.obj
 0002:000061ac       ??_C@_05BDJK@am?1pm?$AA@   100431ac     LIBCMTD:strftime.obj
 0002:000061b4       ??_C@_0L@HKCB@inithelp?4c?$AA@ 100431b4     LIBCMTD:inithelp.obj
 0002:000061d8       ??_C@_08EIOK@chsize?4c?$AA@ 100431d8     LIBCMTD:chsize.obj
 0002:000061e4       ??_C@_09NPGF@size?5?$DO?$DN?50?$AA@ 100431e4     LIBCMTD:chsize.obj
 0002:000061f0       ??_C@_0L@EJNO@wtombenv?4c?$AA@ 100431f0     LIBCMTD:wtombenv.obj
 0002:0000621c       ??_C@_07FOIK@a_cmp?4c?$AA@ 1004321c     LIBCMTD:a_cmp.obj
 0002:00006224       ??_C@_0DN@PPKB@cchCount1?$DN?$DN0?5?$CG?$CG?5cchCount2?$DN?$DN1?5?$HM?$HM?5@ 10043224     LIBCMTD:a_cmp.obj
 0002:00006280       ??_C@_08FEIK@setenv?4c?$AA@ 10043280     LIBCMTD:setenv.obj
 0002:0000628c       ??_C@_08FNDD@strlwr?4c?$AA@ 1004328c     LIBCMTD:strlwr.obj
 0002:00006298       ??_C@_08GFKD@putenv?4c?$AA@ 10043298     LIBCMTD:putenv.obj
 0002:000062a4       ??_C@_0L@KCLJ@mbtowenv?4c?$AA@ 100432a4     LIBCMTD:mbtowenv.obj
 0002:000062e0       __IMPORT_DESCRIPTOR_KERNEL32 100432e0     kernel32:KERNEL32.dll
 0002:000062f4       __IMPORT_DESCRIPTOR_USER32 100432f4     user32:USER32.dll
 0002:00006308       __IMPORT_DESCRIPTOR_GDI32  10043308     gdi32:GDI32.dll
 0002:0000631c       __IMPORT_DESCRIPTOR_WINMM  1004331c     winmm:WINMM.dll
 0002:00006330       __NULL_IMPORT_DESCRIPTOR   10043330     kernel32:KERNEL32.dll
 0003:00000000       ___xc_a                    10044000     LIBCMTD:crt0init.obj
 0003:00000004       ___xc_z                    10044004     LIBCMTD:crt0init.obj
 0003:00000008       ___xi_a                    10044008     LIBCMTD:crt0init.obj
 0003:00000014       ___xi_z                    10044014     LIBCMTD:crt0init.obj
 0003:00000018       ___xp_a                    10044018     LIBCMTD:crt0init.obj
 0003:00000020       ___xp_z                    10044020     LIBCMTD:crt0init.obj
 0003:00000024       ___xt_a                    10044024     LIBCMTD:crt0init.obj
 0003:00000028       ___xt_z                    10044028     LIBCMTD:crt0init.obj
 0003:00000030       _gl_solid_format           10044030     gl_image.obj
 0003:00000034       _gl_alpha_format           10044034     gl_image.obj
 0003:00000038       _gl_tex_solid_format       10044038     gl_image.obj
 0003:0000003c       _gl_tex_alpha_format       1004403c     gl_image.obj
 0003:00000040       _gl_filter_min             10044040     gl_image.obj
 0003:00000044       _gl_filter_max             10044044     gl_image.obj
 0003:00000050       _modes                     10044050     gl_image.obj
 0003:00000098       _gl_alpha_modes            10044098     gl_image.obj
 0003:000000c8       _gl_solid_modes            100440c8     gl_image.obj
 0003:000000f8       _r_avertexnormals          100440f8     gl_mesh.obj
 0003:00000890       _r_avertexnormal_dots      10044890     gl_mesh.obj
 0003:00004890       _shadedots                 10048890     gl_mesh.obj
 0003:00004894       _dottexture                10048894     gl_rmisc.obj
 0003:000048d4       _r_turbsin                 100488d4     gl_warp.obj
 0003:00004cd4       _skyclip                   10048cd4     gl_warp.obj
 0003:00004d1c       _st_to_vec                 10048d1c     gl_warp.obj
 0003:00004d64       _vec_to_st                 10048d64     gl_warp.obj
 0003:00004dac       _skytexorder               10048dac     gl_warp.obj
 0003:00004dc4       _suf                       10048dc4     gl_warp.obj
 0003:00004ddc       ?__LINE__Var@?1??GLimp_EndFrame@@9@9 10048ddc     glw_imp.obj
 0003:00004de0       __fltused                  10048de0     LIBCMTD:fpinit.obj
 0003:00004de4       __ldused                   10048de4     LIBCMTD:fpinit.obj
 0003:00004de8       __FPinit                   10048de8     LIBCMTD:fpinit.obj
 0003:00004dec       __FPmtinit                 10048dec     LIBCMTD:fpinit.obj
 0003:00004df0       __FPmtterm                 10048df0     LIBCMTD:fpinit.obj
 0003:00004e00       __crtDbgFlag               10048e00     LIBCMTD:dbgheap.obj
 0003:00004e08       __crtBreakAlloc            10048e08     LIBCMTD:dbgheap.obj
 0003:00004e30       __half                     10048e30     LIBCMTD:pow.obj
 0003:00004ec0       __aexit_rtn                10048ec0     LIBCMTD:dllcrt0.obj
 0003:00004ec4       __cfltcvt_tab              10048ec4     LIBCMTD:cmiscdat.obj
 0003:00004edc       __locktable                10048edc     LIBCMTD:mlock.obj
 0003:00004f9c       __pfnAllocHook             10048f9c     LIBCMTD:dbghook.obj
 0003:00004fa0       __crtAssertBusy            10048fa0     LIBCMTD:dbgrpt.obj
 0003:00004fa4       __CrtDbgMode               10048fa4     LIBCMTD:dbgrpt.obj
 0003:00004fb0       __CrtDbgFile               10048fb0     LIBCMTD:dbgrpt.obj
 0003:00004fc8       __amblksiz                 10048fc8     LIBCMTD:heapinit.obj
 0003:00004fcc       ___sbh_threshold           10048fcc     LIBCMTD:sbheap.obj
 0003:00004fd0       __pctype                   10048fd0     LIBCMTD:ctype.obj
 0003:00004fd4       __pwctype                  10048fd4     LIBCMTD:ctype.obj
 0003:00004fd8       __ctype                    10048fd8     LIBCMTD:ctype.obj
 0003:000051dc       ___mb_cur_max              100491dc     LIBCMTD:nlsdata1.obj
 0003:000051e0       ___decimal_point           100491e0     LIBCMTD:nlsdata1.obj
 0003:000051e4       ___decimal_point_length    100491e4     LIBCMTD:nlsdata1.obj
 0003:000051f0       __infinity                 100491f0     LIBCMTD:87tran.obj
 0003:000051fa       __minfinity                100491fa     LIBCMTD:87tran.obj
 0003:00005204       __logemax                  10049204     LIBCMTD:87tran.obj
 0003:0000522a       __OP_EXPjmptab             1004922a     LIBCMTD:87tran.obj
 0003:00005250       __indefinite               10049250     LIBCMTD:87disp.obj
 0003:0000525a       __piby2                    1004925a     LIBCMTD:87disp.obj
 0003:00005358       __d_inf                    10049358     LIBCMTD:util.obj
 0003:00005360       __d_ind                    10049360     LIBCMTD:util.obj
 0003:00005368       __d_max                    10049368     LIBCMTD:util.obj
 0003:00005370       __d_min                    10049370     LIBCMTD:util.obj
 0003:00005378       __d_mzero                  10049378     LIBCMTD:util.obj
 0003:000054b0       ___lc_category             100494b0     LIBCMTD:setlocal.obj
 0003:00005500       ___nullstring              10049500     LIBCMTD:output.obj
 0003:00005504       ___wnullstring             10049504     LIBCMTD:output.obj
 0003:00005508       __iob                      10049508     LIBCMTD:_file.obj
 0003:000058f8       __timezone                 100498f8     LIBCMTD:timeset.obj
 0003:000058fc       __daylight                 100498fc     LIBCMTD:timeset.obj
 0003:00005900       __dstbias                  10049900     LIBCMTD:timeset.obj
 0003:00005984       __tzname                   10049984     LIBCMTD:timeset.obj
 0003:0000598c       ___tlsindex                1004998c     LIBCMTD:tidtable.obj
 0003:000059b0       ___badioinfo               100499b0     LIBCMTD:ioinit.obj
 0003:00005c00       __matherr_flag             10049c00     LIBCMTD:matherr.obj
 0003:00005c10       ___rgLocInfo               10049c10     LIBCMTD:getqloc.obj
 0003:000060b4       ___rglangidNotDefault      1004a0b4     LIBCMTD:getqloc.obj
 0003:000060c8       ___rg_country              1004a0c8     LIBCMTD:getqloc.obj
 0003:00006180       ___rg_language             1004a180     LIBCMTD:getqloc.obj
 0003:00006388       __NLG_Destination          1004a388     LIBCMTD:exsup.obj
 0003:000063a0       __XcptActTab               1004a3a0     LIBCMTD:winxfltr.obj
 0003:00006418       __First_FPE_Indx           1004a418     LIBCMTD:winxfltr.obj
 0003:0000641c       __Num_FPE                  1004a41c     LIBCMTD:winxfltr.obj
 0003:00006420       __XcptActTabSize           1004a420     LIBCMTD:winxfltr.obj
 0003:00006424       __XcptActTabCount          1004a424     LIBCMTD:winxfltr.obj
 0003:00006428       __lpdays                   1004a428     LIBCMTD:days.obj
 0003:0000645c       __days                     1004a45c     LIBCMTD:days.obj
 0003:00006588       ___lc_time_curr            1004a588     LIBCMTD:strftime.obj
 0003:00006590       ___lc_time_c               1004a590     LIBCMTD:strftime.obj
 0003:00006640       ___lconv_static_decimal    1004a640     LIBCMTD:lconv.obj
 0003:00006648       ___lconv_c                 1004a648     LIBCMTD:lconv.obj
 0003:00006678       ___lconv                   1004a678     LIBCMTD:lconv.obj
 0003:00006680       __pow10pos                 1004a680     LIBCMTD:constpow.obj
 0003:000067e0       __pow10neg                 1004a7e0     LIBCMTD:constpow.obj
 0003:00025ddc       _vec3_origin               10069ddc     q_shared.obj
 0003:00026310       ___fastflag                1006a310     LIBCMTD:fpinit.obj
 0003:00026314       __adjust_fdiv              1006a314     LIBCMTD:fpinit.obj
 0003:00026364       __aenvptr                  1006a364     LIBCMTD:dllcrt0.obj
 0003:00026368       __wenvptr                  1006a368     LIBCMTD:dllcrt0.obj
 0003:0002636c       ___error_mode              1006a36c     LIBCMTD:dllcrt0.obj
 0003:00026370       ___app_type                1006a370     LIBCMTD:dllcrt0.obj
 0003:00026374       __newmode                  1006a374     LIBCMTD:_newmode.obj
 0003:00026378       ?_pnhHeap@@3P6AHI@ZA       1006a378     LIBCMTD:handler.obj
 0003:000263e4       __umaskval                 1006a3e4     LIBCMTD:crt0dat.obj
 0003:000263e8       __osver                    1006a3e8     LIBCMTD:crt0dat.obj
 0003:000263ec       __winver                   1006a3ec     LIBCMTD:crt0dat.obj
 0003:000263f0       __winmajor                 1006a3f0     LIBCMTD:crt0dat.obj
 0003:000263f4       __winminor                 1006a3f4     LIBCMTD:crt0dat.obj
 0003:000263f8       ___argc                    1006a3f8     LIBCMTD:crt0dat.obj
 0003:000263fc       ___argv                    1006a3fc     LIBCMTD:crt0dat.obj
 0003:00026400       ___wargv                   1006a400     LIBCMTD:crt0dat.obj
 0003:00026404       __environ                  1006a404     LIBCMTD:crt0dat.obj
 0003:00026408       ___initenv                 1006a408     LIBCMTD:crt0dat.obj
 0003:0002640c       __wenviron                 1006a40c     LIBCMTD:crt0dat.obj
 0003:00026410       ___winitenv                1006a410     LIBCMTD:crt0dat.obj
 0003:00026414       __pgmptr                   1006a414     LIBCMTD:crt0dat.obj
 0003:00026418       __wpgmptr                  1006a418     LIBCMTD:crt0dat.obj
 0003:0002641c       __exitflag                 1006a41c     LIBCMTD:crt0dat.obj
 0003:00026420       __C_Termination_Done       1006a420     LIBCMTD:crt0dat.obj
 0003:00026424       __C_Exit_Done              1006a424     LIBCMTD:crt0dat.obj
 0003:00026438       ___lc_handle               1006a438     LIBCMTD:nlsdata2.obj
 0003:00026450       ___lc_codepage             1006a450     LIBCMTD:nlsdata2.obj
 0003:00026454       ___lc_collate_cp           1006a454     LIBCMTD:nlsdata2.obj
 0003:0002645c       __cflush                   1006a45c     LIBCMTD:_file.obj
 0003:00026480       __stdbuf                   1006a480     LIBCMTD:_sftbuf.obj
 0003:00026674       __adbgmsg                  1006a674     LIBCMTD:crt0msg.obj
 0003:0002667c       ___lc_time_intl            1006a67c     LIBCMTD:inittime.obj
 0003:00026698       ___lc_id                   1006a698     LIBCMTD:nlsdata3.obj
 0003:000266e0       __commode                  1006a6e0     LIBCMTD:ncommode.obj
 0003:000266f0       ___lconv_static_null       1006a6f0     LIBCMTD:lconv.obj
 0003:000266f8       __fmode                    1006a6f8     LIBCMTD:txtmode.obj
 0003:00026710       _qglRasterPos4sv           1006a710     <common>
 0003:00026714       _qglListBase               1006a714     <common>
 0003:00026718       _qglLightModelf            1006a718     <common>
 0003:0002671c       _qglLightModeli            1006a71c     <common>
 0003:00026720       _qglRectdv                 1006a720     <common>
 0003:00026724       _qglGenLists               1006a724     <common>
 0003:00026728       _qglRectfv                 1006a728     <common>
 0003:0002672c       _qglTexGend                1006a72c     <common>
 0003:00026730       _qglColor3uiv              1006a730     <common>
 0003:00026734       _qglPixelMapfv             1006a734     <common>
 0003:00026738       _qglRasterPos2sv           1006a738     <common>
 0003:0002673c       _qglRotatef                1006a73c     <common>
 0003:00026740       _qglRotated                1006a740     <common>
 0003:00026744       _qglGetPolygonStipple      1006a744     <common>
 0003:00026748       _qglPixelMapusv            1006a748     <common>
 0003:0002674c       _qglClearIndex             1006a74c     <common>
 0003:00026750       _qglRasterPos3sv           1006a750     <common>
 0003:00026754       _qglColor3ubv              1006a754     <common>
 0003:00026758       _qglFrustum                1006a758     <common>
 0003:0002675c       _qglGetMapdv               1006a75c     <common>
 0003:00026760       _qglRasterPos4dv           1006a760     <common>
 0003:00026764       _qglRasterPos3iv           1006a764     <common>
 0003:00026768       _qglReadPixels             1006a768     <common>
 0003:0002676c       _qglRasterPos4fv           1006a76c     <common>
 0003:00026770       _qglGetMapiv               1006a770     <common>
 0003:00026774       _qglDrawPixels             1006a774     <common>
 0003:00026778       _qglTexEnvf                1006a778     <common>
 0003:0002677c       _qglRectsv                 1006a77c     <common>
 0003:00026780       _qglTexEnvi                1006a780     <common>
 0003:00026784       _qglRasterPos4iv           1006a784     <common>
 0003:00026788       _qglPushClientAttrib       1006a788     <common>
 0003:0002678c       _qglGetMapfv               1006a78c     <common>
 0003:00026790       _qglLoadIdentity           1006a790     <common>
 0003:00026794       _qglTexGeni                1006a794     <common>
 0003:00026798       _qglTexGenf                1006a798     <common>
 0003:0002679c       _qglRasterPos2dv           1006a79c     <common>
 0003:000267a0       _qglRectiv                 1006a7a0     <common>
 0003:000267a4       _qglEndList                1006a7a4     <common>
 0003:000267a8       _qglRasterPos2fv           1006a7a8     <common>
 0003:000267ac       _qglRasterPos3dv           1006a7ac     <common>
 0003:000267b0       _qglRasterPos2iv           1006a7b0     <common>
 0003:000267b4       _qglPixelMapuiv            1006a7b4     <common>
 0003:000267b8       _qglRasterPos3fv           1006a7b8     <common>
 0003:000267bc       _qglReadBuffer             1006a7bc     <common>
 0003:000267c0       _qglRectd                  1006a7c0     <common>
 0003:000267c4       _qglNormal3sv              1006a7c4     <common>
 0003:000267c8       _qglRectf                  1006a7c8     <common>
 0003:000267cc       _qglColor4usv              1006a7cc     <common>
 0003:000267d0       _qglDrawElements           1006a7d0     <common>
 0003:000267d4       _qglEnable                 1006a7d4     <common>
 0003:000267d8       _qglTexParameterfv         1006a7d8     <common>
 0003:000267dc       _qglCopyTexImage1D         1006a7dc     <common>
 0003:000267e0       _qglRects                  1006a7e0     <common>
 0003:000267e4       _qglCopyTexImage2D         1006a7e4     <common>
 0003:000267e8       _qglPopName                1006a7e8     <common>
 0003:000267ec       _qglRecti                  1006a7ec     <common>
 0003:000267f0       _qglTexParameteriv         1006a7f0     <common>
 0003:000267f4       _qglDepthFunc              1006a7f4     <common>
 0003:000267f8       _qglColor4b                1006a7f8     <common>
 0003:000267fc       _qglColor3f                1006a7fc     <common>
 0003:00026800       _dllRenderMode             1006a800     <common>
 0003:00026804       _qglVertexPointer          1006a804     <common>
 0003:00026808       _qglColor4d                1006a808     <common>
 0003:0002680c       _qglColor4f                1006a80c     <common>
 0003:00026810       _qglColor3i                1006a810     <common>
 0003:00026814       _qglColor4i                1006a814     <common>
 0003:00026818       _qglColor3s                1006a818     <common>
 0003:0002681c       _qglColor4s                1006a81c     <common>
 0003:00026820       _qglEvalPoint1             1006a820     <common>
 0003:00026824       _qglEvalPoint2             1006a824     <common>
 0003:00026828       _qglNormal3iv              1006a828     <common>
 0003:0002682c       _qglEnd                    1006a82c     <common>
 0003:00026830       _qglNormal3dv              1006a830     <common>
 0003:00026834       _qglSelectBuffer           1006a834     <common>
 0003:00026838       _qglNormal3fv              1006a838     <common>
 0003:0002683c       _qglIndexMask              1006a83c     <common>
 0003:00026840       _qglGetFloatv              1006a840     <common>
 0003:00026844       _qglNormal3bv              1006a844     <common>
 0003:00026848       _qglPopClientAttrib        1006a848     <common>
 0003:0002684c       _qglColor4uiv              1006a84c     <common>
 0003:00026850       _qglDepthRange             1006a850     <common>
 0003:00026854       _qglGetTexImage            1006a854     <common>
 0003:00026858       _qglFeedbackBuffer         1006a858     <common>
 0003:0002685c       _qglColor4ubv              1006a85c     <common>
 0003:00026860       _qglLoadMatrixf            1006a860     <common>
 0003:00026864       _qglLoadMatrixd            1006a864     <common>
 0003:00026868       _qglColor3usv              1006a868     <common>
 0003:0002686c       _qwglGetCurrentContext     1006a86c     <common>
 0003:00026870       _qwglGetDeviceGammaRampEXT 1006a870     <common>
 0003:00026874       _dllIsEnabled              1006a874     <common>
 0003:00026878       _qglScaled                 1006a878     <common>
 0003:0002687c       _qglAreTexturesResident    1006a87c     <common>
 0003:00026880       _qglScalef                 1006a880     <common>
 0003:00026884       _qglGetIntegerv            1006a884     <common>
 0003:00026888       _qglColorMaterial          1006a888     <common>
 0003:0002688c       _qglIsList                 1006a88c     <common>
 0003:00026890       _qglGetTexGeniv            1006a890     <common>
 0003:00026894       _dllGenLists               1006a894     <common>
 0003:00026898       _qglClearAccum             1006a898     <common>
 0003:0002689c       _qglGetTexGenfv            1006a89c     <common>
 0003:000268a0       _qglAlphaFunc              1006a8a0     <common>
 0003:000268a4       _qglGetTexGendv            1006a8a4     <common>
 0003:000268a8       _qglMaterialiv             1006a8a8     <common>
 0003:000268ac       _qglNewList                1006a8ac     <common>
 0003:000268b0       _qglStencilMask            1006a8b0     <common>
 0003:000268b4       _qglLineWidth              1006a8b4     <common>
 0003:000268b8       _qwglCreateContext         1006a8b8     <common>
 0003:000268bc       _qglMaterialfv             1006a8bc     <common>
 0003:000268c0       _qglPushMatrix             1006a8c0     <common>
 0003:000268c4       _qglMatrixMode             1006a8c4     <common>
 0003:000268c8       _qwglCreateLayerContext    1006a8c8     <common>
 0003:000268cc       _qwglGetLayerPaletteEntries 1006a8cc     <common>
 0003:000268d0       _qglRasterPos2s            1006a8d0     <common>
 0003:000268d4       _qglPolygonOffset          1006a8d4     <common>
 0003:000268d8       _qglRasterPos3s            1006a8d8     <common>
 0003:000268dc       _qglClearDepth             1006a8dc     <common>
 0003:000268e0       _qglStencilFunc            1006a8e0     <common>
 0003:000268e4       _qglRasterPos4s            1006a8e4     <common>
 0003:000268e8       _qwglRealizeLayerPalette   1006a8e8     <common>
 0003:000268ec       _qglLoadName               1006a8ec     <common>
 0003:000268f0       _qglIndexdv                1006a8f0     <common>
 0003:000268f4       _qwglSetPixelFormat        1006a8f4     <common>
 0003:000268f8       _qwglChoosePixelFormat     1006a8f8     <common>
 0003:000268fc       _qglClearStencil           1006a8fc     <common>
 0003:00026900       _qglArrayElement           1006a900     <common>
 0003:00026904       _qglStencilOp              1006a904     <common>
 0003:00026908       _qglGetError               1006a908     <common>
 0003:0002690c       _qglIndexPointer           1006a90c     <common>
 0003:00026910       _qglTexImage1D             1006a910     <common>
 0003:00026914       _qglTexImage2D             1006a914     <common>
 0003:00026918       _qglEvalCoord2dv           1006a918     <common>
 0003:0002691c       _qglGetMaterialiv          1006a91c     <common>
 0003:00026920       _qglMap1f                  1006a920     <common>
 0003:00026924       _qglIndexub                1006a924     <common>
 0003:00026928       _qglOrtho                  1006a928     <common>
 0003:0002692c       _qglPolygonMode            1006a92c     <common>
 0003:00026930       _qglMap2d                  1006a930     <common>
 0003:00026934       _qglGetMaterialfv          1006a934     <common>
 0003:00026938       _qglEvalCoord1fv           1006a938     <common>
 0003:0002693c       _qglMap2f                  1006a93c     <common>
 0003:00026940       _qglTexCoordPointer        1006a940     <common>
 0003:00026944       _qwglDescribeLayerPlane    1006a944     <common>
 0003:00026948       _qglIndexsv                1006a948     <common>
 0003:0002694c       _qglPushName               1006a94c     <common>
 0003:00026950       _qwglGetPixelFormat        1006a950     <common>
 0003:00026954       _qglEvalCoord2fv           1006a954     <common>
 0003:00026958       _qglIndexfv                1006a958     <common>
 0003:0002695c       _qglEdgeFlagv              1006a95c     <common>
 0003:00026960       _qglIndexiv                1006a960     <common>
 0003:00026964       _qglRasterPos2f            1006a964     <common>
 0003:00026968       _qglSelectTextureSGIS      1006a968     <common>
 0003:0002696c       _qglRasterPos2d            1006a96c     <common>
 0003:00026970       _qglEvalCoord1dv           1006a970     <common>
 0003:00026974       _qglRasterPos3f            1006a974     <common>
 0003:00026978       _qglRasterPos2i            1006a978     <common>
 0003:0002697c       _qglRasterPos3d            1006a97c     <common>
 0003:00026980       _qglMap1d                  1006a980     <common>
 0003:00026984       _qglGetTexParameteriv      1006a984     <common>
 0003:00026988       _qglRasterPos4f            1006a988     <common>
 0003:0002698c       _qglRasterPos3i            1006a98c     <common>
 0003:00026990       _qglRasterPos4d            1006a990     <common>
 0003:00026994       _qglGetTexParameterfv      1006a994     <common>
 0003:00026998       _qglRasterPos4i            1006a998     <common>
 0003:0002699c       _qglVertex2sv              1006a99c     <common>
 0003:000269a0       _qglTexCoord4fv            1006a9a0     <common>
 0003:000269a4       _qglGetLightfv             1006a9a4     <common>
 0003:000269a8       _qglTexCoord1sv            1006a9a8     <common>
 0003:000269ac       _qglVertex4iv              1006a9ac     <common>
 0003:000269b0       _qglEdgeFlagPointer        1006a9b0     <common>
 0003:000269b4       _qglBindTexture            1006a9b4     <common>
 0003:000269b8       _qglTexCoord4iv            1006a9b8     <common>
 0003:000269bc       _qglTexCoord3fv            1006a9bc     <common>
 0003:000269c0       _qglTexCoord4dv            1006a9c0     <common>
 0003:000269c4       _qglVertex3iv              1006a9c4     <common>
 0003:000269c8       _qglNormalPointer          1006a9c8     <common>
 0003:000269cc       _qglVertex4fv              1006a9cc     <common>
 0003:000269d0       _qglTexCoord3iv            1006a9d0     <common>
 0003:000269d4       _qglIndexubv               1006a9d4     <common>
 0003:000269d8       _qglTexCoord2fv            1006a9d8     <common>
 0003:000269dc       _qglVertex4dv              1006a9dc     <common>
 0003:000269e0       _qglTexCoord3dv            1006a9e0     <common>
 0003:000269e4       _qglVertex2iv              1006a9e4     <common>
 0003:000269e8       _qglTexCoord2iv            1006a9e8     <common>
 0003:000269ec       _qglCallLists              1006a9ec     <common>
 0003:000269f0       _qglVertex3fv              1006a9f0     <common>
 0003:000269f4       _qglTranslated             1006a9f4     <common>
 0003:000269f8       _qglAccum                  1006a9f8     <common>
 0003:000269fc       _qglTranslatef             1006a9fc     <common>
 0003:00026a00       _qglTexCoord1fv            1006aa00     <common>
 0003:00026a04       _qglVertex3dv              1006aa04     <common>
 0003:00026a08       _qglVertex2fv              1006aa08     <common>
 0003:00026a0c       _qglTexParameterf          1006aa0c     <common>
 0003:00026a10       _qglTexParameteri          1006aa10     <common>
 0003:00026a14       _qglTexCoord2dv            1006aa14     <common>
 0003:00026a18       _qglGetLightiv             1006aa18     <common>
 0003:00026a1c       _qglTexCoord1iv            1006aa1c     <common>
 0003:00026a20       _qglVertex2dv              1006aa20     <common>
 0003:00026a24       _qglActiveTextureARB       1006aa24     <common>
 0003:00026a28       _qglMultMatrixf            1006aa28     <common>
 0003:00026a2c       _qglGetDoublev             1006aa2c     <common>
 0003:00026a30       _qglColorPointer           1006aa30     <common>
 0003:00026a34       _qglTexCoord1dv            1006aa34     <common>
 0003:00026a38       _qglGenTextures            1006aa38     <common>
 0003:00026a3c       _qglLighti                 1006aa3c     <common>
 0003:00026a40       _qglLightf                 1006aa40     <common>
 0003:00026a44       _dllIsList                 1006aa44     <common>
 0003:00026a48       _qwglDescribePixelFormat   1006aa48     <common>
 0003:00026a4c       _qglMapGrid2f              1006aa4c     <common>
 0003:00026a50       _qglMapGrid2d              1006aa50     <common>
 0003:00026a54       _qglMapGrid1f              1006aa54     <common>
 0003:00026a58       _qglMultMatrixd            1006aa58     <common>
 0003:00026a5c       _qglMapGrid1d              1006aa5c     <common>
 0003:00026a60       _qglPointParameterfEXT     1006aa60     <common>
 0003:00026a64       _qglColorMask              1006aa64     <common>
 0003:00026a68       _qglGetTexEnviv            1006aa68     <common>
 0003:00026a6c       _qglRenderMode             1006aa6c     <common>
 0003:00026a70       _qglPushAttrib             1006aa70     <common>
 0003:00026a74       _qglGetPointerv            1006aa74     <common>
 0003:00026a78       _qglClientActiveTextureARB 1006aa78     <common>
 0003:00026a7c       _qglCopyPixels             1006aa7c     <common>
 0003:00026a80       _qglClear                  1006aa80     <common>
 0003:00026a84       _qglGetTexEnvfv            1006aa84     <common>
 0003:00026a88       _qglGetBooleanv            1006aa88     <common>
 0003:00026a8c       _qglEdgeFlag               1006aa8c     <common>
 0003:00026a90       _qglBlendFunc              1006aa90     <common>
 0003:00026a94       _qglLightModeliv           1006aa94     <common>
 0003:00026a98       _qwglGetProcAddress        1006aa98     <common>
 0003:00026a9c       _qwglUseFontOutlines       1006aa9c     <common>
 0003:00026aa0       _qglPointSize              1006aaa0     <common>
 0003:00026aa4       _qwglSwapIntervalEXT       1006aaa4     <common>
 0003:00026aa8       _dllIsTexture              1006aaa8     <common>
 0003:00026aac       _qglViewport               1006aaac     <common>
 0003:00026ab0       _qglTexSubImage1D          1006aab0     <common>
 0003:00026ab4       _qglGetString              1006aab4     <common>
 0003:00026ab8       _qglTexSubImage2D          1006aab8     <common>
 0003:00026abc       _qglFogfv                  1006aabc     <common>
 0003:00026ac0       _qglLightModelfv           1006aac0     <common>
 0003:00026ac4       _qglFogiv                  1006aac4     <common>
 0003:00026ac8       _qglIndexd                 1006aac8     <common>
 0003:00026acc       _qglIndexi                 1006aacc     <common>
 0003:00026ad0       _qglIndexf                 1006aad0     <common>
 0003:00026ad4       _qglTexGenfv               1006aad4     <common>
 0003:00026ad8       _qglIndexs                 1006aad8     <common>
 0003:00026adc       _qglTexCoord4sv            1006aadc     <common>
 0003:00026ae0       _qglCopyTexSubImage2D      1006aae0     <common>
 0003:00026ae4       _qglCopyTexSubImage1D      1006aae4     <common>
 0003:00026ae8       _qglTexGeniv               1006aae8     <common>
 0003:00026aec       _qglGetPixelMapfv          1006aaec     <common>
 0003:00026af0       _qglVertex4sv              1006aaf0     <common>
 0003:00026af4       _qglFlush                  1006aaf4     <common>
 0003:00026af8       _qwglSetDeviceGammaRampEXT 1006aaf8     <common>
 0003:00026afc       _qglTexCoord3sv            1006aafc     <common>
 0003:00026b00       _qglPopMatrix              1006ab00     <common>
 0003:00026b04       _qglPopAttrib              1006ab04     <common>
 0003:00026b08       _qglPixelZoom              1006ab08     <common>
 0003:00026b0c       _qglTexGendv               1006ab0c     <common>
 0003:00026b10       _qwglCopyContext           1006ab10     <common>
 0003:00026b14       _qglDeleteTextures         1006ab14     <common>
 0003:00026b18       _qglDisableClientState     1006ab18     <common>
 0003:00026b1c       _dllAreTexturesResident    1006ab1c     <common>
 0003:00026b20       _qglVertex3sv              1006ab20     <common>
 0003:00026b24       _qwglGetCurrentDC          1006ab24     <common>
 0003:00026b28       _qwglSwapLayerBuffers      1006ab28     <common>
 0003:00026b2c       _qglTexCoord2sv            1006ab2c     <common>
 0003:00026b30       _qglBitmap                 1006ab30     <common>
 0003:00026b34       _qglColor4us               1006ab34     <common>
 0003:00026b38       _qglPointParameterfvEXT    1006ab38     <common>
 0003:00026b3c       _qglColor3sv               1006ab3c     <common>
 0003:00026b40       _qwglUseFontBitmaps        1006ab40     <common>
 0003:00026b44       _qglColor3ui               1006ab44     <common>
 0003:00026b48       _qglColor3ub               1006ab48     <common>
 0003:00026b4c       _qglColor4sv               1006ab4c     <common>
 0003:00026b50       _qglColor4ui               1006ab50     <common>
 0003:00026b54       _qglGetPixelMapusv         1006ab54     <common>
 0003:00026b58       _qglColor3us               1006ab58     <common>
 0003:00026b5c       _qglColor4ub               1006ab5c     <common>
 0003:00026b60       _qglDrawBuffer             1006ab60     <common>
 0003:00026b64       _qglClipPlane              1006ab64     <common>
 0003:00026b68       _qglEvalCoord2f            1006ab68     <common>
 0003:00026b6c       _qglFogi                   1006ab6c     <common>
 0003:00026b70       _qglCallList               1006ab70     <common>
 0003:00026b74       _qglEvalCoord2d            1006ab74     <common>
 0003:00026b78       _qglEvalCoord1f            1006ab78     <common>
 0003:00026b7c       _qglMTexCoord2fSGIS        1006ab7c     <common>
 0003:00026b80       _qglColor3b                1006ab80     <common>
 0003:00026b84       _qglFogf                   1006ab84     <common>
 0003:00026b88       _qglEvalCoord1d            1006ab88     <common>
 0003:00026b8c       _qglColor3d                1006ab8c     <common>
 0003:00026b90       _qglLogicOp                1006ab90     <common>
 0003:00026b94       _qglIsTexture              1006ab94     <common>
 0003:00026b98       _qglFrontFace              1006ab98     <common>
 0003:00026b9c       _qglInterleavedArrays      1006ab9c     <common>
 0003:00026ba0       _qglGetTexLevelParameterfv 1006aba0     <common>
 0003:00026ba4       _qglGetTexLevelParameteriv 1006aba4     <common>
 0003:00026ba8       _qglInitNames              1006aba8     <common>
 0003:00026bac       _qwglSwapBuffers           1006abac     <common>
 0003:00026bb0       _qglDrawArrays             1006abb0     <common>
 0003:00026bb4       _qglCullFace               1006abb4     <common>
 0003:00026bb8       _qglLightfv                1006abb8     <common>
 0003:00026bbc       _qglClearColor             1006abbc     <common>
 0003:00026bc0       _qglScissor                1006abc0     <common>
 0003:00026bc4       _qglLightiv                1006abc4     <common>
 0003:00026bc8       _qglVertex4s               1006abc8     <common>
 0003:00026bcc       _qglVertex3s               1006abcc     <common>
 0003:00026bd0       _qglTexEnviv               1006abd0     <common>
 0003:00026bd4       _qglColorTableEXT          1006abd4     <common>
 0003:00026bd8       _qglNormal3d               1006abd8     <common>
 0003:00026bdc       _qglShadeModel             1006abdc     <common>
 0003:00026be0       _qglNormal3b               1006abe0     <common>
 0003:00026be4       _qwglDeleteContext         1006abe4     <common>
 0003:00026be8       _qglIsEnabled              1006abe8     <common>
 0003:00026bec       _qglNormal3f               1006abec     <common>
 0003:00026bf0       _qglEnableClientState      1006abf0     <common>
 0003:00026bf4       _qglVertex4d               1006abf4     <common>
 0003:00026bf8       _qglVertex3i               1006abf8     <common>
 0003:00026bfc       _qglVertex4f               1006abfc     <common>
 0003:00026c00       _qglVertex3d               1006ac00     <common>
 0003:00026c04       _qglVertex2i               1006ac04     <common>
 0003:00026c08       _dllGetError               1006ac08     <common>
 0003:00026c0c       _qglVertex3f               1006ac0c     <common>
 0003:00026c10       _qglVertex2s               1006ac10     <common>
 0003:00026c14       _qglMateriali              1006ac14     <common>
 0003:00026c18       _qglTexEnvfv               1006ac18     <common>
 0003:00026c1c       _qglMaterialf              1006ac1c     <common>
 0003:00026c20       _qwglShareLists            1006ac20     <common>
 0003:00026c24       _qglVertex4i               1006ac24     <common>
 0003:00026c28       _qglGetClipPlane           1006ac28     <common>
 0003:00026c2c       _qglEvalMesh2              1006ac2c     <common>
 0003:00026c30       _qglEvalMesh1              1006ac30     <common>
 0003:00026c34       _qglVertex2d               1006ac34     <common>
 0003:00026c38       _qglPolygonStipple         1006ac38     <common>
 0003:00026c3c       _qglVertex2f               1006ac3c     <common>
 0003:00026c40       _qglHint                   1006ac40     <common>
 0003:00026c44       _qglDisable                1006ac44     <common>
 0003:00026c48       _qglFinish                 1006ac48     <common>
 0003:00026c4c       _qwglSetLayerPaletteEntries 1006ac4c     <common>
 0003:00026c50       _qglPixelStorei            1006ac50     <common>
 0003:00026c54       _qglColor4fv               1006ac54     <common>
 0003:00026c58       _qglPixelStoref            1006ac58     <common>
 0003:00026c5c       _qglPixelTransferf         1006ac5c     <common>
 0003:00026c60       _qglColor3iv               1006ac60     <common>
 0003:00026c64       _qglPixelTransferi         1006ac64     <common>
 0003:00026c68       _qglColor4dv               1006ac68     <common>
 0003:00026c6c       _qglLockArraysEXT          1006ac6c     <common>
 0003:00026c70       _qglPassThrough            1006ac70     <common>
 0003:00026c74       _qglColor4iv               1006ac74     <common>
 0003:00026c78       _qwglMakeCurrent           1006ac78     <common>
 0003:00026c7c       _qglGetPixelMapuiv         1006ac7c     <common>
 0003:00026c80       _qglTexCoord3s             1006ac80     <common>
 0003:00026c84       _qglBegin                  1006ac84     <common>
 0003:00026c88       _qglDeleteLists            1006ac88     <common>
 0003:00026c8c       _qglTexCoord4s             1006ac8c     <common>
 0003:00026c90       _qglPrioritizeTextures     1006ac90     <common>
 0003:00026c94       _qglLineStipple            1006ac94     <common>
 0003:00026c98       _qglColor3bv               1006ac98     <common>
 0003:00026c9c       _qglTexCoord1s             1006ac9c     <common>
 0003:00026ca0       _dllGetString              1006aca0     <common>
 0003:00026ca4       _qglTexCoord3i             1006aca4     <common>
 0003:00026ca8       _qglTexCoord4f             1006aca8     <common>
 0003:00026cac       _qglTexCoord2s             1006acac     <common>
 0003:00026cb0       _qglTexCoord4i             1006acb0     <common>
 0003:00026cb4       _qglTexCoord3d             1006acb4     <common>
 0003:00026cb8       _qglTexCoord1i             1006acb8     <common>
 0003:00026cbc       _qglNormal3i               1006acbc     <common>
 0003:00026cc0       _qglUnlockArraysEXT        1006acc0     <common>
 0003:00026cc4       _qglTexCoord2f             1006acc4     <common>
 0003:00026cc8       _qglTexCoord4d             1006acc8     <common>
 0003:00026ccc       _qglColor4bv               1006accc     <common>
 0003:00026cd0       _qglColor3fv               1006acd0     <common>
 0003:00026cd4       _qglTexCoord2i             1006acd4     <common>
 0003:00026cd8       _qglTexCoord3f             1006acd8     <common>
 0003:00026cdc       _qglNormal3s               1006acdc     <common>
 0003:00026ce0       _qglTexCoord1d             1006ace0     <common>
 0003:00026ce4       _qglTexCoord2d             1006ace4     <common>
 0003:00026ce8       _qglColor3dv               1006ace8     <common>
 0003:00026cec       _qglTexCoord1f             1006acec     <common>
 0003:00026cf0       _qglDepthMask              1006acf0     <common>
 0003:00026cf4       _hunkcount                 1006acf4     <common>
 0003:00026cf8       _hunkmaxsize               1006acf8     <common>
 0003:00026d00       _findpath                  1006ad00     <common>
 0003:00026d80       _findbase                  1006ad80     <common>
 0003:00026e00       _curtime                   1006ae00     <common>
 0003:00026e04       _cursize                   1006ae04     <common>
 0003:00026e08       _findhandle                1006ae08     <common>
 0003:00026e0c       _membase                   1006ae0c     <common>
 0003:00026e20       _corners                   1006ae20     <common>
 0003:00026e38       _i                         1006ae38     <common>
 0003:00026e3c       __LittleFloat              1006ae3c     <common>
 0003:00026e40       __BigFloat                 1006ae40     <common>
 0003:00026e44       __LittleLong               1006ae44     <common>
 0003:00026e48       __LittleShort              1006ae48     <common>
 0003:00026e4c       __BigShort                 1006ae4c     <common>
 0003:00026e50       __BigLong                  1006ae50     <common>
 0003:00026e60       _com_token                 1006ae60     <common>
 0003:00026ee0       _paged_total               1006aee0     <common>
 0003:00026ee4       _bigendien                 1006aee4     <common>
 0003:00026f00       _glw_state                 1006af00     <common>
 0003:00026f30       _skyaxis                   1006af30     <common>
 0003:00026f3c       _skyrotate                 1006af3c     <common>
 0003:00026f40       _sky_images                1006af40     <common>
 0003:00026f60       _skymaxs                   1006af60     <common>
 0003:00026fa0       _skyname                   1006afa0     <common>
 0003:00026fe0       _warpface                  1006afe0     <common>
 0003:00027000       _skymins                   1006b000     <common>
 0003:00027030       _sky_max                   1006b030     <common>
 0003:00027034       _sky_min                   1006b034     <common>
 0003:00027038       _c_sky                     1006b038     <common>
 0003:0002703c       _r_alpha_surfaces          1006b03c     <common>
 0003:00027040       _c_visible_textures        1006b040     <common>
 0003:00027044       _c_visible_lightmaps       1006b044     <common>
 0003:00027048       _gl_lockpvs                1006b048     <common>
 0003:0002704c       _r_norefresh               1006b04c     <common>
 0003:00027050       _gl_particle_size          1006b050     <common>
 0003:00027054       _vid_ref                   1006b054     <common>
 0003:00027058       _gl_particle_min_size      1006b058     <common>
 0003:00027060       _gl_config                 1006b060     <common>
 0003:00027078       _gl_ext_swapinterval       1006b078     <common>
 0003:0002707c       _r_oldviewcluster2         1006b07c     <common>
 0003:00027080       _gl_drawbuffer             1006b080     <common>
 0003:00027084       _gl_ext_palettedtexture    1006b084     <common>
 0003:00027088       _gl_particle_att_a         1006b088     <common>
 0003:0002708c       _gl_particle_att_b         1006b08c     <common>
 0003:00027090       _gl_particle_att_c         1006b090     <common>
 0003:00027094       _r_notexture               1006b094     <common>
 0003:00027098       _gl_monolightmap           1006b098     <common>
 0003:0002709c       _r_worldmodel              1006b09c     <common>
 0003:000270a0       _gl_showtris               1006b0a0     <common>
 0003:000270a4       _currentmodel              1006b0a4     <common>
 0003:000270a8       _gl_vertex_arrays          1006b0a8     <common>
 0003:000270ac       _gl_texturealphamode       1006b0ac     <common>
 0003:000270b0       _r_speeds                  1006b0b0     <common>
 0003:000270b4       _gl_clear                  1006b0b4     <common>
 0003:000270b8       _gl_picmip                 1006b0b8     <common>
 0003:000270c0       _r_rawpalette              1006b0c0     <common>
 0003:000274c0       _v_blend                   1006b4c0     <common>
 0003:000274d0       _gl_allow_software         1006b4d0     <common>
 0003:000274d4       _gl_bitdepth               1006b4d4     <common>
 0003:000274d8       _gl_cull                   1006b4d8     <common>
 0003:000274dc       _gl_log                    1006b4dc     <common>
 0003:000274e0       _gl_nobind                 1006b4e0     <common>
 0003:000274e4       _gl_nosubimage             1006b4e4     <common>
 0003:00027500       _r_newrefdef               1006b500     <common>
 0003:00027568       _r_oldviewcluster          1006b568     <common>
 0003:00027570       _vid                       1006b570     <common>
 0003:00027578       _gl_skymip                 1006b578     <common>
 0003:0002757c       _gl_texturesolidmode       1006b57c     <common>
 0003:00027580       _vpn                       1006b580     <common>
 0003:0002758c       _gl_modulate               1006b58c     <common>
 0003:00027590       _r_framecount              1006b590     <common>
 0003:000275a0       _vup                       1006b5a0     <common>
 0003:000275ac       _c_brush_polys             1006b5ac     <common>
 0003:000275b0       _gl_flashblend             1006b5b0     <common>
 0003:000275b4       _r_lefthand                1006b5b4     <common>
 0003:000275b8       _gl_lightmap               1006b5b8     <common>
 0003:000275bc       _gl_saturatelighting       1006b5bc     <common>
 0003:000275c0       _r_viewcluster2            1006b5c0     <common>
 0003:000275c4       _gl_texturemode            1006b5c4     <common>
 0003:000275e0       _ri                        1006b5e0     <common>
 0003:00027620       _gl_dynamic                1006b620     <common>
 0003:00027624       _gldepthmin                1006b624     <common>
 0003:00027628       _gl_round_down             1006b628     <common>
 0003:0002762c       _r_viewcluster             1006b62c     <common>
 0003:00027630       _gldepthmax                1006b630     <common>
 0003:00027634       _gl_swapinterval           1006b634     <common>
 0003:00027640       _frustum                   1006b640     <common>
 0003:00027690       _r_visframecount           1006b690     <common>
 0003:00027694       _r_novis                   1006b694     <common>
 0003:00027698       _gl_shadows                1006b698     <common>
 0003:0002769c       _gl_ext_compiled_vertex_array 1006b69c     <common>
 0003:000276a0       _gl_playermip              1006b6a0     <common>
 0003:000276a4       _gl_3dlabs_broken          1006b6a4     <common>
 0003:000276a8       _r_nocull                  1006b6a8     <common>
 0003:000276b0       _r_origin                  1006b6b0     <common>
 0003:000276bc       _currententity             1006b6bc     <common>
 0003:000276c0       _r_world_matrix            1006b6c0     <common>
 0003:00027700       _vright                    1006b700     <common>
 0003:0002770c       _gl_mode                   1006b70c     <common>
 0003:00027710       _r_lerpmodels              1006b710     <common>
 0003:00027714       _gl_driver                 1006b714     <common>
 0003:00027718       _vid_gamma                 1006b718     <common>
 0003:0002771c       _r_drawentities            1006b71c     <common>
 0003:00027720       _gl_particle_max_size      1006b720     <common>
 0003:00027724       _gl_ext_multitexture       1006b724     <common>
 0003:00027728       _gl_ext_pointparameters    1006b728     <common>
 0003:0002772c       _vid_fullscreen            1006b72c     <common>
 0003:00027730       _gl_ztrick                 1006b730     <common>
 0003:00027734       _GL_TEXTURE0               1006b734     <common>
 0003:00027738       _GL_TEXTURE1               1006b738     <common>
 0003:0002773c       _c_alias_polys             1006b73c     <common>
 0003:00027740       _gl_polyblend              1006b740     <common>
 0003:00027760       _r_base_world_matrix       1006b760     <common>
 0003:000277a0       _r_particletexture         1006b7a0     <common>
 0003:000277a4       _r_lightlevel              1006b7a4     <common>
 0003:000277a8       _r_fullbright              1006b7a8     <common>
 0003:000277ac       _r_drawworld               1006b7ac     <common>
 0003:000277b0       _gl_finish                 1006b7b0     <common>
 0003:000277c0       _gl_state                  1006b7c0     <common>
 0003:00027b00       _mod_inline                1006bb00     <common>
 0003:00056b00       _mod_numknown              1009ab00     <common>
 0003:00056b04       _loadmodel                 1009ab04     <common>
 0003:00056b20       _mod_known                 1009ab20     <common>
 0003:00085b20       _mod_base                  100c9b20     <common>
 0003:00085b24       _modfilelen                100c9b24     <common>
 0003:00085b28       _registration_sequence     100c9b28     <common>
 0003:00085b40       _mod_novis                 100c9b40     <common>
 0003:00087b40       _shadevector               100cbb40     <common>
 0003:00087b50       _shadelight                100cbb50     <common>
 0003:00087b60       _pointcolor                100cbb60     <common>
 0003:00087b70       _lightspot                 100cbb70     <common>
 0003:00087b7c       _r_dlightframecount        100cbb7c     <common>
 0003:00087b80       _lightplane                100cbb80     <common>
 0003:00087ba0       _scrap_texels              100cbba0     <common>
 0003:00097ba0       _gltextures                100dbba0     <common>
 0003:000b6ba0       _upload_height             100faba0     <common>
 0003:000b6ba4       _upload_width              100faba4     <common>
 0003:000b6ba8       _base_textureid            100faba8     <common>
 0003:000b6bac       _uploaded_paletted         100fabac     <common>
 0003:000b6bb0       _numgltextures             100fabb0     <common>
 0003:000b6bc0       _scrap_allocated           100fabc0     <common>
 0003:000b6fc0       _d_8to24table              100fafc0     <common>
 0003:000b73c0       _scrap_uploads             100fb3c0     <common>
 0003:000b73c4       _scrap_dirty               100fb3c4     <common>
 0003:000b73c8       _intensity                 100fb3c8     <common>
 0003:000b73cc       _draw_chars                100fb3cc     <common>
 0003:000b73d0       ___alternate_form          100fb3d0     <common>
 0003:000b73d4       ___no_lead_zeros           100fb3d4     <common>
 0003:000b73d8       ___mbcodepage              100fb3d8     <common>
 0003:000b73e0       ___mbulinfo                100fb3e0     <common>
 0003:000b73ec       ___ismbcodepage            100fb3ec     <common>
 0003:000b7400       __mbcasemap                100fb400     <common>
 0003:000b7500       __mbctype                  100fb500     <common>
 0003:000b7604       ___mblcid                  100fb604     <common>
 0003:000b7620       ___pioinfo                 100fb620     <common>
 0003:000b7720       __nhandle                  100fb720     <common>
 0003:000b7724       ___piob                    100fb724     <common>
 0003:000b7740       __bufin                    100fb740     <common>
 0003:000b8740       __nstream                  100fc740     <common>
 0003:000b8744       ___setlc_active            100fc744     <common>
 0003:000b8748       ___unguarded_readlc_active 100fc748     <common>
 0003:000b874c       ___sbh_sizeHeaderList      100fc74c     <common>
 0003:000b8750       ___sbh_indGroupDefer       100fc750     <common>
 0003:000b8754       ___sbh_pHeaderScan         100fc754     <common>
 0003:000b8758       ___sbh_pHeaderDefer        100fc758     <common>
 0003:000b875c       ___sbh_cntHeaderList       100fc75c     <common>
 0003:000b8760       ___sbh_pHeaderList         100fc760     <common>
 0003:000b8764       ___env_initialized         100fc764     <common>
 0003:000b8768       ___mbctype_initialized     100fc768     <common>
 0003:000b876c       ___onexitend               100fc76c     <common>
 0003:000b8770       ___onexitbegin             100fc770     <common>
 0003:000b8774       __crtheap                  100fc774     <common>
 0003:000b8778       __pfnReportHook            100fc778     <common>
 0003:000b877c       __acmdln                   100fc77c     <common>
 0003:000b8780       __pRawDllMain              100fc780     <common>
 0003:000b8784       __pfnDumpClient            100fc784     <common>

 entry point at        0001:000235b0

 Static symbols

 0001:00019c10       _logAccum@8                1001ac10 f   qgl_win.obj
 0001:00019c50       _logAlphaFunc@8            1001ac50 f   qgl_win.obj
 0001:00019ca0       _logAreTexturesResident@12 1001aca0 f   qgl_win.obj
 0001:00019ce0       _logArrayElement@4         1001ace0 f   qgl_win.obj
 0001:00019d10       _logBegin@4                1001ad10 f   qgl_win.obj
 0001:00019d50       _logBindTexture@8          1001ad50 f   qgl_win.obj
 0001:00019d90       _logBitmap@28              1001ad90 f   qgl_win.obj
 0001:00019de0       _logBlendFunc@8            1001ade0 f   qgl_win.obj
 0001:00019e20       _logCallList@4             1001ae20 f   qgl_win.obj
 0001:00019e60       _logCallLists@12           1001ae60 f   qgl_win.obj
 0001:00019ea0       _logClear@4                1001aea0 f   qgl_win.obj
 0001:00019ed0       _logClearAccum@16          1001aed0 f   qgl_win.obj
 0001:00019f10       _logClearColor@16          1001af10 f   qgl_win.obj
 0001:00019f50       _logClearDepth@8           1001af50 f   qgl_win.obj
 0001:00019f90       _logClearIndex@4           1001af90 f   qgl_win.obj
 0001:00019fc0       _logClearStencil@4         1001afc0 f   qgl_win.obj
 0001:00019ff0       _logClipPlane@8            1001aff0 f   qgl_win.obj
 0001:0001a030       _logColor3b@12             1001b030 f   qgl_win.obj
 0001:0001a070       _logColor3bv@4             1001b070 f   qgl_win.obj
 0001:0001a0a0       _logColor3d@24             1001b0a0 f   qgl_win.obj
 0001:0001a0f0       _logColor3dv@4             1001b0f0 f   qgl_win.obj
 0001:0001a120       _logColor3f@12             1001b120 f   qgl_win.obj
 0001:0001a160       _logColor3fv@4             1001b160 f   qgl_win.obj
 0001:0001a190       _logColor3i@12             1001b190 f   qgl_win.obj
 0001:0001a1d0       _logColor3iv@4             1001b1d0 f   qgl_win.obj
 0001:0001a200       _logColor3s@12             1001b200 f   qgl_win.obj
 0001:0001a240       _logColor3sv@4             1001b240 f   qgl_win.obj
 0001:0001a270       _logColor3ub@12            1001b270 f   qgl_win.obj
 0001:0001a2b0       _logColor3ubv@4            1001b2b0 f   qgl_win.obj
 0001:0001a2e0       _logColor3ui@12            1001b2e0 f   qgl_win.obj
 0001:0001a320       _logColor3uiv@4            1001b320 f   qgl_win.obj
 0001:0001a350       _logColor3us@12            1001b350 f   qgl_win.obj
 0001:0001a390       _logColor3usv@4            1001b390 f   qgl_win.obj
 0001:0001a3c0       _logColor4b@16             1001b3c0 f   qgl_win.obj
 0001:0001a400       _logColor4bv@4             1001b400 f   qgl_win.obj
 0001:0001a430       _logColor4d@32             1001b430 f   qgl_win.obj
 0001:0001a480       _logColor4dv@4             1001b480 f   qgl_win.obj
 0001:0001a4b0       _logColor4f@16             1001b4b0 f   qgl_win.obj
 0001:0001a510       _logColor4fv@4             1001b510 f   qgl_win.obj
 0001:0001a570       _logColor4i@16             1001b570 f   qgl_win.obj
 0001:0001a5b0       _logColor4iv@4             1001b5b0 f   qgl_win.obj
 0001:0001a5e0       _logColor4s@16             1001b5e0 f   qgl_win.obj
 0001:0001a620       _logColor4sv@4             1001b620 f   qgl_win.obj
 0001:0001a650       _logColor4ub@16            1001b650 f   qgl_win.obj
 0001:0001a690       _logColor4ubv@4            1001b690 f   qgl_win.obj
 0001:0001a6c0       _logColor4ui@16            1001b6c0 f   qgl_win.obj
 0001:0001a700       _logColor4uiv@4            1001b700 f   qgl_win.obj
 0001:0001a730       _logColor4us@16            1001b730 f   qgl_win.obj
 0001:0001a770       _logColor4usv@4            1001b770 f   qgl_win.obj
 0001:0001a7a0       _logColorMask@16           1001b7a0 f   qgl_win.obj
 0001:0001a7e0       _logColorMaterial@8        1001b7e0 f   qgl_win.obj
 0001:0001a820       _logColorPointer@16        1001b820 f   qgl_win.obj
 0001:0001a860       _logCopyPixels@20          1001b860 f   qgl_win.obj
 0001:0001a8a0       _logCopyTexImage1D@28      1001b8a0 f   qgl_win.obj
 0001:0001a8f0       _logCopyTexImage2D@32      1001b8f0 f   qgl_win.obj
 0001:0001a940       _logCopyTexSubImage1D@24   1001b940 f   qgl_win.obj
 0001:0001a990       _logCopyTexSubImage2D@32   1001b990 f   qgl_win.obj
 0001:0001a9e0       _logCullFace@4             1001b9e0 f   qgl_win.obj
 0001:0001aa10       _logDeleteLists@8          1001ba10 f   qgl_win.obj
 0001:0001aa50       _logDeleteTextures@8       1001ba50 f   qgl_win.obj
 0001:0001aa90       _logDepthFunc@4            1001ba90 f   qgl_win.obj
 0001:0001aac0       _logDepthMask@4            1001bac0 f   qgl_win.obj
 0001:0001aaf0       _logDepthRange@16          1001baf0 f   qgl_win.obj
 0001:0001ab30       _logDisable@4              1001bb30 f   qgl_win.obj
 0001:0001ab70       _logDisableClientState@4   1001bb70 f   qgl_win.obj
 0001:0001aba0       _logDrawArrays@12          1001bba0 f   qgl_win.obj
 0001:0001abe0       _logDrawBuffer@4           1001bbe0 f   qgl_win.obj
 0001:0001ac10       _logDrawElements@16        1001bc10 f   qgl_win.obj
 0001:0001ac50       _logDrawPixels@20          1001bc50 f   qgl_win.obj
 0001:0001ac90       _logEdgeFlag@4             1001bc90 f   qgl_win.obj
 0001:0001acc0       _logEdgeFlagPointer@8      1001bcc0 f   qgl_win.obj
 0001:0001ad00       _logEdgeFlagv@4            1001bd00 f   qgl_win.obj
 0001:0001ad30       _logEnable@4               1001bd30 f   qgl_win.obj
 0001:0001ad70       _logEnableClientState@4    1001bd70 f   qgl_win.obj
 0001:0001ada0       _logEnd@0                  1001bda0 f   qgl_win.obj
 0001:0001add0       _logEndList@0              1001bdd0 f   qgl_win.obj
 0001:0001ae00       _logEvalCoord1d@8          1001be00 f   qgl_win.obj
 0001:0001ae40       _logEvalCoord1dv@4         1001be40 f   qgl_win.obj
 0001:0001ae70       _logEvalCoord1f@4          1001be70 f   qgl_win.obj
 0001:0001aea0       _logEvalCoord1fv@4         1001bea0 f   qgl_win.obj
 0001:0001aed0       _logEvalCoord2d@16         1001bed0 f   qgl_win.obj
 0001:0001af10       _logEvalCoord2dv@4         1001bf10 f   qgl_win.obj
 0001:0001af40       _logEvalCoord2f@8          1001bf40 f   qgl_win.obj
 0001:0001af80       _logEvalCoord2fv@4         1001bf80 f   qgl_win.obj
 0001:0001afb0       _logEvalMesh1@12           1001bfb0 f   qgl_win.obj
 0001:0001aff0       _logEvalMesh2@20           1001bff0 f   qgl_win.obj
 0001:0001b030       _logEvalPoint1@4           1001c030 f   qgl_win.obj
 0001:0001b060       _logEvalPoint2@8           1001c060 f   qgl_win.obj
 0001:0001b0a0       _logFeedbackBuffer@12      1001c0a0 f   qgl_win.obj
 0001:0001b0e0       _logFinish@0               1001c0e0 f   qgl_win.obj
 0001:0001b110       _logFlush@0                1001c110 f   qgl_win.obj
 0001:0001b140       _logFogf@8                 1001c140 f   qgl_win.obj
 0001:0001b180       _logFogfv@8                1001c180 f   qgl_win.obj
 0001:0001b1c0       _logFogi@8                 1001c1c0 f   qgl_win.obj
 0001:0001b200       _logFogiv@8                1001c200 f   qgl_win.obj
 0001:0001b240       _logFrontFace@4            1001c240 f   qgl_win.obj
 0001:0001b270       _logFrustum@48             1001c270 f   qgl_win.obj
 0001:0001b2d0       _logGenLists@4             1001c2d0 f   qgl_win.obj
 0001:0001b300       _logGenTextures@8          1001c300 f   qgl_win.obj
 0001:0001b340       _logGetBooleanv@8          1001c340 f   qgl_win.obj
 0001:0001b380       _logGetClipPlane@8         1001c380 f   qgl_win.obj
 0001:0001b3c0       _logGetDoublev@8           1001c3c0 f   qgl_win.obj
 0001:0001b400       _logGetError@0             1001c400 f   qgl_win.obj
 0001:0001b430       _logGetFloatv@8            1001c430 f   qgl_win.obj
 0001:0001b470       _logGetIntegerv@8          1001c470 f   qgl_win.obj
 0001:0001b4b0       _logGetLightfv@12          1001c4b0 f   qgl_win.obj
 0001:0001b4f0       _logGetLightiv@12          1001c4f0 f   qgl_win.obj
 0001:0001b530       _logGetMapdv@12            1001c530 f   qgl_win.obj
 0001:0001b570       _logGetMapfv@12            1001c570 f   qgl_win.obj
 0001:0001b5b0       _logGetMapiv@12            1001c5b0 f   qgl_win.obj
 0001:0001b5f0       _logGetMaterialfv@12       1001c5f0 f   qgl_win.obj
 0001:0001b630       _logGetMaterialiv@12       1001c630 f   qgl_win.obj
 0001:0001b670       _logGetPixelMapfv@8        1001c670 f   qgl_win.obj
 0001:0001b6b0       _logGetPixelMapuiv@8       1001c6b0 f   qgl_win.obj
 0001:0001b6f0       _logGetPixelMapusv@8       1001c6f0 f   qgl_win.obj
 0001:0001b730       _logGetPointerv@8          1001c730 f   qgl_win.obj
 0001:0001b770       _logGetPolygonStipple@4    1001c770 f   qgl_win.obj
 0001:0001b7a0       _logGetString@4            1001c7a0 f   qgl_win.obj
 0001:0001b7d0       _logGetTexEnvfv@12         1001c7d0 f   qgl_win.obj
 0001:0001b810       _logGetTexEnviv@12         1001c810 f   qgl_win.obj
 0001:0001b850       _logGetTexGendv@12         1001c850 f   qgl_win.obj
 0001:0001b890       _logGetTexGenfv@12         1001c890 f   qgl_win.obj
 0001:0001b8d0       _logGetTexGeniv@12         1001c8d0 f   qgl_win.obj
 0001:0001b910       _logGetTexImage@20         1001c910 f   qgl_win.obj
 0001:0001b950       _logGetTexLevelParameterfv@16 1001c950 f   qgl_win.obj
 0001:0001b990       _logGetTexLevelParameteriv@16 1001c990 f   qgl_win.obj
 0001:0001b9d0       _logGetTexParameterfv@12   1001c9d0 f   qgl_win.obj
 0001:0001ba10       _logGetTexParameteriv@12   1001ca10 f   qgl_win.obj
 0001:0001ba50       _logHint@8                 1001ca50 f   qgl_win.obj
 0001:0001ba90       _logIndexMask@4            1001ca90 f   qgl_win.obj
 0001:0001bac0       _logIndexPointer@12        1001cac0 f   qgl_win.obj
 0001:0001bb00       _logIndexd@8               1001cb00 f   qgl_win.obj
 0001:0001bb40       _logIndexdv@4              1001cb40 f   qgl_win.obj
 0001:0001bb70       _logIndexf@4               1001cb70 f   qgl_win.obj
 0001:0001bba0       _logIndexfv@4              1001cba0 f   qgl_win.obj
 0001:0001bbd0       _logIndexi@4               1001cbd0 f   qgl_win.obj
 0001:0001bc00       _logIndexiv@4              1001cc00 f   qgl_win.obj
 0001:0001bc30       _logIndexs@4               1001cc30 f   qgl_win.obj
 0001:0001bc60       _logIndexsv@4              1001cc60 f   qgl_win.obj
 0001:0001bc90       _logIndexub@4              1001cc90 f   qgl_win.obj
 0001:0001bcc0       _logIndexubv@4             1001ccc0 f   qgl_win.obj
 0001:0001bcf0       _logInitNames@0            1001ccf0 f   qgl_win.obj
 0001:0001bd20       _logInterleavedArrays@12   1001cd20 f   qgl_win.obj
 0001:0001bd60       _logIsEnabled@4            1001cd60 f   qgl_win.obj
 0001:0001bd90       _logIsList@4               1001cd90 f   qgl_win.obj
 0001:0001bdc0       _logIsTexture@4            1001cdc0 f   qgl_win.obj
 0001:0001bdf0       _logLightModelf@8          1001cdf0 f   qgl_win.obj
 0001:0001be30       _logLightModelfv@8         1001ce30 f   qgl_win.obj
 0001:0001be70       _logLightModeli@8          1001ce70 f   qgl_win.obj
 0001:0001beb0       _logLightModeliv@8         1001ceb0 f   qgl_win.obj
 0001:0001bef0       _logLightf@12              1001cef0 f   qgl_win.obj
 0001:0001bf30       _logLightfv@12             1001cf30 f   qgl_win.obj
 0001:0001bf70       _logLighti@12              1001cf70 f   qgl_win.obj
 0001:0001bfb0       _logLightiv@12             1001cfb0 f   qgl_win.obj
 0001:0001bff0       _logLineStipple@8          1001cff0 f   qgl_win.obj
 0001:0001c030       _logLineWidth@4            1001d030 f   qgl_win.obj
 0001:0001c060       _logListBase@4             1001d060 f   qgl_win.obj
 0001:0001c090       _logLoadIdentity@0         1001d090 f   qgl_win.obj
 0001:0001c0c0       _logLoadMatrixd@4          1001d0c0 f   qgl_win.obj
 0001:0001c0f0       _logLoadMatrixf@4          1001d0f0 f   qgl_win.obj
 0001:0001c120       _logLoadName@4             1001d120 f   qgl_win.obj
 0001:0001c150       _logLogicOp@4              1001d150 f   qgl_win.obj
 0001:0001c180       _logMap1d@32               1001d180 f   qgl_win.obj
 0001:0001c1d0       _logMap1f@24               1001d1d0 f   qgl_win.obj
 0001:0001c220       _logMap2d@56               1001d220 f   qgl_win.obj
 0001:0001c290       _logMap2f@40               1001d290 f   qgl_win.obj
 0001:0001c2f0       _logMapGrid1d@20           1001d2f0 f   qgl_win.obj
 0001:0001c330       _logMapGrid1f@12           1001d330 f   qgl_win.obj
 0001:0001c370       _logMapGrid2d@40           1001d370 f   qgl_win.obj
 0001:0001c3d0       _logMapGrid2f@24           1001d3d0 f   qgl_win.obj
 0001:0001c420       _logMaterialf@12           1001d420 f   qgl_win.obj
 0001:0001c460       _logMaterialfv@12          1001d460 f   qgl_win.obj
 0001:0001c4a0       _logMateriali@12           1001d4a0 f   qgl_win.obj
 0001:0001c4e0       _logMaterialiv@12          1001d4e0 f   qgl_win.obj
 0001:0001c520       _logMatrixMode@4           1001d520 f   qgl_win.obj
 0001:0001c550       _logMultMatrixd@4          1001d550 f   qgl_win.obj
 0001:0001c580       _logMultMatrixf@4          1001d580 f   qgl_win.obj
 0001:0001c5b0       _logNewList@8              1001d5b0 f   qgl_win.obj
 0001:0001c5f0       _logNormal3b@12            1001d5f0 f   qgl_win.obj
 0001:0001c630       _logNormal3bv@4            1001d630 f   qgl_win.obj
 0001:0001c660       _logNormal3d@24            1001d660 f   qgl_win.obj
 0001:0001c6b0       _logNormal3dv@4            1001d6b0 f   qgl_win.obj
 0001:0001c6e0       _logNormal3f@12            1001d6e0 f   qgl_win.obj
 0001:0001c720       _logNormal3fv@4            1001d720 f   qgl_win.obj
 0001:0001c750       _logNormal3i@12            1001d750 f   qgl_win.obj
 0001:0001c790       _logNormal3iv@4            1001d790 f   qgl_win.obj
 0001:0001c7c0       _logNormal3s@12            1001d7c0 f   qgl_win.obj
 0001:0001c800       _logNormal3sv@4            1001d800 f   qgl_win.obj
 0001:0001c830       _logNormalPointer@12       1001d830 f   qgl_win.obj
 0001:0001c870       _logOrtho@48               1001d870 f   qgl_win.obj
 0001:0001c8d0       _logPassThrough@4          1001d8d0 f   qgl_win.obj
 0001:0001c900       _logPixelMapfv@12          1001d900 f   qgl_win.obj
 0001:0001c940       _logPixelMapuiv@12         1001d940 f   qgl_win.obj
 0001:0001c980       _logPixelMapusv@12         1001d980 f   qgl_win.obj
 0001:0001c9c0       _logPixelStoref@8          1001d9c0 f   qgl_win.obj
 0001:0001ca00       _logPixelStorei@8          1001da00 f   qgl_win.obj
 0001:0001ca40       _logPixelTransferf@8       1001da40 f   qgl_win.obj
 0001:0001ca80       _logPixelTransferi@8       1001da80 f   qgl_win.obj
 0001:0001cac0       _logPixelZoom@8            1001dac0 f   qgl_win.obj
 0001:0001cb00       _logPointSize@4            1001db00 f   qgl_win.obj
 0001:0001cb30       _logPolygonMode@8          1001db30 f   qgl_win.obj
 0001:0001cb70       _logPolygonOffset@8        1001db70 f   qgl_win.obj
 0001:0001cbb0       _logPolygonStipple@4       1001dbb0 f   qgl_win.obj
 0001:0001cbe0       _logPopAttrib@0            1001dbe0 f   qgl_win.obj
 0001:0001cc10       _logPopClientAttrib@0      1001dc10 f   qgl_win.obj
 0001:0001cc40       _logPopMatrix@0            1001dc40 f   qgl_win.obj
 0001:0001cc70       _logPopName@0              1001dc70 f   qgl_win.obj
 0001:0001cca0       _logPrioritizeTextures@12  1001dca0 f   qgl_win.obj
 0001:0001cce0       _logPushAttrib@4           1001dce0 f   qgl_win.obj
 0001:0001cd10       _logPushClientAttrib@4     1001dd10 f   qgl_win.obj
 0001:0001cd40       _logPushMatrix@0           1001dd40 f   qgl_win.obj
 0001:0001cd70       _logPushName@4             1001dd70 f   qgl_win.obj
 0001:0001cda0       _logRasterPos2d@16         1001dda0 f   qgl_win.obj
 0001:0001cde0       _logRasterPos2dv@4         1001dde0 f   qgl_win.obj
 0001:0001ce10       _logRasterPos2f@8          1001de10 f   qgl_win.obj
 0001:0001ce50       _logRasterPos2fv@4         1001de50 f   qgl_win.obj
 0001:0001ce80       _logRasterPos2i@8          1001de80 f   qgl_win.obj
 0001:0001cec0       _logRasterPos2iv@4         1001dec0 f   qgl_win.obj
 0001:0001cef0       _logRasterPos2s@8          1001def0 f   qgl_win.obj
 0001:0001cf30       _logRasterPos2sv@4         1001df30 f   qgl_win.obj
 0001:0001cf60       _logRasterPos3d@24         1001df60 f   qgl_win.obj
 0001:0001cfb0       _logRasterPos3dv@4         1001dfb0 f   qgl_win.obj
 0001:0001cfe0       _logRasterPos3f@12         1001dfe0 f   qgl_win.obj
 0001:0001d020       _logRasterPos3fv@4         1001e020 f   qgl_win.obj
 0001:0001d050       _logRasterPos3i@12         1001e050 f   qgl_win.obj
 0001:0001d090       _logRasterPos3iv@4         1001e090 f   qgl_win.obj
 0001:0001d0c0       _logRasterPos3s@12         1001e0c0 f   qgl_win.obj
 0001:0001d100       _logRasterPos3sv@4         1001e100 f   qgl_win.obj
 0001:0001d130       _logRasterPos4d@32         1001e130 f   qgl_win.obj
 0001:0001d180       _logRasterPos4dv@4         1001e180 f   qgl_win.obj
 0001:0001d1b0       _logRasterPos4f@16         1001e1b0 f   qgl_win.obj
 0001:0001d1f0       _logRasterPos4fv@4         1001e1f0 f   qgl_win.obj
 0001:0001d220       _logRasterPos4i@16         1001e220 f   qgl_win.obj
 0001:0001d260       _logRasterPos4iv@4         1001e260 f   qgl_win.obj
 0001:0001d290       _logRasterPos4s@16         1001e290 f   qgl_win.obj
 0001:0001d2d0       _logRasterPos4sv@4         1001e2d0 f   qgl_win.obj
 0001:0001d300       _logReadBuffer@4           1001e300 f   qgl_win.obj
 0001:0001d330       _logReadPixels@28          1001e330 f   qgl_win.obj
 0001:0001d380       _logRectd@32               1001e380 f   qgl_win.obj
 0001:0001d3d0       _logRectdv@8               1001e3d0 f   qgl_win.obj
 0001:0001d410       _logRectf@16               1001e410 f   qgl_win.obj
 0001:0001d450       _logRectfv@8               1001e450 f   qgl_win.obj
 0001:0001d490       _logRecti@16               1001e490 f   qgl_win.obj
 0001:0001d4d0       _logRectiv@8               1001e4d0 f   qgl_win.obj
 0001:0001d510       _logRects@16               1001e510 f   qgl_win.obj
 0001:0001d550       _logRectsv@8               1001e550 f   qgl_win.obj
 0001:0001d590       _logRenderMode@4           1001e590 f   qgl_win.obj
 0001:0001d5c0       _logRotated@32             1001e5c0 f   qgl_win.obj
 0001:0001d610       _logRotatef@16             1001e610 f   qgl_win.obj
 0001:0001d650       _logScaled@24              1001e650 f   qgl_win.obj
 0001:0001d6a0       _logScalef@12              1001e6a0 f   qgl_win.obj
 0001:0001d6e0       _logScissor@16             1001e6e0 f   qgl_win.obj
 0001:0001d720       _logSelectBuffer@8         1001e720 f   qgl_win.obj
 0001:0001d760       _logShadeModel@4           1001e760 f   qgl_win.obj
 0001:0001d790       _logStencilFunc@12         1001e790 f   qgl_win.obj
 0001:0001d7d0       _logStencilMask@4          1001e7d0 f   qgl_win.obj
 0001:0001d800       _logStencilOp@12           1001e800 f   qgl_win.obj
 0001:0001d840       _logTexCoord1d@8           1001e840 f   qgl_win.obj
 0001:0001d880       _logTexCoord1dv@4          1001e880 f   qgl_win.obj
 0001:0001d8b0       _logTexCoord1f@4           1001e8b0 f   qgl_win.obj
 0001:0001d8e0       _logTexCoord1fv@4          1001e8e0 f   qgl_win.obj
 0001:0001d910       _logTexCoord1i@4           1001e910 f   qgl_win.obj
 0001:0001d940       _logTexCoord1iv@4          1001e940 f   qgl_win.obj
 0001:0001d970       _logTexCoord1s@4           1001e970 f   qgl_win.obj
 0001:0001d9a0       _logTexCoord1sv@4          1001e9a0 f   qgl_win.obj
 0001:0001d9d0       _logTexCoord2d@16          1001e9d0 f   qgl_win.obj
 0001:0001da10       _logTexCoord2dv@4          1001ea10 f   qgl_win.obj
 0001:0001da40       _logTexCoord2f@8           1001ea40 f   qgl_win.obj
 0001:0001da80       _logTexCoord2fv@4          1001ea80 f   qgl_win.obj
 0001:0001dab0       _logTexCoord2i@8           1001eab0 f   qgl_win.obj
 0001:0001daf0       _logTexCoord2iv@4          1001eaf0 f   qgl_win.obj
 0001:0001db20       _logTexCoord2s@8           1001eb20 f   qgl_win.obj
 0001:0001db60       _logTexCoord2sv@4          1001eb60 f   qgl_win.obj
 0001:0001db90       _logTexCoord3d@24          1001eb90 f   qgl_win.obj
 0001:0001dbe0       _logTexCoord3dv@4          1001ebe0 f   qgl_win.obj
 0001:0001dc10       _logTexCoord3f@12          1001ec10 f   qgl_win.obj
 0001:0001dc50       _logTexCoord3fv@4          1001ec50 f   qgl_win.obj
 0001:0001dc80       _logTexCoord3i@12          1001ec80 f   qgl_win.obj
 0001:0001dcc0       _logTexCoord3iv@4          1001ecc0 f   qgl_win.obj
 0001:0001dcf0       _logTexCoord3s@12          1001ecf0 f   qgl_win.obj
 0001:0001dd30       _logTexCoord3sv@4          1001ed30 f   qgl_win.obj
 0001:0001dd60       _logTexCoord4d@32          1001ed60 f   qgl_win.obj
 0001:0001ddb0       _logTexCoord4dv@4          1001edb0 f   qgl_win.obj
 0001:0001dde0       _logTexCoord4f@16          1001ede0 f   qgl_win.obj
 0001:0001de20       _logTexCoord4fv@4          1001ee20 f   qgl_win.obj
 0001:0001de50       _logTexCoord4i@16          1001ee50 f   qgl_win.obj
 0001:0001de90       _logTexCoord4iv@4          1001ee90 f   qgl_win.obj
 0001:0001dec0       _logTexCoord4s@16          1001eec0 f   qgl_win.obj
 0001:0001df00       _logTexCoord4sv@4          1001ef00 f   qgl_win.obj
 0001:0001df30       _logTexCoordPointer@16     1001ef30 f   qgl_win.obj
 0001:0001df70       _logTexEnvf@12             1001ef70 f   qgl_win.obj
 0001:0001dfc0       _logTexEnvfv@12            1001efc0 f   qgl_win.obj
 0001:0001e000       _logTexEnvi@12             1001f000 f   qgl_win.obj
 0001:0001e050       _logTexEnviv@12            1001f050 f   qgl_win.obj
 0001:0001e090       _logTexGend@16             1001f090 f   qgl_win.obj
 0001:0001e0d0       _logTexGendv@12            1001f0d0 f   qgl_win.obj
 0001:0001e110       _logTexGenf@12             1001f110 f   qgl_win.obj
 0001:0001e150       _logTexGenfv@12            1001f150 f   qgl_win.obj
 0001:0001e190       _logTexGeni@12             1001f190 f   qgl_win.obj
 0001:0001e1d0       _logTexGeniv@12            1001f1d0 f   qgl_win.obj
 0001:0001e210       _logTexImage1D@32          1001f210 f   qgl_win.obj
 0001:0001e260       _logTexImage2D@36          1001f260 f   qgl_win.obj
 0001:0001e2b0       _logTexParameterf@12       1001f2b0 f   qgl_win.obj
 0001:0001e300       _logTexParameterfv@12      1001f300 f   qgl_win.obj
 0001:0001e340       _logTexParameteri@12       1001f340 f   qgl_win.obj
 0001:0001e390       _logTexParameteriv@12      1001f390 f   qgl_win.obj
 0001:0001e3d0       _logTexSubImage1D@28       1001f3d0 f   qgl_win.obj
 0001:0001e420       _logTexSubImage2D@36       1001f420 f   qgl_win.obj
 0001:0001e470       _logTranslated@24          1001f470 f   qgl_win.obj
 0001:0001e4c0       _logTranslatef@12          1001f4c0 f   qgl_win.obj
 0001:0001e500       _logVertex2d@16            1001f500 f   qgl_win.obj
 0001:0001e540       _logVertex2dv@4            1001f540 f   qgl_win.obj
 0001:0001e570       _logVertex2f@8             1001f570 f   qgl_win.obj
 0001:0001e5b0       _logVertex2fv@4            1001f5b0 f   qgl_win.obj
 0001:0001e5e0       _logVertex2i@8             1001f5e0 f   qgl_win.obj
 0001:0001e620       _logVertex2iv@4            1001f620 f   qgl_win.obj
 0001:0001e650       _logVertex2s@8             1001f650 f   qgl_win.obj
 0001:0001e690       _logVertex2sv@4            1001f690 f   qgl_win.obj
 0001:0001e6c0       _logVertex3d@24            1001f6c0 f   qgl_win.obj
 0001:0001e710       _logVertex3dv@4            1001f710 f   qgl_win.obj
 0001:0001e740       _logVertex3f@12            1001f740 f   qgl_win.obj
 0001:0001e780       _logVertex3fv@4            1001f780 f   qgl_win.obj
 0001:0001e7b0       _logVertex3i@12            1001f7b0 f   qgl_win.obj
 0001:0001e7f0       _logVertex3iv@4            1001f7f0 f   qgl_win.obj
 0001:0001e820       _logVertex3s@12            1001f820 f   qgl_win.obj
 0001:0001e860       _logVertex3sv@4            1001f860 f   qgl_win.obj
 0001:0001e890       _logVertex4d@32            1001f890 f   qgl_win.obj
 0001:0001e8e0       _logVertex4dv@4            1001f8e0 f   qgl_win.obj
 0001:0001e910       _logVertex4f@16            1001f910 f   qgl_win.obj
 0001:0001e950       _logVertex4fv@4            1001f950 f   qgl_win.obj
 0001:0001e980       _logVertex4i@16            1001f980 f   qgl_win.obj
 0001:0001e9c0       _logVertex4iv@4            1001f9c0 f   qgl_win.obj
 0001:0001e9f0       _logVertex4s@16            1001f9f0 f   qgl_win.obj
 0001:0001ea30       _logVertex4sv@4            1001fa30 f   qgl_win.obj
 0001:0001ea60       _logVertexPointer@16       1001fa60 f   qgl_win.obj
 0001:0001eaa0       _logViewport@16            1001faa0 f   qgl_win.obj
 0001:00013f50       _CompareAttributes         10014f50 f   q_shwin.obj
 0001:000118f0       _VerifyDriver              100128f0 f   glw_imp.obj
 0001:0000db80       _GL_RenderLightmappedPoly  1000eb80 f   gl_rsurf.obj
 0001:0000ec50       _LM_InitBlock              1000fc50 f   gl_rsurf.obj
 0001:0000ec80       _LM_UploadBlock            1000fc80 f   gl_rsurf.obj
 0001:0000edb0       _LM_AllocBlock             1000fdb0 f   gl_rsurf.obj
 0001:00006610       _R_CullAliasModel          10007610 f   gl_mesh.obj
 0001:0003b4e0       _wcsncnt                   1003c4e0 f   LIBCMTD:w_map.obj
 0001:0003ae20       _wcsncnt                   1003be20 f   LIBCMTD:w_cmp.obj
 0001:0003a6d0       _wfindenv                  1003b6d0 f   LIBCMTD:wsetenv.obj
 0001:0003a750       _copy_environ              1003b750 f   LIBCMTD:wsetenv.obj
 0001:00039ca0       _findenv                   1003aca0 f   LIBCMTD:setenv.obj
 0001:00039d20       _copy_environ              1003ad20 f   LIBCMTD:setenv.obj
 0001:00039970       _strncnt                   1003a970 f   LIBCMTD:a_cmp.obj
 0001:0003824c       lupe                       1003924c f   LIBCMTD:strnicmp.obj
 0001:00038264       skip1                      10039264 f   LIBCMTD:strnicmp.obj
 0001:0003826e       skip2                      1003926e f   LIBCMTD:strnicmp.obj
 0001:00038275       eject                      10039275 f   LIBCMTD:strnicmp.obj
 0001:0003827f       differ                     1003927f f   LIBCMTD:strnicmp.obj
 0001:00038291       notclocale                 10039291 f   LIBCMTD:strnicmp.obj
 0001:000382a5       do_lock                    100392a5 f   LIBCMTD:strnicmp.obj
 0001:000382be       end_lock                   100392be f   LIBCMTD:strnicmp.obj
 0001:000382c4       lupe2                      100392c4 f   LIBCMTD:strnicmp.obj
 0001:000382ef       eject2                     100392ef f   LIBCMTD:strnicmp.obj
 0001:000382f5       differ2                    100392f5 f   LIBCMTD:strnicmp.obj
 0001:000382fe       toend2                     100392fe f   LIBCMTD:strnicmp.obj
 0001:0003830c       do_unlock                  1003930c f   LIBCMTD:strnicmp.obj
 0001:0003831a       end_unlock                 1003931a f   LIBCMTD:strnicmp.obj
 0001:0003831a       toend                      1003931a f   LIBCMTD:strnicmp.obj
 0001:00037020       __expandtime               10038020 f   LIBCMTD:strftime.obj
 0001:00037640       __store_str                10038640 f   LIBCMTD:strftime.obj
 0001:00037690       __store_num                10038690 f   LIBCMTD:strftime.obj
 0001:00037740       __store_number             10038740 f   LIBCMTD:strftime.obj
 0001:000377f0       __store_winword            100387f0 f   LIBCMTD:strftime.obj
 0001:00034d80       _getSystemCP               10035d80 f   LIBCMTD:mbctype.obj
 0001:00034de0       _CPtoLCID                  10035de0 f   LIBCMTD:mbctype.obj
 0001:00034e60       _setSBCS                   10035e60 f   LIBCMTD:mbctype.obj
 0001:00034ee0       _setSBUpLow                10035ee0 f   LIBCMTD:mbctype.obj
 0001:000348d0       _xcptlookup                100358d0 f   LIBCMTD:winxfltr.obj
 0001:00033981       L1                         10034981 f   LIBCMTD:ullrem.obj
 0001:0003398f       L3                         1003498f f   LIBCMTD:ullrem.obj
 0001:000339ba       L4                         100349ba f   LIBCMTD:ullrem.obj
 0001:000339c2       L5                         100349c2 f   LIBCMTD:ullrem.obj
 0001:000339d1       L2                         100349d1 f   LIBCMTD:ullrem.obj
 0001:00033912       L1                         10034912 f   LIBCMTD:ulldiv.obj
 0001:00033920       L3                         10034920 f   LIBCMTD:ulldiv.obj
 0001:0003394e       L4                         1003494e f   LIBCMTD:ulldiv.obj
 0001:0003394f       L5                         1003494f f   LIBCMTD:ulldiv.obj
 0001:00033953       L2                         10034953 f   LIBCMTD:ulldiv.obj
 0001:000333b0       _gu_return                 100343b0 f   LIBCMTD:exsup.obj
 0001:000333b8       __unwind_handler           100343b8 f   LIBCMTD:exsup.obj
 0001:00032800       _TranslateName             10033800 f   LIBCMTD:getqloc.obj
 0001:00032890       _GetLcidFromLangCountry    10033890 f   LIBCMTD:getqloc.obj
 0001:00032950       _LangCountryEnumProc@4     10033950 f   LIBCMTD:getqloc.obj
 0001:00032c80       _GetLcidFromLanguage       10033c80 f   LIBCMTD:getqloc.obj
 0001:00032d00       _LanguageEnumProc@4        10033d00 f   LIBCMTD:getqloc.obj
 0001:00032e20       _GetLcidFromCountry        10033e20 f   LIBCMTD:getqloc.obj
 0001:00032e70       _CountryEnumProc@4         10033e70 f   LIBCMTD:getqloc.obj
 0001:00032f20       _GetLcidFromDefault        10033f20 f   LIBCMTD:getqloc.obj
 0001:00032f50       _ProcessCodePage           10033f50 f   LIBCMTD:getqloc.obj
 0001:00032ff0       _TestDefaultCountry        10033ff0 f   LIBCMTD:getqloc.obj
 0001:00033040       _TestDefaultLanguage       10034040 f   LIBCMTD:getqloc.obj
 0001:000330d0       _IsThisWindowsNT           100340d0 f   LIBCMTD:getqloc.obj
 0001:00033120       _crtGetLocaleInfoA@16      10034120 f   LIBCMTD:getqloc.obj
 0001:000332b0       _LcidFromHexString         100342b0 f   LIBCMTD:getqloc.obj
 0001:00033330       _GetPrimaryLen             10034330 f   LIBCMTD:getqloc.obj
 0001:000325d4       listnext                   100335d4 f   LIBCMTD:strpbrk.obj
 0001:000325e1       listdone                   100335e1 f   LIBCMTD:strpbrk.obj
 0001:000325e4       dstnext                    100335e4 f   LIBCMTD:strpbrk.obj
 0001:000325f4       dstdone                    100335f4 f   LIBCMTD:strpbrk.obj
 0001:0003259a       okay                       1003359a f   LIBCMTD:strncmp.obj
 0001:000325ad       firstbig                   100335ad f   LIBCMTD:strncmp.obj
 0001:000325af       lastbig                    100335af f   LIBCMTD:strncmp.obj
 0001:000325b1       toend                      100335b1 f   LIBCMTD:strncmp.obj
 0001:00032554       listnext                   10033554 f   LIBCMTD:strcspn.obj
 0001:00032561       listdone                   10033561 f   LIBCMTD:strcspn.obj
 0001:00032568       dstnext                    10033568 f   LIBCMTD:strcspn.obj
 0001:00032576       dstdone                    10033576 f   LIBCMTD:strcspn.obj
 0001:00031e60       __get_lc_lconv             10032e60 f   LIBCMTD:initmon.obj
 0001:00032070       _fix_grouping              10033070 f   LIBCMTD:initmon.obj
 0001:000320f0       __free_lc_lconv            100330f0 f   LIBCMTD:initmon.obj
 0001:00031cb0       _fix_grouping              10032cb0 f   LIBCMTD:initnum.obj
 0001:00031160       __get_lc_time              10032160 f   LIBCMTD:inittime.obj
 0001:000316f0       __free_lc_time             100326f0 f   LIBCMTD:inittime.obj
 0001:0002fc34       label0                     10030c34 f   LIBCMTD:adj_fdiv.obj
 0001:0002fc3a       label1                     10030c3a f   LIBCMTD:adj_fdiv.obj
 0001:0002fc3f       label2                     10030c3f f   LIBCMTD:adj_fdiv.obj
 0001:0002fc45       label3                     10030c45 f   LIBCMTD:adj_fdiv.obj
 0001:0002fc4a       label4                     10030c4a f   LIBCMTD:adj_fdiv.obj
 0001:0002fc50       label5                     10030c50 f   LIBCMTD:adj_fdiv.obj
 0001:0002fc56       label6                     10030c56 f   LIBCMTD:adj_fdiv.obj
 0001:0002fc5c       label7                     10030c5c f   LIBCMTD:adj_fdiv.obj
 0001:0002fc62       label8                     10030c62 f   LIBCMTD:adj_fdiv.obj
 0001:0002fc7e       label9                     10030c7e f   LIBCMTD:adj_fdiv.obj
 0001:0002fc83       label10                    10030c83 f   LIBCMTD:adj_fdiv.obj
 0001:0002fc99       label11                    10030c99 f   LIBCMTD:adj_fdiv.obj
 0001:0002fc9e       label12                    10030c9e f   LIBCMTD:adj_fdiv.obj
 0001:0002fcba       label13                    10030cba f   LIBCMTD:adj_fdiv.obj
 0001:0002fcca       label14                    10030cca f   LIBCMTD:adj_fdiv.obj
 0001:0002fcde       label15                    10030cde f   LIBCMTD:adj_fdiv.obj
 0001:0002fcee       label16                    10030cee f   LIBCMTD:adj_fdiv.obj
 0001:0002fd0e       label17                    10030d0e f   LIBCMTD:adj_fdiv.obj
 0001:0002fd13       label18                    10030d13 f   LIBCMTD:adj_fdiv.obj
 0001:0002fd2d       label19                    10030d2d f   LIBCMTD:adj_fdiv.obj
 0001:0002fd32       label20                    10030d32 f   LIBCMTD:adj_fdiv.obj
 0001:0002fd52       label21                    10030d52 f   LIBCMTD:adj_fdiv.obj
 0001:0002fd66       label22                    10030d66 f   LIBCMTD:adj_fdiv.obj
 0001:0002fd7e       label23                    10030d7e f   LIBCMTD:adj_fdiv.obj
 0001:0002fd92       label24                    10030d92 f   LIBCMTD:adj_fdiv.obj
 0001:0002fdb2       label25                    10030db2 f   LIBCMTD:adj_fdiv.obj
 0001:0002fdb7       label26                    10030db7 f   LIBCMTD:adj_fdiv.obj
 0001:0002fdd1       label27                    10030dd1 f   LIBCMTD:adj_fdiv.obj
 0001:0002fdd6       label28                    10030dd6 f   LIBCMTD:adj_fdiv.obj
 0001:0002fdf6       label29                    10030df6 f   LIBCMTD:adj_fdiv.obj
 0001:0002fe0a       label30                    10030e0a f   LIBCMTD:adj_fdiv.obj
 0001:0002fe22       label31                    10030e22 f   LIBCMTD:adj_fdiv.obj
 0001:0002fe36       label32                    10030e36 f   LIBCMTD:adj_fdiv.obj
 0001:0002fe56       label33                    10030e56 f   LIBCMTD:adj_fdiv.obj
 0001:0002fe5b       label34                    10030e5b f   LIBCMTD:adj_fdiv.obj
 0001:0002fe75       label35                    10030e75 f   LIBCMTD:adj_fdiv.obj
 0001:0002fe7a       label36                    10030e7a f   LIBCMTD:adj_fdiv.obj
 0001:0002fe9a       label37                    10030e9a f   LIBCMTD:adj_fdiv.obj
 0001:0002feae       label38                    10030eae f   LIBCMTD:adj_fdiv.obj
 0001:0002fec6       label39                    10030ec6 f   LIBCMTD:adj_fdiv.obj
 0001:0002feda       label40                    10030eda f   LIBCMTD:adj_fdiv.obj
 0001:0002fefa       label41                    10030efa f   LIBCMTD:adj_fdiv.obj
 0001:0002feff       label42                    10030eff f   LIBCMTD:adj_fdiv.obj
 0001:0002ff19       label43                    10030f19 f   LIBCMTD:adj_fdiv.obj
 0001:0002ff1e       label44                    10030f1e f   LIBCMTD:adj_fdiv.obj
 0001:0002ff3e       label45                    10030f3e f   LIBCMTD:adj_fdiv.obj
 0001:0002ff52       label46                    10030f52 f   LIBCMTD:adj_fdiv.obj
 0001:0002ff6a       label47                    10030f6a f   LIBCMTD:adj_fdiv.obj
 0001:0002ff7e       label48                    10030f7e f   LIBCMTD:adj_fdiv.obj
 0001:0002ff9e       label49                    10030f9e f   LIBCMTD:adj_fdiv.obj
 0001:0002ffa3       label50                    10030fa3 f   LIBCMTD:adj_fdiv.obj
 0001:0002ffbd       label51                    10030fbd f   LIBCMTD:adj_fdiv.obj
 0001:0002ffc2       label52                    10030fc2 f   LIBCMTD:adj_fdiv.obj
 0001:0002ffe2       label53                    10030fe2 f   LIBCMTD:adj_fdiv.obj
 0001:0002fff6       label54                    10030ff6 f   LIBCMTD:adj_fdiv.obj
 0001:0003000e       label55                    1003100e f   LIBCMTD:adj_fdiv.obj
 0001:00030022       label56                    10031022 f   LIBCMTD:adj_fdiv.obj
 0001:00030042       label57                    10031042 f   LIBCMTD:adj_fdiv.obj
 0001:00030047       label58                    10031047 f   LIBCMTD:adj_fdiv.obj
 0001:00030061       label59                    10031061 f   LIBCMTD:adj_fdiv.obj
 0001:00030066       label60                    10031066 f   LIBCMTD:adj_fdiv.obj
 0001:00030086       label61                    10031086 f   LIBCMTD:adj_fdiv.obj
 0001:0003009a       label62                    1003109a f   LIBCMTD:adj_fdiv.obj
 0001:000300b2       label63                    100310b2 f   LIBCMTD:adj_fdiv.obj
 0001:0002f470       LeadUp1                    10030470 f   LIBCMTD:memmove.obj
 0001:0002f49c       LeadUp2                    1003049c f   LIBCMTD:memmove.obj
 0001:0002f4c0       LeadUp3                    100304c0 f   LIBCMTD:memmove.obj
 0001:0002f53f       UnwindUp0                  1003053f f   LIBCMTD:memmove.obj
 0001:0002f52c       UnwindUp1                  1003052c f   LIBCMTD:memmove.obj
 0001:0002f524       UnwindUp2                  10030524 f   LIBCMTD:memmove.obj
 0001:0002f51c       UnwindUp3                  1003051c f   LIBCMTD:memmove.obj
 0001:0002f514       UnwindUp4                  10030514 f   LIBCMTD:memmove.obj
 0001:0002f50c       UnwindUp5                  1003050c f   LIBCMTD:memmove.obj
 0001:0002f504       UnwindUp6                  10030504 f   LIBCMTD:memmove.obj
 0001:0002f4fc       UnwindUp7                  100304fc f   LIBCMTD:memmove.obj
 0001:0002f558       TrailUp0                   10030558 f   LIBCMTD:memmove.obj
 0001:0002f560       TrailUp1                   10030560 f   LIBCMTD:memmove.obj
 0001:0002f56c       TrailUp2                   1003056c f   LIBCMTD:memmove.obj
 0001:0002f580       TrailUp3                   10030580 f   LIBCMTD:memmove.obj
 0001:0002f5f8       LeadDown1                  100305f8 f   LIBCMTD:memmove.obj
 0001:0002f618       LeadDown2                  10030618 f   LIBCMTD:memmove.obj
 0001:0002f640       LeadDown3                  10030640 f   LIBCMTD:memmove.obj
 0001:0002f694       UnwindDown7                10030694 f   LIBCMTD:memmove.obj
 0001:0002f69c       UnwindDown6                1003069c f   LIBCMTD:memmove.obj
 0001:0002f6a4       UnwindDown5                100306a4 f   LIBCMTD:memmove.obj
 0001:0002f6ac       UnwindDown4                100306ac f   LIBCMTD:memmove.obj
 0001:0002f6b4       UnwindDown3                100306b4 f   LIBCMTD:memmove.obj
 0001:0002f6bc       UnwindDown2                100306bc f   LIBCMTD:memmove.obj
 0001:0002f6c4       UnwindDown1                100306c4 f   LIBCMTD:memmove.obj
 0001:0002f6d7       UnwindDown0                100306d7 f   LIBCMTD:memmove.obj
 0001:0002f6f0       TrailDown0                 100306f0 f   LIBCMTD:memmove.obj
 0001:0002f6f8       TrailDown1                 100306f8 f   LIBCMTD:memmove.obj
 0001:0002f708       TrailDown2                 10030708 f   LIBCMTD:memmove.obj
 0001:0002f71c       TrailDown3                 1003071c f   LIBCMTD:memmove.obj
 0001:0002f420       CopyUp                     10030420 f   LIBCMTD:memmove.obj
 0001:0002f43c       CopyLeadUp                 1003043c f   LIBCMTD:memmove.obj
 0001:0002f454       ByteCopyUp                 10030454 f   LIBCMTD:memmove.obj
 0001:0002f45c       CopyUnwindUp               1003045c f   LIBCMTD:memmove.obj
 0001:0002f598       CopyDown                   10030598 f   LIBCMTD:memmove.obj
 0001:0002f5c0       CopyUnwindDown             100305c0 f   LIBCMTD:memmove.obj
 0001:0002f5cc       CopyLeadDown               100305cc f   LIBCMTD:memmove.obj
 0001:0002f5e4       ByteCopyDown               100305e4 f   LIBCMTD:memmove.obj
 0001:0002e5a0       __abstract_cw              1002f5a0 f   LIBCMTD:ieee87.obj
 0001:0002e720       __hw_cw                    1002f720 f   LIBCMTD:ieee87.obj
 0001:0002e880       __abstract_sw              1002f880 f   LIBCMTD:ieee87.obj
 0001:0002dbd0       _parse_cmdline             1002ebd0 f   LIBCMTD:stdargv.obj
 0001:0002caf0       __tzset_lk                 1002daf0 f   LIBCMTD:tzset.obj
 0001:0002ced0       __isindst_lk               1002ded0 f   LIBCMTD:tzset.obj
 0001:0002d1d0       _cvtdate                   1002e1d0 f   LIBCMTD:tzset.obj
 0001:0002bfcb       front_misaligned           1002cfcb f   LIBCMTD:strncat.obj
 0001:0002bfda       find_end_of_front_string_loop 1002cfda f   LIBCMTD:strncat.obj
 0001:0002c00b       start_byte_3               1002d00b f   LIBCMTD:strncat.obj
 0001:0002c00e       start_byte_2               1002d00e f   LIBCMTD:strncat.obj
 0001:0002c013       start_byte_1               1002d013 f   LIBCMTD:strncat.obj
 0001:0002c018       start_byte_0               1002d018 f   LIBCMTD:strncat.obj
 0001:0002c01b       copy_start                 1002d01b f   LIBCMTD:strncat.obj
 0001:0002c030       back_misaligned            1002d030 f   LIBCMTD:strncat.obj
 0001:0002c04c       tail_loop_start            1002d04c f   LIBCMTD:strncat.obj
 0001:0002c053       tail_loop                  1002d053 f   LIBCMTD:strncat.obj
 0001:0002c060       empty_counter              1002d060 f   LIBCMTD:strncat.obj
 0001:0002c062       finish1                    1002d062 f   LIBCMTD:strncat.obj
 0001:0002c064       finish                     1002d064 f   LIBCMTD:strncat.obj
 0001:0002c06a       byte_0                     1002d06a f   LIBCMTD:strncat.obj
 0001:0002c074       main_loop                  1002d074 f   LIBCMTD:strncat.obj
 0001:0002c07c       main_loop_entrance         1002d07c f   LIBCMTD:strncat.obj
 0001:0002c0ae       byte_3                     1002d0ae f   LIBCMTD:strncat.obj
 0001:0002c0b8       byte_2                     1002d0b8 f   LIBCMTD:strncat.obj
 0001:0002c0c8       byte_1                     1002d0c8 f   LIBCMTD:strncat.obj
 0001:0002bd10       _xtoa                      1002cd10 f   LIBCMTD:xtoa.obj
 0001:0002be90       _x64toa@20                 1002ce90 f   LIBCMTD:xtoa.obj
 0001:0002b8a0       _ctrlevent_capture@4       1002c8a0 f   LIBCMTD:winsig.obj
 0001:0002bb80       _siglookup                 1002cb80 f   LIBCMTD:winsig.obj
 0001:0002ae30       _flsall                    1002be30 f   LIBCMTD:fflush.obj
 0001:0002a610       _write_char                1002b610 f   LIBCMTD:output.obj
 0001:0002a690       _write_multi_char          1002b690 f   LIBCMTD:output.obj
 0001:0002a6d0       _write_string              1002b6d0 f   LIBCMTD:output.obj
 0001:0002a720       _get_int_arg               1002b720 f   LIBCMTD:output.obj
 0001:0002a740       _get_int64_arg             1002b740 f   LIBCMTD:output.obj
 0001:0002a760       _get_short_arg             1002b760 f   LIBCMTD:output.obj
 0001:00029590       _$$$00001                  1002a590 f   LIBCMTD:strchr.obj
 0001:000295b8       str_misaligned             1002a5b8 f   LIBCMTD:strchr.obj
 0001:000295cb       main_loop_start            1002a5cb f   LIBCMTD:strchr.obj
 0001:000295d6       main_loop                  1002a5d6 f   LIBCMTD:strchr.obj
 0001:00029612       retnull                    1002a612 f   LIBCMTD:strchr.obj
 0001:00029614       retnull_bx                 1002a614 f   LIBCMTD:strchr.obj
 0001:00029618       chr_is_found               1002a618 f   LIBCMTD:strchr.obj
 0001:00029640       byte_3                     1002a640 f   LIBCMTD:strchr.obj
 0001:00029647       byte_2                     1002a647 f   LIBCMTD:strchr.obj
 0001:0002964e       byte_1                     1002a64e f   LIBCMTD:strchr.obj
 0001:00029655       byte_0                     1002a655 f   LIBCMTD:strchr.obj
 0001:00029590       found_bx                   1002a590 f   LIBCMTD:strchr.obj
 0001:00029540       _strncnt                   1002a540 f   LIBCMTD:a_map.obj
 0001:00028bd0       __setlocale_set_cat        10029bd0 f   LIBCMTD:setlocal.obj
 0001:00028d70       __setlocale_get_all        10029d70 f   LIBCMTD:setlocal.obj
 0001:00028799       hard                       10029799 f   LIBCMTD:llmul.obj
 0001:00028310       __get_fname                10029310 f   LIBCMTD:fpexcept.obj
 0001:00026ed1       fFEXP                      10027ed1 f   LIBCMTD:87tran.obj
 0001:00027011       _rtforexpinf               10028011 f   LIBCMTD:87tran.obj
 0001:00024f20       _doexit                    10025f20 f   LIBCMTD:crt0dat.obj
 0001:00025030       __initterm                 10026030 f   LIBCMTD:crt0dat.obj
 0001:000246c0       _CrtMessageWindow          100256c0 f   LIBCMTD:dbgrpt.obj
 0001:00023a50       __cftoe2                   10024a50 f   LIBCMTD:cvt.obj
 0001:00023c30       __cftof2                   10024c30 f   LIBCMTD:cvt.obj
 0001:00023ec0       __shift                    10024ec0 f   LIBCMTD:cvt.obj
 0001:00023040       _store_dt                  10024040 f   LIBCMTD:asctime.obj
 0001:0002297c       chk_null                   1002397c f   LIBCMTD:stricmp.obj
 0001:000229ae       done                       100239ae f   LIBCMTD:stricmp.obj
 0001:000229b3       notclocale                 100239b3 f   LIBCMTD:stricmp.obj
 0001:000229c7       do_lock                    100239c7 f   LIBCMTD:stricmp.obj
 0001:000229dc       end_lock                   100239dc f   LIBCMTD:stricmp.obj
 0001:000229e4       chk_null2                  100239e4 f   LIBCMTD:stricmp.obj
 0001:00022a0f       done2                      10023a0f f   LIBCMTD:stricmp.obj
 0001:00022a1f       do_unlock                  10023a1f f   LIBCMTD:stricmp.obj
 0001:00022a29       end_unlock                 10023a29 f   LIBCMTD:stricmp.obj
 0001:00022a2b       doret                      10023a2b f   LIBCMTD:stricmp.obj
 0001:00022444       src_misaligned             10023444 f   LIBCMTD:strncpy.obj
 0001:00022460       tail_loop_start            10023460 f   LIBCMTD:strncpy.obj
 0001:00022465       copy_tail_loop             10023465 f   LIBCMTD:strncpy.obj
 0001:00022472       fill_tail_end1             10023472 f   LIBCMTD:strncpy.obj
 0001:0002247a       align_dest                 1002347a f   LIBCMTD:strncpy.obj
 0001:00022482       dest_align_loop            10023482 f   LIBCMTD:strncpy.obj
 0001:00022494       dest_align_loop_end        10023494 f   LIBCMTD:strncpy.obj
 0001:0002249b       finish_loop                1002349b f   LIBCMTD:strncpy.obj
 0001:0002249e       fill_tail_zero_bytes       1002349e f   LIBCMTD:strncpy.obj
 0001:000224a3       finish                     100234a3 f   LIBCMTD:strncpy.obj
 0001:000224a9       main_loop                  100234a9 f   LIBCMTD:strncpy.obj
 0001:000224b1       main_loop_entrance         100234b1 f   LIBCMTD:strncpy.obj
 0001:000224e7       byte_2                     100234e7 f   LIBCMTD:strncpy.obj
 0001:000224f1       byte_1                     100234f1 f   LIBCMTD:strncpy.obj
 0001:000224fb       byte_0                     100234fb f   LIBCMTD:strncpy.obj
 0001:000224ff       fill_with_EOS_dwords       100234ff f   LIBCMTD:strncpy.obj
 0001:00022507       fill_dwords_with_EOS       10023507 f   LIBCMTD:strncpy.obj
 0001:00022509       fill_with_EOS_loop         10023509 f   LIBCMTD:strncpy.obj
 0001:00022511       fill_tail                  10023511 f   LIBCMTD:strncpy.obj
 0001:00022516       fill_tail_end              10023516 f   LIBCMTD:strncpy.obj
 0001:00021de8       findnext                   10022de8 f   LIBCMTD:strstr.obj
 0001:00021df9       loop_start                 10022df9 f   LIBCMTD:strstr.obj
 0001:00021dfc       in_loop                    10022dfc f   LIBCMTD:strstr.obj
 0001:00021e04       not_found                  10022e04 f   LIBCMTD:strstr.obj
 0001:00021e0a       first_char_found           10022e0a f   LIBCMTD:strstr.obj
 0001:00021e11       two_first_chars_equal      10022e11 f   LIBCMTD:strstr.obj
 0001:00021e14       compare_loop               10022e14 f   LIBCMTD:strstr.obj
 0001:00021e37       strchr_call                10022e37 f   LIBCMTD:strstr.obj
 0001:00021e43       match                      10022e43 f   LIBCMTD:strstr.obj
 0001:00021e4a       empty_str2                 10022e4a f   LIBCMTD:strstr.obj
 0001:000211a3       adjust_loop                100221a3 f   LIBCMTD:memset.obj
 0001:000211a9       dwords                     100221a9 f   LIBCMTD:memset.obj
 0001:000211c3       main_loop_tail             100221c3 f   LIBCMTD:memset.obj
 0001:000211c7       tail                       100221c7 f   LIBCMTD:memset.obj
 0001:000211cd       finish                     100221cd f   LIBCMTD:memset.obj
 0001:000211d3       toend                      100221d3 f   LIBCMTD:memset.obj
 0001:00021100       dodwords                   10022100 f   LIBCMTD:strcmp.obj
 0001:00021130       doneeq                     10022130 f   LIBCMTD:strcmp.obj
 0001:00021134       donene                     10022134 f   LIBCMTD:strcmp.obj
 0001:0002113c       dopartial                  1002213c f   LIBCMTD:strcmp.obj
 0001:00021158       doword                     10022158 f   LIBCMTD:strcmp.obj
 0001:0002107c       str_misaligned             1002207c f   LIBCMTD:strlen.obj
 0001:00021090       main_loop                  10022090 f   LIBCMTD:strlen.obj
 0001:000210c3       byte_3                     100220c3 f   LIBCMTD:strlen.obj
 0001:000210cd       byte_2                     100220cd f   LIBCMTD:strlen.obj
 0001:000210d7       byte_1                     100220d7 f   LIBCMTD:strlen.obj
 0001:000210e1       byte_0                     100220e1 f   LIBCMTD:strlen.obj
 0001:00020f9d       dest_misaligned            10021f9d f   LIBCMTD:strcat.obj
 0001:00020fac       find_end_of_dest_string_loop 10021fac f   LIBCMTD:strcat.obj
 0001:00020fdf       start_byte_3               10021fdf f   LIBCMTD:strcat.obj
 0001:00020fe4       start_byte_2               10021fe4 f   LIBCMTD:strcat.obj
 0001:00020fe9       start_byte_1               10021fe9 f   LIBCMTD:strcat.obj
 0001:00020fee       start_byte_0               10021fee f   LIBCMTD:strcat.obj
 0001:00020ffd       src_misaligned             10021ffd f   LIBCMTD:strcat.obj
 0001:00021011       main_loop                  10022011 f   LIBCMTD:strcat.obj
 0001:00021016       main_loop_entrance         10022016 f   LIBCMTD:strcat.obj
 0001:0002104a       byte_3                     1002204a f   LIBCMTD:strcat.obj
 0001:00021052       byte_2                     10022052 f   LIBCMTD:strcat.obj
 0001:0002105f       byte_1                     1002205f f   LIBCMTD:strcat.obj
 0001:00021068       byte_0                     10022068 f   LIBCMTD:strcat.obj
 0001:00020ff1       copy_start                 10021ff1 f   LIBCMTD:strcat.obj
 0001:00020cb0       LeadUp1                    10021cb0 f   LIBCMTD:memcpy.obj
 0001:00020cdc       LeadUp2                    10021cdc f   LIBCMTD:memcpy.obj
 0001:00020d00       LeadUp3                    10021d00 f   LIBCMTD:memcpy.obj
 0001:00020d7f       UnwindUp0                  10021d7f f   LIBCMTD:memcpy.obj
 0001:00020d6c       UnwindUp1                  10021d6c f   LIBCMTD:memcpy.obj
 0001:00020d64       UnwindUp2                  10021d64 f   LIBCMTD:memcpy.obj
 0001:00020d5c       UnwindUp3                  10021d5c f   LIBCMTD:memcpy.obj
 0001:00020d54       UnwindUp4                  10021d54 f   LIBCMTD:memcpy.obj
 0001:00020d4c       UnwindUp5                  10021d4c f   LIBCMTD:memcpy.obj
 0001:00020d44       UnwindUp6                  10021d44 f   LIBCMTD:memcpy.obj
 0001:00020d3c       UnwindUp7                  10021d3c f   LIBCMTD:memcpy.obj
 0001:00020d98       TrailUp0                   10021d98 f   LIBCMTD:memcpy.obj
 0001:00020da0       TrailUp1                   10021da0 f   LIBCMTD:memcpy.obj
 0001:00020dac       TrailUp2                   10021dac f   LIBCMTD:memcpy.obj
 0001:00020dc0       TrailUp3                   10021dc0 f   LIBCMTD:memcpy.obj
 0001:00020e38       LeadDown1                  10021e38 f   LIBCMTD:memcpy.obj
 0001:00020e58       LeadDown2                  10021e58 f   LIBCMTD:memcpy.obj
 0001:00020e80       LeadDown3                  10021e80 f   LIBCMTD:memcpy.obj
 0001:00020ed4       UnwindDown7                10021ed4 f   LIBCMTD:memcpy.obj
 0001:00020edc       UnwindDown6                10021edc f   LIBCMTD:memcpy.obj
 0001:00020ee4       UnwindDown5                10021ee4 f   LIBCMTD:memcpy.obj
 0001:00020eec       UnwindDown4                10021eec f   LIBCMTD:memcpy.obj
 0001:00020ef4       UnwindDown3                10021ef4 f   LIBCMTD:memcpy.obj
 0001:00020efc       UnwindDown2                10021efc f   LIBCMTD:memcpy.obj
 0001:00020f04       UnwindDown1                10021f04 f   LIBCMTD:memcpy.obj
 0001:00020f17       UnwindDown0                10021f17 f   LIBCMTD:memcpy.obj
 0001:00020f30       TrailDown0                 10021f30 f   LIBCMTD:memcpy.obj
 0001:00020f38       TrailDown1                 10021f38 f   LIBCMTD:memcpy.obj
 0001:00020f48       TrailDown2                 10021f48 f   LIBCMTD:memcpy.obj
 0001:00020f5c       TrailDown3                 10021f5c f   LIBCMTD:memcpy.obj
 0001:00020c60       CopyUp                     10021c60 f   LIBCMTD:memcpy.obj
 0001:00020c7c       CopyLeadUp                 10021c7c f   LIBCMTD:memcpy.obj
 0001:00020c94       ByteCopyUp                 10021c94 f   LIBCMTD:memcpy.obj
 0001:00020c9c       CopyUnwindUp               10021c9c f   LIBCMTD:memcpy.obj
 0001:00020dd8       CopyDown                   10021dd8 f   LIBCMTD:memcpy.obj
 0001:00020e00       CopyUnwindDown             10021e00 f   LIBCMTD:memcpy.obj
 0001:00020e0c       CopyLeadDown               10021e0c f   LIBCMTD:memcpy.obj
 0001:00020e24       ByteCopyDown               10021e24 f   LIBCMTD:memcpy.obj
 0001:0001f1a0       _realloc_help              100201a0 f   LIBCMTD:dbgheap.obj
 0001:0001fde0       _CheckBytes                10020de0 f   LIBCMTD:dbgheap.obj
 0001:000209d0       __printMemBlockData        100219d0 f   LIBCMTD:dbgheap.obj
 0001:0001ec50       _$$$00001                  1001fc50 f   LIBCMTD:chkstk.obj
 0001:0001ec5c       probepages                 1001fc5c f   LIBCMTD:chkstk.obj
 0001:0001ec70       lastpage                   1001fc70 f   LIBCMTD:chkstk.obj
