 gamex86

 Timestamp is 53e001ce (Mon Aug 04 23:57:34 2014)

 Preferred load address is 10000000

 Start         Length     Name                   Class
 0001:00000000 00052af7H .text                   CODE
 0002:00000000 00000140H .idata$5                DATA
 0002:00000140 00007eacH .rdata                  DATA
 0002:00007fec 00000014H .idata$2                DATA
 0002:00008000 00000014H .idata$3                DATA
 0002:00008014 00000140H .idata$4                DATA
 0002:00008154 0000058cH .idata$6                DATA
 0002:000086e0 00000049H .edata                  DATA
 0003:00000000 00000004H .CRT$XCA                DATA
 0003:00000004 00000004H .CRT$XCZ                DATA
 0003:00000008 00000004H .CRT$XIA                DATA
 0003:0000000c 00000008H .CRT$XIC                DATA
 0003:00000014 00000004H .CRT$XIZ                DATA
 0003:00000018 00000004H .CRT$XPA                DATA
 0003:0000001c 00000004H .CRT$XPX                DATA
 0003:00000020 00000004H .CRT$XPZ                DATA
 0003:00000024 00000004H .CRT$XTA                DATA
 0003:00000028 00000004H .CRT$XTZ                DATA
 0003:00000030 0000364cH .data                   DATA
 0003:00003680 00010900H .bss                    DATA

  Address         Publics by Value              Rva+Base     Lib:Object

 0001:00000000       _AI_SetSightClient         10001000 f   g_ai.obj
 0001:000000c0       _ai_move                   100010c0 f   g_ai.obj
 0001:000000f0       _ai_stand                  100010f0 f   g_ai.obj
 0001:00000320       _ai_walk                   10001320 f   g_ai.obj
 0001:00000410       _ai_charge                 10001410 f   g_ai.obj
 0001:000004b0       _ai_turn                   100014b0 f   g_ai.obj
 0001:00000510       _range                     10001510 f   g_ai.obj
 0001:000005a0       _visible                   100015a0 f   g_ai.obj
 0001:00000660       _infront                   10001660 f   g_ai.obj
 0001:00000700       _HuntTarget                10001700 f   g_ai.obj
 0001:000007d0       _FoundTarget               100017d0 f   g_ai.obj
 0001:00000990       _FindTarget                10001990 f   g_ai.obj
 0001:00000e50       _FacingIdeal               10001e50 f   g_ai.obj
 0001:00000eb0       _M_CheckAttack             10001eb0 f   g_ai.obj
 0001:00001190       _ai_run_melee              10002190 f   g_ai.obj
 0001:000011f0       _ai_run_missile            100021f0 f   g_ai.obj
 0001:00001250       _ai_run_slide              10002250 f   g_ai.obj
 0001:00001300       _ai_checkattack            10002300 f   g_ai.obj
 0001:00001710       _ai_run                    10002710 f   g_ai.obj
 0001:00002100       _UpdateChaseCam            10003100 f   g_chase.obj
 0001:000025c0       _ChaseNext                 100035c0 f   g_chase.obj
 0001:00002680       _ChasePrev                 10003680 f   g_chase.obj
 0001:00002740       _ClientTeam                10003740 f   g_cmds.obj
 0001:000027e0       _OnSameTeam                100037e0 f   g_cmds.obj
 0001:00002870       _SelectNextItem            10003870 f   g_cmds.obj
 0001:00002960       _SelectPrevItem            10003960 f   g_cmds.obj
 0001:00002a50       _ValidateSelectedItem      10003a50 f   g_cmds.obj
 0001:00002a90       _Cmd_Give_f                10003a90 f   g_cmds.obj
 0001:00002f80       _Cmd_God_f                 10003f80 f   g_cmds.obj
 0001:00003020       _Cmd_Notarget_f            10004020 f   g_cmds.obj
 0001:000030c0       _Cmd_Noclip_f              100040c0 f   g_cmds.obj
 0001:00003160       _Cmd_Use_f                 10004160 f   g_cmds.obj
 0001:00003220       _Cmd_Drop_f                10004220 f   g_cmds.obj
 0001:00003320       _Cmd_Inven_f               10004320 f   g_cmds.obj
 0001:00003430       _Cmd_InvUse_f              10004430 f   g_cmds.obj
 0001:000034e0       _Cmd_LastWeap_f            100044e0 f   g_cmds.obj
 0001:00003530       _Cmd_WeapPrev_f            10004530 f   g_cmds.obj
 0001:00003610       _Cmd_WeapNext_f            10004610 f   g_cmds.obj
 0001:000036f0       _Cmd_WeapLast_f            100046f0 f   g_cmds.obj
 0001:00003790       _Cmd_InvDrop_f             10004790 f   g_cmds.obj
 0001:00003820       _Cmd_Kill_f                10004820 f   g_cmds.obj
 0001:000038b0       _Cmd_PutAway_f             100048b0 f   g_cmds.obj
 0001:00003920       _PlayerSort                10004920 f   g_cmds.obj
 0001:000039a0       _Cmd_Players_f             100049a0 f   g_cmds.obj
 0001:00003b20       _Cmd_Wave_f                10004b20 f   g_cmds.obj
 0001:00003ca0       _CheckFlood                10004ca0 f   g_cmds.obj
 0001:00003e10       _Cmd_Say_f                 10004e10 f   g_cmds.obj
 0001:00004030       _ClientCommand             10005030 f   g_cmds.obj
 0001:00004670       _CanDamage                 10005670 f   g_combat.obj
 0001:000049c0       _Killed                    100059c0 f   g_combat.obj
 0001:00004b40       _SpawnDamage               10005b40 f   g_combat.obj
 0001:00004bb0       _M_ReactToDamage           10005bb0 f   g_combat.obj
 0001:00004e20       _CheckTeamDamage           10005e20 f   g_combat.obj
 0001:00004e90       _T_Damage                  10005e90 f   g_combat.obj
 0001:000058f0       _T_RadiusDamage            100068f0 f   g_combat.obj
 0001:00005a90       _stuffcmd                  10006a90 f   g_ctf.obj
 0001:00005ad0       _CTFSpawn                  10006ad0 f   g_ctf.obj
 0001:00005b70       _CTFInit                   10006b70 f   g_ctf.obj
 0001:00005cc0       _CTFPrecache               10006cc0 f   g_ctf.obj
 0001:00005db0       _CTFTeamName               10006db0 f   g_ctf.obj
 0001:00005df0       _CTFOtherTeamName          10006df0 f   g_ctf.obj
 0001:00005e30       _CTFOtherTeam              10006e30 f   g_ctf.obj
 0001:00005e70       _CTFAssignSkin             10006e70 f   g_ctf.obj
 0001:00005fb0       _CTFAssignTeam             10006fb0 f   g_ctf.obj
 0001:000060e0       _SelectCTFSpawnPoint       100070e0 f   g_ctf.obj
 0001:000062a0       _CTFFragBonuses            100072a0 f   g_ctf.obj
 0001:00006c10       _CTFCheckHurtCarrier       10007c10 f   g_ctf.obj
 0001:00006cb0       _CTFResetFlag              10007cb0 f   g_ctf.obj
 0001:00006d70       _CTFResetFlags             10007d70 f   g_ctf.obj
 0001:00006da0       _CTFPickup_Flag            10007da0 f   g_ctf.obj
 0001:00007260       _CTFDeadDropFlag           10008260 f   g_ctf.obj
 0001:000074c0       _CTFDrop_Flag              100084c0 f   g_ctf.obj
 0001:00007510       _CTFFlagSetup              10008510 f   g_ctf.obj
 0001:00007780       _CTFEffects                10008780 f   g_ctf.obj
 0001:00007890       _CTFCalcScores             10008890 f   g_ctf.obj
 0001:00007980       _CTFID_f                   10008980 f   g_ctf.obj
 0001:000079f0       _SetCTFStats               100089f0 f   g_ctf.obj
 0001:00008310       _SP_info_player_team1      10009310 f   g_ctf.obj
 0001:00008320       _SP_info_player_team2      10009320 f   g_ctf.obj
 0001:00008330       _CTFPlayerResetGrapple     10009330 f   g_ctf.obj
 0001:00008370       _CTFResetGrapple           10009370 f   g_ctf.obj
 0001:00008440       _CTFGrappleTouch           10009440 f   g_ctf.obj
 0001:00008650       _CTFGrappleDrawCable       10009650 f   g_ctf.obj
 0001:00008800       _CTFGrapplePull            10009800 f   g_ctf.obj
 0001:00008c90       _CTFFireGrapple            10009c90 f   g_ctf.obj
 0001:00008ea0       _CTFGrappleFire            10009ea0 f   g_ctf.obj
 0001:00009000       _CTFWeapon_Grapple_Fire    1000a000 f   g_ctf.obj
 0001:00009050       _CTFWeapon_Grapple         1000a050 f   g_ctf.obj
 0001:000091e0       _CTFTeam_f                 1000a1e0 f   g_ctf.obj
 0001:00009440       _CTFScoreboardMessage      1000a440 f   g_ctf.obj
 0001:00009dd0       _CTFHasTech                1000add0 f   g_ctf.obj
 0001:00009e30       _CTFWhat_Tech              1000ae30 f   g_ctf.obj
 0001:00009eb0       _CTFPickup_Tech            1000aeb0 f   g_ctf.obj
 0001:00009f90       _CTFDrop_Tech              1000af90 f   g_ctf.obj
 0001:0000a0f0       _CTFDeadDropTech           1000b0f0 f   g_ctf.obj
 0001:0000a3e0       _CTFRespawnTech            1000b3e0 f   g_ctf.obj
 0001:0000a420       _CTFSetupTechSpawn         1000b420 f   g_ctf.obj
 0001:0000a500       _CTFResetTech              1000b500 f   g_ctf.obj
 0001:0000a590       _CTFApplyResistance        1000b590 f   g_ctf.obj
 0001:0000a660       _CTFApplyStrength          1000b660 f   g_ctf.obj
 0001:0000a6d0       _CTFApplyStrengthSound     1000b6d0 f   g_ctf.obj
 0001:0000a810       _CTFApplyHaste             1000b810 f   g_ctf.obj
 0001:0000a880       _CTFApplyHasteSound        1000b880 f   g_ctf.obj
 0001:0000a970       _CTFApplyRegeneration      1000b970 f   g_ctf.obj
 0001:0000ab80       _CTFHasRegeneration        1000bb80 f   g_ctf.obj
 0001:0000abf0       _CTFSay_Team               1000bbf0 f   g_ctf.obj
 0001:0000ba80       _SP_misc_ctf_banner        1000ca80 f   g_ctf.obj
 0001:0000bb70       _SP_misc_ctf_small_banner  1000cb70 f   g_ctf.obj
 0001:0000bc10       _CTFBeginElection          1000cc10 f   g_ctf.obj
 0001:0000bdc0       _CTFResetAllPlayers        1000cdc0 f   g_ctf.obj
 0001:0000bf70       _CTFAssignGhost            1000cf70 f   g_ctf.obj
 0001:0000c0e0       _CTFStartMatch             1000d0e0 f   g_ctf.obj
 0001:0000c2d0       _CTFEndMatch               1000d2d0 f   g_ctf.obj
 0001:0000c410       _CTFNextMap                1000d410 f   g_ctf.obj
 0001:0000c450       _CTFWinElection            1000d450 f   g_ctf.obj
 0001:0000c560       _CTFVoteYes                1000d560 f   g_ctf.obj
 0001:0000c660       _CTFVoteNo                 1000d660 f   g_ctf.obj
 0001:0000c730       _CTFReady                  1000d730 f   g_ctf.obj
 0001:0000c920       _CTFNotReady               1000d920 f   g_ctf.obj
 0001:0000ca20       _CTFGhost                  1000da20 f   g_ctf.obj
 0001:0000cc10       _CTFMatchSetup             1000dc10 f   g_ctf.obj
 0001:0000cc40       _CTFMatchOn                1000dc40 f   g_ctf.obj
 0001:0000cc70       _CTFJoinTeam               1000dc70 f   g_ctf.obj
 0001:0000cdb0       _CTFJoinTeam1              1000ddb0 f   g_ctf.obj
 0001:0000cdd0       _CTFJoinTeam2              1000ddd0 f   g_ctf.obj
 0001:0000cdf0       _CTFChaseCam               1000ddf0 f   g_ctf.obj
 0001:0000cf70       _CTFReturnToMain           1000df70 f   g_ctf.obj
 0001:0000cfa0       _CTFRequestMatch           1000dfa0 f   g_ctf.obj
 0001:0000d000       _CTFShowScores             1000e000 f   g_ctf.obj
 0001:0000d050       _CTFUpdateJoinMenu         1000e050 f   g_ctf.obj
 0001:0000d490       _CTFOpenJoinMenu           1000e490 f   g_ctf.obj
 0001:0000d500       _CTFCredits                1000e500 f   g_ctf.obj
 0001:0000d540       _CTFStartClient            1000e540 f   g_ctf.obj
 0001:0000d600       _CTFObserver               1000e600 f   g_ctf.obj
 0001:0000d710       _CTFInMatch                1000e710 f   g_ctf.obj
 0001:0000d740       _CTFCheckRules             1000e740 f   g_ctf.obj
 0001:0000dca0       _SP_trigger_teleport       1000eca0 f   g_ctf.obj
 0001:0000e000       _SP_info_teleport_destination 1000f000 f   g_ctf.obj
 0001:0000e030       _CTFAdmin_SettingsApply    1000f030 f   g_ctf.obj
 0001:0000e530       _CTFAdmin_SettingsCancel   1000f530 f   g_ctf.obj
 0001:0000e570       _CTFAdmin_ChangeMatchLen   1000f570 f   g_ctf.obj
 0001:0000e5c0       _CTFAdmin_ChangeMatchSetupLen 1000f5c0 f   g_ctf.obj
 0001:0000e620       _CTFAdmin_ChangeMatchStartLen 1000f620 f   g_ctf.obj
 0001:0000e680       _CTFAdmin_ChangeWeapStay   1000f680 f   g_ctf.obj
 0001:0000e6c0       _CTFAdmin_ChangeInstantItems 1000f6c0 f   g_ctf.obj
 0001:0000e700       _CTFAdmin_ChangeQuadDrop   1000f700 f   g_ctf.obj
 0001:0000e740       _CTFAdmin_ChangeInstantWeap 1000f740 f   g_ctf.obj
 0001:0000e780       _CTFAdmin_ChangeMatchLock  1000f780 f   g_ctf.obj
 0001:0000e7c0       _CTFAdmin_UpdateSettings   1000f7c0 f   g_ctf.obj
 0001:0000ea70       _CTFAdmin_Settings         1000fa70 f   g_ctf.obj
 0001:0000ebc0       _CTFAdmin_MatchSet         1000fbc0 f   g_ctf.obj
 0001:0000eca0       _CTFAdmin_MatchMode        1000fca0 f   g_ctf.obj
 0001:0000ed00       _CTFAdmin_Reset            1000fd00 f   g_ctf.obj
 0001:0000ed50       _CTFAdmin_Cancel           1000fd50 f   g_ctf.obj
 0001:0000ed70       _CTFOpenAdminMenu          1000fd70 f   g_ctf.obj
 0001:0000ee50       _CTFAdmin                  1000fe50 f   g_ctf.obj
 0001:0000efa0       _CTFStats                  1000ffa0 f   g_ctf.obj
 0001:0000f280       _CTFPlayerList             10010280 f   g_ctf.obj
 0001:0000f4a0       _CTFWarp                   100104a0 f   g_ctf.obj
 0001:0000f690       _CTFBoot                   10010690 f   g_ctf.obj
 0001:0000f7d0       _CTFSetPowerUpEffect       100107d0 f   g_ctf.obj
 0001:0000f840       _Move_Done                 10010840 f   g_func.obj
 0001:0000f890       _Move_Final                10010890 f   g_func.obj
 0001:0000f920       _Move_Begin                10010920 f   g_func.obj
 0001:0000fa00       _Move_Calc                 10010a00 f   g_func.obj
 0001:0000fb60       _AngleMove_Done            10010b60 f   g_func.obj
 0001:0000fbb0       _AngleMove_Final           10010bb0 f   g_func.obj
 0001:0000fca0       _AngleMove_Begin           10010ca0 f   g_func.obj
 0001:0000fdd0       _AngleMove_Calc            10010dd0 f   g_func.obj
 0001:0000fe80       _plat_CalcAcceleratedMove  10010e80 f   g_func.obj
 0001:0000ffb0       _plat_Accelerate           10010fb0 f   g_func.obj
 0001:000101b0       _Think_AccelMove           100111b0 f   g_func.obj
 0001:00010290       _plat_hit_top              10011290 f   g_func.obj
 0001:00010320       _plat_hit_bottom           10011320 f   g_func.obj
 0001:00010390       _plat_go_down              10011390 f   g_func.obj
 0001:00010420       _plat_go_up                10011420 f   g_func.obj
 0001:000104b0       _plat_blocked              100114b0 f   g_func.obj
 0001:00010590       _Use_Plat                  10011590 f   g_func.obj
 0001:000105c0       _Touch_Plat_Center         100115c0 f   g_func.obj
 0001:00010630       _plat_spawn_inside_trigger 10011630 f   g_func.obj
 0001:000107e0       _SP_func_plat              100117e0 f   g_func.obj
 0001:00010bb0       _rotating_blocked          10011bb0 f   g_func.obj
 0001:00010c00       _rotating_touch            10011c00 f   g_func.obj
 0001:00010c90       _rotating_use              10011c90 f   g_func.obj
 0001:00010d50       _SP_func_rotating          10011d50 f   g_func.obj
 0001:00010f50       _button_done               10011f50 f   g_func.obj
 0001:00010f90       _button_return             10011f90 f   g_func.obj
 0001:00010ff0       _button_wait               10011ff0 f   g_func.obj
 0001:00011090       _button_fire               10012090 f   g_func.obj
 0001:00011130       _button_use                10012130 f   g_func.obj
 0001:00011160       _button_touch              10012160 f   g_func.obj
 0001:000111b0       _button_killed             100121b0 f   g_func.obj
 0001:00011200       _SP_func_button            10012200 f   g_func.obj
 0001:00011590       _door_use_areaportals      10012590 f   g_func.obj
 0001:00011610       _door_hit_top              10012610 f   g_func.obj
 0001:000116d0       _door_hit_bottom           100126d0 f   g_func.obj
 0001:00011750       _door_go_down              10012750 f   g_func.obj
 0001:00011850       _door_go_up                10012850 f   g_func.obj
 0001:000119a0       _door_use                  100129a0 f   g_func.obj
 0001:00011a80       _Touch_DoorTrigger         10012a80 f   g_func.obj
 0001:00011b30       _Think_CalcMoveSpeed       10012b30 f   g_func.obj
 0001:00011ca0       _Think_SpawnDoorTrigger    10012ca0 f   g_func.obj
 0001:00011e50       _door_blocked              10012e50 f   g_func.obj
 0001:00011fa0       _door_killed               10012fa0 f   g_func.obj
 0001:00012010       _door_touch                10013010 f   g_func.obj
 0001:000120a0       _SP_func_door              100130a0 f   g_func.obj
 0001:00012610       _SP_func_door_rotating     10013610 f   g_func.obj
 0001:00012be0       _SP_func_water             10013be0 f   g_func.obj
 0001:00012ff0       _train_blocked             10013ff0 f   g_func.obj
 0001:000130d0       _train_wait                100140d0 f   g_func.obj
 0001:00013270       _train_next                10014270 f   g_func.obj
 0001:000134e0       _train_resume              100144e0 f   g_func.obj
 0001:000135c0       _func_train_find           100145c0 f   g_func.obj
 0001:000136f0       _train_use                 100146f0 f   g_func.obj
 0001:000137a0       _SP_func_train             100147a0 f   g_func.obj
 0001:00013930       _trigger_elevator_use      10014930 f   g_func.obj
 0001:000139e0       _trigger_elevator_init     100149e0 f   g_func.obj
 0001:00013ab0       _SP_trigger_elevator       10014ab0 f   g_func.obj
 0001:00013af0       _func_timer_think          10014af0 f   g_func.obj
 0001:00013b60       _func_timer_use            10014b60 f   g_func.obj
 0001:00013be0       _SP_func_timer             10014be0 f   g_func.obj
 0001:00013d00       _func_conveyor_use         10014d00 f   g_func.obj
 0001:00013d90       _SP_func_conveyor          10014d90 f   g_func.obj
 0001:00013e40       _door_secret_use           10014e40 f   g_func.obj
 0001:00013ea0       _door_secret_move1         10014ea0 f   g_func.obj
 0001:00013ee0       _door_secret_move2         10014ee0 f   g_func.obj
 0001:00013f10       _door_secret_move3         10014f10 f   g_func.obj
 0001:00013f60       _door_secret_move4         10014f60 f   g_func.obj
 0001:00013f90       _door_secret_move5         10014f90 f   g_func.obj
 0001:00013fd0       _door_secret_move6         10014fd0 f   g_func.obj
 0001:00014000       _door_secret_done          10015000 f   g_func.obj
 0001:00014060       _door_secret_blocked       10015060 f   g_func.obj
 0001:00014130       _door_secret_die           10015130 f   g_func.obj
 0001:00014170       _SP_func_door_secret       10015170 f   g_func.obj
 0001:000144e0       _use_killbox               100154e0 f   g_func.obj
 0001:00014500       _SP_func_killbox           10015500 f   g_func.obj
 0001:00014550       _GetItemByIndex            10015550 f   g_items.obj
 0001:00014580       _FindItemByClassname       10015580 f   g_items.obj
 0001:000145f0       _FindItem                  100155f0 f   g_items.obj
 0001:00014660       _DoRespawn                 10015660 f   g_items.obj
 0001:00014780       _SetRespawn                10015780 f   g_items.obj
 0001:00014800       _Pickup_Powerup            10015800 f   g_items.obj
 0001:000149e0       _Drop_General              100159e0 f   g_items.obj
 0001:00014a50       _Pickup_Adrenaline         10015a50 f   g_items.obj
 0001:00014b00       _Pickup_AncientHead        10015b00 f   g_items.obj
 0001:00014b70       _Pickup_Bandolier          10015b70 f   g_items.obj
 0001:00014d70       _Pickup_Pack               10015d70 f   g_items.obj
 0001:000151d0       _Use_Quad                  100161d0 f   g_items.obj
 0001:000152d0       _Use_Breather              100162d0 f   g_items.obj
 0001:00015380       _Use_Envirosuit            10016380 f   g_items.obj
 0001:00015430       _Use_Invulnerability       10016430 f   g_items.obj
 0001:00015510       _Use_Silencer              10016510 f   g_items.obj
 0001:00015590       _Pickup_Key                10016590 f   g_items.obj
 0001:00015720       _Add_Ammo                  10016720 f   g_items.obj
 0001:00015860       _Pickup_Ammo               10016860 f   g_items.obj
 0001:000159d0       _Drop_Ammo                 100169d0 f   g_items.obj
 0001:00015a80       _MegaHealth_think          10016a80 f   g_items.obj
 0001:00015b50       _Pickup_Health             10016b50 f   g_items.obj
 0001:00015cf0       _ArmorIndex                10016cf0 f   g_items.obj
 0001:00015d70       _Pickup_Armor              10016d70 f   g_items.obj
 0001:00015fb0       _PowerArmorType            10016fb0 f   g_items.obj
 0001:00016020       _Use_PowerArmor            10017020 f   g_items.obj
 0001:00016110       _Pickup_PowerArmor         10017110 f   g_items.obj
 0001:00016200       _Drop_PowerArmor           10017200 f   g_items.obj
 0001:00016270       _Touch_Item                10017270 f   g_items.obj
 0001:00016590       _Drop_Item                 10017590 f   g_items.obj
 0001:00016880       _Use_Item                  10017880 f   g_items.obj
 0001:00016910       _droptofloor               10017910 f   g_items.obj
 0001:00016c20       _PrecacheItem              10017c20 f   g_items.obj
 0001:00016e30       _SpawnItem                 10017e30 f   g_items.obj
 0001:00017160       _SP_item_health            10018160 f   g_items.obj
 0001:000171f0       _SP_item_health_small      100181f0 f   g_items.obj
 0001:00017290       _SP_item_health_large      10018290 f   g_items.obj
 0001:00017320       _SP_item_health_mega       10018320 f   g_items.obj
 0001:000173c0       _InitItems                 100183c0 f   g_items.obj
 0001:000173e0       _SetItemNames              100183e0 f   g_items.obj
 0001:000174e0       _ShutdownGame              100184e0 f   g_main.obj
 0001:00017520       _GetGameAPI                10018520 f   g_main.obj
 0001:000175f0       _Sys_Error                 100185f0 f   g_main.obj
 0001:00017640       _Com_Printf                10018640 f   g_main.obj
 0001:00017690       _ClientEndServerFrames     10018690 f   g_main.obj
 0001:00017700       _CreateTargetChangeLevel   10018700 f   g_main.obj
 0001:00017750       _EndDMLevel                10018750 f   g_main.obj
 0001:00017930       _CheckDMRules              10018930 f   g_main.obj
 0001:00017aa0       _ExitLevel                 10018aa0 f   g_main.obj
 0001:00017b90       _G_RunFrame                10018b90 f   g_main.obj
 0001:00017cf0       _Use_Areaportal            10018cf0 f   g_misc.obj
 0001:00017d40       _SP_func_areaportal        10018d40 f   g_misc.obj
 0001:00017d70       _VelocityForDamage         10018d70 f   g_misc.obj
 0001:00017e30       _ClipGibVelocity           10018e30 f   g_misc.obj
 0001:00017f20       _gib_think                 10018f20 f   g_misc.obj
 0001:00017fb0       _gib_touch                 10018fb0 f   g_misc.obj
 0001:00018090       _gib_die                   10019090 f   g_misc.obj
 0001:000180b0       _ThrowGib                  100190b0 f   g_misc.obj
 0001:00018340       _ThrowHead                 10019340 f   g_misc.obj
 0001:00018550       _ThrowClientHead           10019550 f   g_misc.obj
 0001:000186f0       _debris_die                100196f0 f   g_misc.obj
 0001:00018710       _ThrowDebris               10019710 f   g_misc.obj
 0001:00018920       _BecomeExplosion1          10019920 f   g_misc.obj
 0001:00018a30       _BecomeExplosion2          10019a30 f   g_misc.obj
 0001:00018a90       _path_corner_touch         10019a90 f   g_misc.obj
 0001:00018ca0       _SP_path_corner            10019ca0 f   g_misc.obj
 0001:00018d80       _point_combat_touch        10019d80 f   g_misc.obj
 0001:00018fc0       _SP_point_combat           10019fc0 f   g_misc.obj
 0001:00019080       _TH_viewthing              1001a080 f   g_misc.obj
 0001:00019110       _SP_viewthing              1001a110 f   g_misc.obj
 0001:000191f0       _SP_info_null              1001a1f0 f   g_misc.obj
 0001:00019210       _SP_info_notnull           1001a210 f   g_misc.obj
 0001:00019280       _SP_light                  1001a280 f   g_misc.obj
 0001:000193c0       _func_wall_use             1001a3c0 f   g_misc.obj
 0001:00019460       _SP_func_wall              1001a460 f   g_misc.obj
 0001:000195d0       _func_object_touch         1001a5d0 f   g_misc.obj
 0001:00019640       _func_object_release       1001a640 f   g_misc.obj
 0001:00019670       _func_object_use           1001a670 f   g_misc.obj
 0001:000196d0       _SP_func_object            1001a6d0 f   g_misc.obj
 0001:00019880       _func_explosive_explode    1001a880 f   g_misc.obj
 0001:00019be0       _func_explosive_use        1001abe0 f   g_misc.obj
 0001:00019c20       _func_explosive_spawn      1001ac20 f   g_misc.obj
 0001:00019c80       _SP_func_explosive         1001ac80 f   g_misc.obj
 0001:00019df0       _barrel_touch              1001adf0 f   g_misc.obj
 0001:00019e90       _barrel_explode            1001ae90 f   g_misc.obj
 0001:0001a940       _barrel_delay              1001b940 f   g_misc.obj
 0001:0001a990       _SP_misc_explobox          1001b990 f   g_misc.obj
 0001:0001ab30       _misc_blackhole_use        1001bb30 f   g_misc.obj
 0001:0001ab50       _misc_blackhole_think      1001bb50 f   g_misc.obj
 0001:0001abb0       _SP_misc_blackhole         1001bbb0 f   g_misc.obj
 0001:0001ac90       _misc_eastertank_think     1001bc90 f   g_misc.obj
 0001:0001ad00       _SP_misc_eastertank        1001bd00 f   g_misc.obj
 0001:0001add0       _misc_easterchick_think    1001bdd0 f   g_misc.obj
 0001:0001ae40       _SP_misc_easterchick       1001be40 f   g_misc.obj
 0001:0001af10       _misc_easterchick2_think   1001bf10 f   g_misc.obj
 0001:0001af80       _SP_misc_easterchick2      1001bf80 f   g_misc.obj
 0001:0001b050       _commander_body_think      1001c050 f   g_misc.obj
 0001:0001b0d0       _commander_body_use        1001c0d0 f   g_misc.obj
 0001:0001b130       _commander_body_drop       1001c130 f   g_misc.obj
 0001:0001b160       _SP_monster_commander_body 1001c160 f   g_misc.obj
 0001:0001b280       _misc_banner_think         1001c280 f   g_misc.obj
 0001:0001b2d0       _SP_misc_banner            1001c2d0 f   g_misc.obj
 0001:0001b360       _misc_deadsoldier_die      1001c360 f   g_misc.obj
 0001:0001b3f0       _SP_misc_deadsoldier       1001c3f0 f   g_misc.obj
 0001:0001b5a0       _misc_viper_use            1001c5a0 f   g_misc.obj
 0001:0001b5f0       _SP_misc_viper             1001c5f0 f   g_misc.obj
 0001:0001b770       _SP_misc_bigviper          1001c770 f   g_misc.obj
 0001:0001b810       _misc_viper_bomb_touch     1001c810 f   g_misc.obj
 0001:0001b890       _misc_viper_bomb_prethink  1001c890 f   g_misc.obj
 0001:0001b930       _misc_viper_bomb_use       1001c930 f   g_misc.obj
 0001:0001ba40       _SP_misc_viper_bomb        1001ca40 f   g_misc.obj
 0001:0001bb20       _misc_strogg_ship_use      1001cb20 f   g_misc.obj
 0001:0001bb70       _SP_misc_strogg_ship       1001cb70 f   g_misc.obj
 0001:0001bcf0       _misc_satellite_dish_think 1001ccf0 f   g_misc.obj
 0001:0001bd30       _misc_satellite_dish_use   1001cd30 f   g_misc.obj
 0001:0001bd70       _SP_misc_satellite_dish    1001cd70 f   g_misc.obj
 0001:0001be20       _SP_light_mine1            1001ce20 f   g_misc.obj
 0001:0001be70       _SP_light_mine2            1001ce70 f   g_misc.obj
 0001:0001bec0       _SP_misc_gib_arm           1001cec0 f   g_misc.obj
 0001:0001bff0       _SP_misc_gib_leg           1001cff0 f   g_misc.obj
 0001:0001c120       _SP_misc_gib_head          1001d120 f   g_misc.obj
 0001:0001c250       _SP_target_character       1001d250 f   g_misc.obj
 0001:0001c2b0       _target_string_use         1001d2b0 f   g_misc.obj
 0001:0001c3a0       _SP_target_string          1001d3a0 f   g_misc.obj
 0001:0001c3e0       _func_clock_think          1001d3e0 f   g_misc.obj
 0001:0001c860       _func_clock_use            1001d860 f   g_misc.obj
 0001:0001c8c0       _SP_func_clock             1001d8c0 f   g_misc.obj
 0001:0001ca00       _teleporter_touch          1001da00 f   g_misc.obj
 0001:0001cc10       _SP_misc_teleporter        1001dc10 f   g_misc.obj
 0001:0001cdb0       _SP_misc_teleporter_dest   1001ddb0 f   g_misc.obj
 0001:0001ce50       _monster_fire_bullet       1001de50 f   g_monster.obj
 0001:0001ced0       _monster_fire_shotgun      1001ded0 f   g_monster.obj
 0001:0001cf50       _monster_fire_blaster      1001df50 f   g_monster.obj
 0001:0001cfd0       _monster_fire_grenade      1001dfd0 f   g_monster.obj
 0001:0001d060       _monster_fire_rocket       1001e060 f   g_monster.obj
 0001:0001d0f0       _monster_fire_railgun      1001e0f0 f   g_monster.obj
 0001:0001d160       _monster_fire_bfg          1001e160 f   g_monster.obj
 0001:0001d1e0       _M_FlyCheck                1001e1e0 f   g_monster.obj
 0001:0001d310       _AttackFinished            1001e310 f   g_monster.obj
 0001:0001d340       _M_CheckGround             1001e340 f   g_monster.obj
 0001:0001d470       _M_CatagorizePosition      1001e470 f   g_monster.obj
 0001:0001d570       _M_WorldEffects            1001e570 f   g_monster.obj
 0001:0001da30       _M_droptofloor             1001ea30 f   g_monster.obj
 0001:0001db10       _M_SetEffects              1001eb10 f   g_monster.obj
 0001:0001dbe0       _M_MoveFrame               1001ebe0 f   g_monster.obj
 0001:0001ddd0       _monster_think             1001edd0 f   g_monster.obj
 0001:0001de40       _monster_use               1001ee40 f   g_monster.obj
 0001:0001dec0       _monster_triggered_spawn   1001eec0 f   g_monster.obj
 0001:0001dfa0       _monster_triggered_spawn_use 1001efa0 f   g_monster.obj
 0001:0001e000       _monster_triggered_start   1001f000 f   g_monster.obj
 0001:0001e060       _monster_death_use         1001f060 f   g_monster.obj
 0001:0001e110       _monster_start             1001f110 f   g_monster.obj
 0001:0001e350       _monster_start_go          1001f350 f   g_monster.obj
 0001:0001e6e0       _walkmonster_start_go      1001f6e0 f   g_monster.obj
 0001:0001e7c0       _walkmonster_start         1001f7c0 f   g_monster.obj
 0001:0001e7f0       _flymonster_start_go       1001f7f0 f   g_monster.obj
 0001:0001e8a0       _flymonster_start          1001f8a0 f   g_monster.obj
 0001:0001e8e0       _swimmonster_start_go      1001f8e0 f   g_monster.obj
 0001:0001e950       _swimmonster_start         1001f950 f   g_monster.obj
 0001:0001e990       _SV_TestEntityPosition     1001f990 f   g_phys.obj
 0001:0001ea20       _SV_CheckVelocity          1001fa20 f   g_phys.obj
 0001:0001eac0       _SV_RunThink               1001fac0 f   g_phys.obj
 0001:0001eb50       _SV_Impact                 1001fb50 f   g_phys.obj
 0001:0001ebe0       _ClipVelocity              1001fbe0 f   g_phys.obj
 0001:0001ece0       _SV_FlyMove                1001fce0 f   g_phys.obj
 0001:0001f210       _SV_AddGravity             10020210 f   g_phys.obj
 0001:0001f250       _SV_PushEntity             10020250 f   g_phys.obj
 0001:0001f3b0       _SV_Push                   100203b0 f   g_phys.obj
 0001:0001fa40       _SV_Physics_Pusher         10020a40 f   g_phys.obj
 0001:0001fc30       _SV_Physics_None           10020c30 f   g_phys.obj
 0001:0001fc50       _SV_Physics_Noclip         10020c50 f   g_phys.obj
 0001:0001fcd0       _SV_Physics_Toss           10020cd0 f   g_phys.obj
 0001:00020050       _SV_AddRotationalFriction  10021050 f   g_phys.obj
 0001:00020160       _SV_Physics_Step           10021160 f   g_phys.obj
 0001:000205d0       _G_RunEntity               100215d0 f   g_phys.obj
 0001:000206a0       _InitGame                  100216a0 f   g_save.obj
 0001:00020b30       _WriteField1               10021b30 f   g_save.obj
 0001:00020c70       _WriteField2               10021c70 f   g_save.obj
 0001:00020ce0       _ReadField                 10021ce0 f   g_save.obj
 0001:00020e80       _WriteClient               10021e80 f   g_save.obj
 0001:00020f20       _ReadClient                10021f20 f   g_save.obj
 0001:00020f80       _WriteGame                 10021f80 f   g_save.obj
 0001:00021070       _ReadGame                  10022070 f   g_save.obj
 0001:000211b0       _WriteEdict                100221b0 f   g_save.obj
 0001:00021250       _WriteLevelLocals          10022250 f   g_save.obj
 0001:00021300       _ReadEdict                 10022300 f   g_save.obj
 0001:00021360       _ReadLevelLocals           10022360 f   g_save.obj
 0001:000213c0       _WriteLevel                100223c0 f   g_save.obj
 0001:000214d0       _ReadLevel                 100224d0 f   g_save.obj
 0001:00021760       _ED_CallSpawn              10022760 f   g_spawn.obj
 0001:00021860       _ED_NewString              10022860 f   g_spawn.obj
 0001:00021930       _ED_ParseField             10022930 f   g_spawn.obj
 0001:00021ad0       _ED_ParseEdict             10022ad0 f   g_spawn.obj
 0001:00021c00       _G_FindTeams               10022c00 f   g_spawn.obj
 0001:00021da0       _SpawnEntities             10022da0 f   g_spawn.obj
 0001:00022110       _SP_worldspawn             10023110 f   g_spawn.obj
 0001:000227e0       _Svcmd_Test_f              100237e0 f   g_svcmds.obj
 0001:00022810       _SV_FilterPacket           10023810 f   g_svcmds.obj
 0001:00022930       _SVCmd_AddIP_f             10023930 f   g_svcmds.obj
 0001:00022b80       _SVCmd_RemoveIP_f          10023b80 f   g_svcmds.obj
 0001:00022ca0       _SVCmd_ListIP_f            10023ca0 f   g_svcmds.obj
 0001:00022d30       _SVCmd_WriteIP_f           10023d30 f   g_svcmds.obj
 0001:00022eb0       _ServerCommand             10023eb0 f   g_svcmds.obj
 0001:00022f80       _Use_Target_Tent           10023f80 f   g_target.obj
 0001:00022fd0       _SP_target_temp_entity     10023fd0 f   g_target.obj
 0001:00022ff0       _Use_Target_Speaker        10023ff0 f   g_target.obj
 0001:00023090       _SP_target_speaker         10024090 f   g_target.obj
 0001:000231e0       _Use_Target_Help           100241e0 f   g_target.obj
 0001:00023250       _SP_target_help            10024250 f   g_target.obj
 0001:000232e0       _use_target_secret         100242e0 f   g_target.obj
 0001:00023340       _SP_target_secret          10024340 f   g_target.obj
 0001:00023430       _use_target_goal           10024430 f   g_target.obj
 0001:000234b0       _SP_target_goal            100244b0 f   g_target.obj
 0001:00023540       _target_explosion_explode  10024540 f   g_target.obj
 0001:00023600       _use_target_explosion      10024600 f   g_target.obj
 0001:00023670       _SP_target_explosion       10024670 f   g_target.obj
 0001:000236a0       _use_target_changelevel    100246a0 f   g_target.obj
 0001:000237f0       _SP_target_changelevel     100247f0 f   g_target.obj
 0001:00023890       _use_target_splash         10024890 f   g_target.obj
 0001:00023960       _SP_target_splash          10024960 f   g_target.obj
 0001:000239c0       _use_target_spawner        100249c0 f   g_target.obj
 0001:00023ab0       _SP_target_spawner         10024ab0 f   g_target.obj
 0001:00023b30       _use_target_blaster        10024b30 f   g_target.obj
 0001:00023be0       _SP_target_blaster         10024be0 f   g_target.obj
 0001:00023c80       _trigger_crosslevel_trigger_use 10024c80 f   g_target.obj
 0001:00023cc0       _SP_target_crosslevel_trigger 10024cc0 f   g_target.obj
 0001:00023cf0       _target_crosslevel_target_think 10024cf0 f   g_target.obj
 0001:00023d40       _SP_target_crosslevel_target 10024d40 f   g_target.obj
 0001:00023db0       _target_laser_think        10024db0 f   g_target.obj
 0001:000240a0       _target_laser_on           100250a0 f   g_target.obj
 0001:00024110       _target_laser_off          10025110 f   g_target.obj
 0001:00024160       _target_laser_use          10025160 f   g_target.obj
 0001:000241b0       _target_laser_start        100251b0 f   g_target.obj
 0001:000243f0       _SP_target_laser           100253f0 f   g_target.obj
 0001:00024430       _target_lightramp_think    10025430 f   g_target.obj
 0001:00024540       _target_lightramp_use      10025540 f   g_target.obj
 0001:00024690       _SP_target_lightramp       10025690 f   g_target.obj
 0001:00024870       _target_earthquake_think   10025870 f   g_target.obj
 0001:00024a10       _target_earthquake_use     10025a10 f   g_target.obj
 0001:00024a70       _SP_target_earthquake      10025a70 f   g_target.obj
 0001:00024b40       _InitTrigger               10025b40 f   g_trigger.obj
 0001:00024bc0       _multi_wait                10025bc0 f   g_trigger.obj
 0001:00024be0       _multi_trigger             10025be0 f   g_trigger.obj
 0001:00024c90       _Use_Multi                 10025c90 f   g_trigger.obj
 0001:00024cc0       _Touch_Multi               10025cc0 f   g_trigger.obj
 0001:00024d90       _trigger_enable            10025d90 f   g_trigger.obj
 0001:00024dd0       _SP_trigger_multiple       10025dd0 f   g_trigger.obj
 0001:00024f40       _SP_trigger_once           10025f40 f   g_trigger.obj
 0001:00024ff0       _trigger_relay_use         10025ff0 f   g_trigger.obj
 0001:00025010       _SP_trigger_relay          10026010 f   g_trigger.obj
 0001:00025030       _trigger_key_use           10026030 f   g_trigger.obj
 0001:00025300       _SP_trigger_key            10026300 f   g_trigger.obj
 0001:000253f0       _trigger_counter_use       100263f0 f   g_trigger.obj
 0001:000254f0       _SP_trigger_counter        100264f0 f   g_trigger.obj
 0001:00025540       _SP_trigger_always         10026540 f   g_trigger.obj
 0001:00025590       _trigger_push_touch        10026590 f   g_trigger.obj
 0001:000256f0       _SP_trigger_push           100266f0 f   g_trigger.obj
 0001:00025760       _hurt_use                  10026760 f   g_trigger.obj
 0001:000257d0       _hurt_touch                100267d0 f   g_trigger.obj
 0001:000258f0       _SP_trigger_hurt           100268f0 f   g_trigger.obj
 0001:000259a0       _trigger_gravity_touch     100269a0 f   g_trigger.obj
 0001:000259d0       _SP_trigger_gravity        100269d0 f   g_trigger.obj
 0001:00025a50       _trigger_monsterjump_touch 10026a50 f   g_trigger.obj
 0001:00025b00       _SP_trigger_monsterjump    10026b00 f   g_trigger.obj
 0001:00025b90       _G_ProjectSource           10026b90 f   g_utils.obj
 0001:00025c20       _G_Find                    10026c20 f   g_utils.obj
 0001:00025cb0       _findradius                10026cb0 f   g_utils.obj
 0001:00025da0       _G_PickTarget              10026da0 f   g_utils.obj
 0001:00025e50       _Think_Delay               10026e50 f   g_utils.obj
 0001:00025e90       _G_UseTargets              10026e90 f   g_utils.obj
 0001:00026140       _tv                        10027140 f   g_utils.obj
 0001:00026190       _vtos                      10027190 f   g_utils.obj
 0001:00026200       _G_SetMovedir              10027200 f   g_utils.obj
 0001:000262c0       _vectoyaw                  100272c0 f   g_utils.obj
 0001:00026380       _vectoangles               10027380 f   g_utils.obj
 0001:00026510       _G_CopyString              10027510 f   g_utils.obj
 0001:00026560       _G_InitEdict               10027560 f   g_utils.obj
 0001:000265b0       _G_Spawn                   100275b0 f   g_utils.obj
 0001:000266a0       _G_FreeEdict               100276a0 f   g_utils.obj
 0001:00026730       _G_TouchTriggers           10027730 f   g_utils.obj
 0001:00026810       _G_TouchSolids             10027810 f   g_utils.obj
 0001:000268d0       _KillBox                   100278d0 f   g_utils.obj
 0001:00026990       _fire_hit                  10027990 f   g_weapon.obj
 0001:00026cf0       _fire_bullet               10027cf0 f   g_weapon.obj
 0001:00027350       _fire_shotgun              10028350 f   g_weapon.obj
 0001:000273b0       _blaster_touch             100283b0 f   g_weapon.obj
 0001:00027500       _fire_blaster              10028500 f   g_weapon.obj
 0001:000278b0       _fire_grenade              100288b0 f   g_weapon.obj
 0001:00027f10       _fire_grenade2             10028f10 f   g_weapon.obj
 0001:000281e0       _rocket_touch              100291e0 f   g_weapon.obj
 0001:000283d0       _fire_rocket               100293d0 f   g_weapon.obj
 0001:000285c0       _fire_rail                 100295c0 f   g_weapon.obj
 0001:000287a0       _bfg_explode               100297a0 f   g_weapon.obj
 0001:000289d0       _bfg_touch                 100299d0 f   g_weapon.obj
 0001:00028be0       _bfg_think                 10029be0 f   g_weapon.obj
 0001:00028f20       _fire_bfg                  10029f20 f   g_weapon.obj
 0001:00029140       _M_CheckBottom             1002a140 f   m_move.obj
 0001:00029450       _SV_movestep               1002a450 f   m_move.obj
 0001:00029a50       _M_ChangeYaw               1002aa50 f   m_move.obj
 0001:00029b40       _SV_StepDirection          1002ab40 f   m_move.obj
 0001:00029c70       _SV_FixCheckBottom         1002ac70 f   m_move.obj
 0001:00029ca0       _SV_NewChaseDir            1002aca0 f   m_move.obj
 0001:00029ff0       _SV_CloseEnough            1002aff0 f   m_move.obj
 0001:0002a070       _M_MoveToGoal              1002b070 f   m_move.obj
 0001:0002a120       _M_walkmove                1002b120 f   m_move.obj
 0001:0002a1b0       _SP_info_player_start      1002b1b0 f   p_client.obj
 0001:0002a320       _SP_info_player_deathmatch 1002b320 f   p_client.obj
 0001:0002a360       _SP_info_player_coop       1002b360 f   p_client.obj
 0001:0002a600       _SP_info_player_intermission 1002b600 f   p_client.obj
 0001:0002a610       _player_pain               1002b610 f   p_client.obj
 0001:0002a620       _IsFemale                  1002b620 f   p_client.obj
 0001:0002a680       _ClientObituary            1002b680 f   p_client.obj
 0001:0002abf0       _TossClientWeapon          1002bbf0 f   p_client.obj
 0001:0002ae00       _LookAtKiller              1002be00 f   p_client.obj
 0001:0002af80       _player_die                1002bf80 f   p_client.obj
 0001:0002b3d0       _InitClientPersistant      1002c3d0 f   p_client.obj
 0001:0002b500       _InitClientResp            1002c500 f   p_client.obj
 0001:0002b5b0       _SaveClientData            1002c5b0 f   p_client.obj
 0001:0002b6a0       _FetchClientEntData        1002c6a0 f   p_client.obj
 0001:0002b730       _PlayersRangeFromSpot      1002c730 f   p_client.obj
 0001:0002b7f0       _SelectRandomDeathmatchSpawnPoint 1002c7f0 f   p_client.obj
 0001:0002b920       _SelectFarthestDeathmatchSpawnPoint 1002c920 f   p_client.obj
 0001:0002b9b0       _SelectDeathmatchSpawnPoint 1002c9b0 f   p_client.obj
 0001:0002b9f0       _SelectCoopSpawnPoint      1002c9f0 f   p_client.obj
 0001:0002bab0       _SelectSpawnPoint          1002cab0 f   p_client.obj
 0001:0002bc50       _InitBodyQue               1002cc50 f   p_client.obj
 0001:0002bca0       _body_die                  1002cca0 f   p_client.obj
 0001:0002bd50       _CopyToBodyQue             1002cd50 f   p_client.obj
 0001:0002bf70       _respawn                   1002cf70 f   p_client.obj
 0001:0002c030       _PutClientInServer         1002d030 f   p_client.obj
 0001:0002c700       _ClientBeginDeathmatch     1002d700 f   p_client.obj
 0001:0002c7d0       _ClientBegin               1002d7d0 f   p_client.obj
 0001:0002c950       _ClientUserinfoChanged     1002d950 f   p_client.obj
 0001:0002cb60       _ClientConnect             1002db60 f   p_client.obj
 0001:0002cd00       _ClientDisconnect          1002dd00 f   p_client.obj
 0001:0002ce10       _PM_trace                  1002de10 f   p_client.obj
 0001:0002ceb0       _CheckBlock                1002deb0 f   p_client.obj
 0001:0002cf00       _PrintPmove                1002df00 f   p_client.obj
 0001:0002cf60       _ClientThink               1002df60 f   p_client.obj
 0001:0002d640       _ClientBeginServerFrame    1002e640 f   p_client.obj
 0001:0002d7a0       _MoveClientToIntermission  1002e7a0 f   p_hud.obj
 0001:0002d9d0       _BeginIntermission         1002e9d0 f   p_hud.obj
 0001:0002dcf0       _DeathmatchScoreboardMessage 1002ecf0 f   p_hud.obj
 0001:0002e130       _DeathmatchScoreboard      1002f130 f   p_hud.obj
 0001:0002e170       _Cmd_Score_f               1002f170 f   p_hud.obj
 0001:0002e240       _HelpComputer              1002f240 f   p_hud.obj
 0001:0002e350       _Cmd_Help_f                1002f350 f   p_hud.obj
 0001:0002e410       _G_SetStats                1002f410 f   p_hud.obj
 0001:0002ea50       _PMenu_Open                1002fa50 f   p_menu.obj
 0001:0002ec00       _PMenu_Close               1002fc00 f   p_menu.obj
 0001:0002ecd0       _PMenu_UpdateEntry         1002fcd0 f   p_menu.obj
 0001:0002ed20       _PMenu_Do_Update           1002fd20 f   p_menu.obj
 0001:0002efd0       _PMenu_Update              1002ffd0 f   p_menu.obj
 0001:0002f090       _PMenu_Next                10030090 f   p_menu.obj
 0001:0002f150       _PMenu_Prev                10030150 f   p_menu.obj
 0001:0002f220       _PMenu_Select              10030220 f   p_menu.obj
 0001:0002f2a0       _PlayerTrail_Init          100302a0 f   p_trail.obj
 0001:0002f320       _PlayerTrail_Add           10030320 f   p_trail.obj
 0001:0002f420       _PlayerTrail_New           10030420 f   p_trail.obj
 0001:0002f450       _PlayerTrail_PickFirst     10030450 f   p_trail.obj
 0001:0002f530       _PlayerTrail_PickNext      10030530 f   p_trail.obj
 0001:0002f5b0       _PlayerTrail_LastSpot      100305b0 f   p_trail.obj
 0001:0002f5e0       _SV_CalcRoll               100305e0 f   p_view.obj
 0001:0002f690       _P_DamageFeedback          10030690 f   p_view.obj
 0001:0002fc10       _SV_CalcViewOffset         10030c10 f   p_view.obj
 0001:00030050       _SV_CalcGunOffset          10031050 f   p_view.obj
 0001:000302b0       _SV_AddBlend               100312b0 f   p_view.obj
 0001:00030360       _SV_CalcBlend              10031360 f   p_view.obj
 0001:00030850       _P_FallingDamage           10031850 f   p_view.obj
 0001:00030b20       _P_WorldEffects            10031b20 f   p_view.obj
 0001:00031310       _G_SetClientEffects        10032310 f   p_view.obj
 0001:000314a0       _G_SetClientEvent          100324a0 f   p_view.obj
 0001:00031510       _G_SetClientSound          10032510 f   p_view.obj
 0001:000316a0       _G_SetClientFrame          100326a0 f   p_view.obj
 0001:00031920       _ClientEndServerFrame      10032920 f   p_view.obj
 0001:00031e40       _P_ProjectSource           10032e40 f   p_weapon.obj
 0001:00031ec0       _PlayerNoise               10032ec0 f   p_weapon.obj
 0001:00032170       _Pickup_Weapon             10033170 f   p_weapon.obj
 0001:000323a0       _ChangeWeapon              100333a0 f   p_weapon.obj
 0001:000325d0       _NoAmmoWeaponChange        100335d0 f   p_weapon.obj
 0001:000328b0       _Think_Weapon              100338b0 f   p_weapon.obj
 0001:00032970       _Use_Weapon                10033970 f   p_weapon.obj
 0001:00032a80       _Drop_Weapon               10033a80 f   p_weapon.obj
 0001:00032b40       _Weapon_Generic            10033b40 f   p_weapon.obj
 0001:00033160       _weapon_grenade_fire       10034160 f   p_weapon.obj
 0001:00033340       _Weapon_Grenade            10034340 f   p_weapon.obj
 0001:00033720       _weapon_grenadelauncher_fire 10034720 f   p_weapon.obj
 0001:000338e0       _Weapon_GrenadeLauncher    100348e0 f   p_weapon.obj
 0001:00033920       _Weapon_RocketLauncher_Fire 10034920 f   p_weapon.obj
 0001:00033b00       _Weapon_RocketLauncher     10034b00 f   p_weapon.obj
 0001:00033b40       _Blaster_Fire              10034b40 f   p_weapon.obj
 0001:00033cc0       _Weapon_Blaster_Fire       10034cc0 f   p_weapon.obj
 0001:00033d30       _Weapon_Blaster            10034d30 f   p_weapon.obj
 0001:00033d70       _Weapon_HyperBlaster_Fire  10034d70 f   p_weapon.obj
 0001:00034040       _Weapon_HyperBlaster       10035040 f   p_weapon.obj
 0001:00034080       _Machinegun_Fire           10035080 f   p_weapon.obj
 0001:00034500       _Weapon_Machinegun         10035500 f   p_weapon.obj
 0001:00034540       _Chaingun_Fire             10035540 f   p_weapon.obj
 0001:00034a80       _Weapon_Chaingun           10035a80 f   p_weapon.obj
 0001:00034ac0       _weapon_shotgun_fire       10035ac0 f   p_weapon.obj
 0001:00034ce0       _Weapon_Shotgun            10035ce0 f   p_weapon.obj
 0001:00034d20       _weapon_supershotgun_fire  10035d20 f   p_weapon.obj
 0001:00034f80       _Weapon_SuperShotgun       10035f80 f   p_weapon.obj
 0001:00034fc0       _weapon_railgun_fire       10035fc0 f   p_weapon.obj
 0001:00035190       _Weapon_Railgun            10036190 f   p_weapon.obj
 0001:000351d0       _weapon_bfg_fire           100361d0 f   p_weapon.obj
 0001:00035450       _Weapon_BFG                10036450 f   p_weapon.obj
 0001:00035490       _RotatePointAroundVector   10036490 f   q_shared.obj
 0001:000356d0       _AngleVectors              100366d0 f   q_shared.obj
 0001:000358c0       _ProjectPointOnPlane       100368c0 f   q_shared.obj
 0001:00035990       _PerpendicularVector       10036990 f   q_shared.obj
 0001:00035a50       _R_ConcatRotations         10036a50 f   q_shared.obj
 0001:00035c00       _R_ConcatTransforms        10036c00 f   q_shared.obj
 0001:00035e50       _Q_fabs                    10036e50 f   q_shared.obj
 0001:00035e80       _Q_ftol                    10036e80 f   q_shared.obj
 0001:00035e90       _LerpAngle                 10036e90 f   q_shared.obj
 0001:00035ef0       _anglemod                  10036ef0 f   q_shared.obj
 0001:00035f30       _BoxOnPlaneSide2           10036f30 f   q_shared.obj
 0001:00036040       _BoxOnPlaneSide            10037040 f   q_shared.obj
 0001:000362c0       _ClearBounds               100372c0 f   q_shared.obj
 0001:00036310       _AddPointToBounds          10037310 f   q_shared.obj
 0001:00036390       _VectorCompare             10037390 f   q_shared.obj
 0001:000363e0       _VectorNormalize           100373e0 f   q_shared.obj
 0001:00036480       _VectorNormalize2          10037480 f   q_shared.obj
 0001:00036520       _VectorMA                  10037520 f   q_shared.obj
 0001:00036570       __DotProduct               10037570 f   q_shared.obj
 0001:000365b0       __VectorSubtract           100375b0 f   q_shared.obj
 0001:00036600       __VectorAdd                10037600 f   q_shared.obj
 0001:00036650       __VectorCopy               10037650 f   q_shared.obj
 0001:00036690       _CrossProduct              10037690 f   q_shared.obj
 0001:00036700       _VectorLength              10037700 f   q_shared.obj
 0001:00036760       _VectorInverse             10037760 f   q_shared.obj
 0001:000367a0       _VectorScale               100377a0 f   q_shared.obj
 0001:000367e0       _Q_log2                    100377e0 f   q_shared.obj
 0001:00036820       _COM_SkipPath              10037820 f   q_shared.obj
 0001:00036870       _COM_StripExtension        10037870 f   q_shared.obj
 0001:000368c0       _COM_FileExtension         100378c0 f   q_shared.obj
 0001:00036960       _COM_FileBase              10037960 f   q_shared.obj
 0001:00036a10       _COM_FilePath              10037a10 f   q_shared.obj
 0001:00036a80       _COM_DefaultExtension      10037a80 f   q_shared.obj
 0001:00036af0       _BigShort                  10037af0 f   q_shared.obj
 0001:00036b10       _LittleShort               10037b10 f   q_shared.obj
 0001:00036b30       _BigLong                   10037b30 f   q_shared.obj
 0001:00036b50       _LittleLong                10037b50 f   q_shared.obj
 0001:00036b70       _BigFloat                  10037b70 f   q_shared.obj
 0001:00036b90       _LittleFloat               10037b90 f   q_shared.obj
 0001:00036bb0       _ShortSwap                 10037bb0 f   q_shared.obj
 0001:00036c00       _ShortNoSwap               10037c00 f   q_shared.obj
 0001:00036c20       _LongSwap                  10037c20 f   q_shared.obj
 0001:00036ca0       _LongNoSwap                10037ca0 f   q_shared.obj
 0001:00036cc0       _FloatSwap                 10037cc0 f   q_shared.obj
 0001:00036d00       _FloatNoSwap               10037d00 f   q_shared.obj
 0001:00036d20       _Swap_Init                 10037d20 f   q_shared.obj
 0001:00036dd0       _va                        10037dd0 f   q_shared.obj
 0001:00036e10       _COM_Parse                 10037e10 f   q_shared.obj
 0001:00036f90       _Com_PageInMemory          10037f90 f   q_shared.obj
 0001:00036fe0       _Q_stricmp                 10037fe0 f   q_shared.obj
 0001:00037000       _Q_strncasecmp             10038000 f   q_shared.obj
 0001:00037090       _Q_strcasecmp              10038090 f   q_shared.obj
 0001:000370c0       _Com_sprintf               100380c0 f   q_shared.obj
 0001:00037140       _Info_ValueForKey          10038140 f   q_shared.obj
 0001:000372a0       _Info_RemoveKey            100382a0 f   q_shared.obj
 0001:000373f0       _Info_Validate             100383f0 f   q_shared.obj
 0001:00037440       _Info_SetValueForKey       10038440 f   q_shared.obj
 0001:00037640       __fpmath                   10038640 f   LIBCMTD:fpinit.obj
 0001:00037670       __fpclear                  10038670 f   LIBCMTD:fpinit.obj
 0001:00037680       __cfltcvt_init             10038680 f   LIBCMTD:fpinit.obj
 0001:000376d0       ___setfflag                100386d0 f   LIBCMTD:fpinit.obj
 0001:000376f0       _srand                     100386f0 f   LIBCMTD:rand.obj
 0001:00037700       _rand                      10038700 f   LIBCMTD:rand.obj
 0001:00037738       __ftol                     10038738 f   LIBCMTD:ftol.obj
 0001:00037760       _strcmp                    10038760 f   LIBCMTD:strcmp.obj
 0001:000377f0       _sprintf                   100387f0 f   LIBCMTD:sprintf.obj
 0001:00037900       _strchr                    10038900 f   LIBCMTD:strchr.obj
 0001:00037906       ___from_strstr_to_strchr   10038906 f   LIBCMTD:strchr.obj
 0001:000379c0       _strcpy                    100389c0 f   LIBCMTD:strcat.obj
 0001:000379d0       _strcat                    100389d0 f   LIBCMTD:strcat.obj
 0001:00037ab0       _atol                      10038ab0 f   LIBCMTD:atox.obj
 0001:00037bb0       _atoi                      10038bb0 f   LIBCMTD:atox.obj
 0001:00037bd0       __atoi64                   10038bd0 f   LIBCMTD:atox.obj
 0001:00037d00       _strlen                    10038d00 f   LIBCMTD:strlen.obj
 0001:00037d80       _qsort                     10038d80 f   LIBCMTD:qsort.obj
 0001:00038080       _ceil                      10039080 f   LIBCMTD:ceil.obj
 0001:000381c0       _memset                    100391c0 f   LIBCMTD:memset.obj
 0001:00038220       __chkstk                   10039220 f   LIBCMTD:chkstk.obj
 0001:00038220       __alloca_probe             10039220 f   LIBCMTD:chkstk.obj
 0001:00038250       _fabs                      10039250 f   LIBCMTD:fabs.obj
 0001:00038350       _strncpy                   10039350 f   LIBCMTD:strncpy.obj
 0001:00038450       _memcpy                    10039450 f   LIBCMTD:memcpy.obj
 0001:00038790       _malloc                    10039790 f   LIBCMTD:dbgheap.obj
 0001:000387b0       __malloc_dbg               100397b0 f   LIBCMTD:dbgheap.obj
 0001:000387e0       __nh_malloc                100397e0 f   LIBCMTD:dbgheap.obj
 0001:00038800       __nh_malloc_dbg            10039800 f   LIBCMTD:dbgheap.obj
 0001:00038860       __heap_alloc               10039860 f   LIBCMTD:dbgheap.obj
 0001:00038880       __heap_alloc_dbg           10039880 f   LIBCMTD:dbgheap.obj
 0001:00038ba0       _calloc                    10039ba0 f   LIBCMTD:dbgheap.obj
 0001:00038bc0       __calloc_dbg               10039bc0 f   LIBCMTD:dbgheap.obj
 0001:00038c20       _realloc                   10039c20 f   LIBCMTD:dbgheap.obj
 0001:00038c40       __realloc_dbg              10039c40 f   LIBCMTD:dbgheap.obj
 0001:000391a0       __expand                   1003a1a0 f   LIBCMTD:dbgheap.obj
 0001:000391c0       __expand_dbg               1003a1c0 f   LIBCMTD:dbgheap.obj
 0001:00039200       _free                      1003a200 f   LIBCMTD:dbgheap.obj
 0001:00039220       __free_lk                  1003a220 f   LIBCMTD:dbgheap.obj
 0001:00039240       __free_dbg                 1003a240 f   LIBCMTD:dbgheap.obj
 0001:00039270       __free_dbg_lk              1003a270 f   LIBCMTD:dbgheap.obj
 0001:00039660       __msize                    1003a660 f   LIBCMTD:dbgheap.obj
 0001:00039680       __msize_dbg                1003a680 f   LIBCMTD:dbgheap.obj
 0001:000397e0       __CrtSetBreakAlloc         1003a7e0 f   LIBCMTD:dbgheap.obj
 0001:00039800       __CrtSetDbgBlockType       1003a800 f   LIBCMTD:dbgheap.obj
 0001:000398a0       __CrtSetAllocHook          1003a8a0 f   LIBCMTD:dbgheap.obj
 0001:00039950       __CrtCheckMemory           1003a950 f   LIBCMTD:dbgheap.obj
 0001:00039cc0       __CrtSetDbgFlag            1003acc0 f   LIBCMTD:dbgheap.obj
 0001:00039cf0       __CrtDoForAllClientObjects 1003acf0 f   LIBCMTD:dbgheap.obj
 0001:00039d60       __CrtIsValidPointer        1003ad60 f   LIBCMTD:dbgheap.obj
 0001:00039db0       __CrtIsValidHeapPointer    1003adb0 f   LIBCMTD:dbgheap.obj
 0001:00039e40       __CrtIsMemoryBlock         1003ae40 f   LIBCMTD:dbgheap.obj
 0001:00039f30       __CrtSetDumpClient         1003af30 f   LIBCMTD:dbgheap.obj
 0001:00039f50       __CrtMemCheckpoint         1003af50 f   LIBCMTD:dbgheap.obj
 0001:0003a0c0       __CrtMemDifference         1003b0c0 f   LIBCMTD:dbgheap.obj
 0001:0003a1f0       __CrtMemDumpAllObjectsSince 1003b1f0 f   LIBCMTD:dbgheap.obj
 0001:0003a5d0       __CrtDumpMemoryLeaks       1003b5d0 f   LIBCMTD:dbgheap.obj
 0001:0003a650       __CrtMemDumpStatistics     1003b650 f   LIBCMTD:dbgheap.obj
 0001:0003a720       _strtok                    1003b720 f   LIBCMTD:strtok.obj
 0001:0003a870       _floor                     1003b870 f   LIBCMTD:floor.obj
 0001:0003a9b0       __CIsqrt                   1003b9b0 f   LIBCMTD:sqrt.obj
 0001:0003a9c4       _sqrt                      1003b9c4 f   LIBCMTD:sqrt.obj
 0001:0003aa70       _vsprintf                  1003ba70 f   LIBCMTD:vsprintf.obj
 0001:0003ab70       _localtime                 1003bb70 f   LIBCMTD:localtim.obj
 0001:0003add0       _time                      1003bdd0 f   LIBCMTD:time.obj
 0001:0003af60       _fwrite                    1003bf60 f   LIBCMTD:fwrite.obj
 0001:0003afa0       __fwrite_lk                1003bfa0 f   LIBCMTD:fwrite.obj
 0001:0003b1c0       _fread                     1003c1c0 f   LIBCMTD:fread.obj
 0001:0003b200       __fread_lk                 1003c200 f   LIBCMTD:fread.obj
 0001:0003b3d0       _fclose                    1003c3d0 f   LIBCMTD:fclose.obj
 0001:0003b460       __fclose_lk                1003c460 f   LIBCMTD:fclose.obj
 0001:0003b520       __fsopen                   1003c520 f   LIBCMTD:fopen.obj
 0001:0003b620       _fopen                     1003c620 f   LIBCMTD:fopen.obj
 0001:0003b640       _atof                      1003c640 f   LIBCMTD:atof.obj
 0001:0003b6c0       _sscanf                    1003c6c0 f   LIBCMTD:sscanf.obj
 0001:0003b780       _fprintf                   1003c780 f   LIBCMTD:fprintf.obj
 0001:0003b850       _strstr                    1003c850 f   LIBCMTD:strstr.obj
 0001:0003b8d0       _atan2                     1003c8d0 f   LIBCMTD:87ctriga.obj
 0001:0003b8da       __CIatan2                  1003c8da f   LIBCMTD:87ctriga.obj
 0001:0003b8f0       _strncmp                   1003c8f0 f   LIBCMTD:strncmp.obj
 0001:0003b930       __CIsin                    1003c930 f   LIBCMTD:sin.obj
 0001:0003b944       _sin                       1003c944 f   LIBCMTD:sin.obj
 0001:0003b9e0       __CIcos                    1003c9e0 f   LIBCMTD:cos.obj
 0001:0003b9f4       _cos                       1003c9f4 f   LIBCMTD:cos.obj
 0001:0003ba90       _abs                       1003ca90 f   LIBCMTD:abs.obj
 0001:0003bac0       _memcmp                    1003cac0 f   LIBCMTD:memcmp.obj
 0001:0003bb70       __stricmp                  1003cb70 f   LIBCMTD:stricmp.obj
 0001:0003bb70       _stricmp                   1003cb70 f   LIBCMTD:stricmp.obj
 0001:0003bb70       __strcmpi                  1003cb70 f   LIBCMTD:stricmp.obj
 0001:0003bc40       __CRT_INIT@12              1003cc40 f   LIBCMTD:dllcrt0.obj
 0001:0003bd80       __DllMainCRTStartup@12     1003cd80 f   LIBCMTD:dllcrt0.obj
 0001:0003be80       __amsg_exit                1003ce80 f   LIBCMTD:dllcrt0.obj
 0001:0003bec0       __setdefaultprecision      1003cec0 f   LIBCMTD:fp8.obj
 0001:0003bee0       __ms_p5_test_fdiv          1003cee0 f   LIBCMTD:testfdiv.obj
 0001:0003bf40       __ms_p5_mp_test_fdiv       1003cf40 f   LIBCMTD:testfdiv.obj
 0001:0003bf90       __forcdecpt                1003cf90 f   LIBCMTD:cvt.obj
 0001:0003c040       __cropzeros                1003d040 f   LIBCMTD:cvt.obj
 0001:0003c120       __positive                 1003d120 f   LIBCMTD:cvt.obj
 0001:0003c150       __fassign                  1003d150 f   LIBCMTD:cvt.obj
 0001:0003c1a0       __cftoe                    1003d1a0 f   LIBCMTD:cvt.obj
 0001:0003c390       __cftof                    1003d390 f   LIBCMTD:cvt.obj
 0001:0003c540       __cftog                    1003d540 f   LIBCMTD:cvt.obj
 0001:0003c630       __cfltcvt                  1003d630 f   LIBCMTD:cvt.obj
 0001:0003c6c0       __mtinit                   1003d6c0 f   LIBCMTD:tidtable.obj
 0001:0003c750       __mtterm                   1003d750 f   LIBCMTD:tidtable.obj
 0001:0003c780       __initptd                  1003d780 f   LIBCMTD:tidtable.obj
 0001:0003c7a0       __getptd                   1003d7a0 f   LIBCMTD:tidtable.obj
 0001:0003c840       __freeptd                  1003d840 f   LIBCMTD:tidtable.obj
 0001:0003c950       ___threadid                1003d950 f   LIBCMTD:tidtable.obj
 0001:0003c960       ___threadhandle            1003d960 f   LIBCMTD:tidtable.obj
 0001:0003c970       __flsbuf                   1003d970 f   LIBCMTD:_flsbuf.obj
 0001:0003cbf0       __output                   1003dbf0 f   LIBCMTD:output.obj
 0001:0003da90       __CrtDbgBreak              1003ea90 f   LIBCMTD:dbgrpt.obj
 0001:0003daa0       __CrtSetReportMode         1003eaa0 f   LIBCMTD:dbgrpt.obj
 0001:0003db00       __CrtSetReportFile         1003eb00 f   LIBCMTD:dbgrpt.obj
 0001:0003db80       __CrtSetReportHook         1003eb80 f   LIBCMTD:dbgrpt.obj
 0001:0003dba0       __CrtDbgReport             1003eba0 f   LIBCMTD:dbgrpt.obj
 0001:0003e240       __isctype                  1003f240 f   LIBCMTD:isctype.obj
 0001:0003e300       __allmul                   1003f300 f   LIBCMTD:llmul.obj
 0001:0003e340       __frnd                     1003f340 f   LIBCMTD:frnd.obj
 0001:0003e360       __handle_qnan1             1003f360 f   LIBCMTD:fpexcept.obj
 0001:0003e3c0       __handle_qnan2             1003f3c0 f   LIBCMTD:fpexcept.obj
 0001:0003e430       __except1                  1003f430 f   LIBCMTD:fpexcept.obj
 0001:0003e4f0       __except2                  1003f4f0 f   LIBCMTD:fpexcept.obj
 0001:0003e5c0       __raise_exc                1003f5c0 f   LIBCMTD:fpexcept.obj
 0001:0003ea90       __handle_exc               1003fa90 f   LIBCMTD:fpexcept.obj
 0001:0003ee10       __umatherr                 1003fe10 f   LIBCMTD:fpexcept.obj
 0001:0003eeb0       __set_errno                1003feb0 f   LIBCMTD:fpexcept.obj
 0001:0003ef30       __errcode                  1003ff30 f   LIBCMTD:fpexcept.obj
 0001:0003efb0       __set_exp                  1003ffb0 f   LIBCMTD:util.obj
 0001:0003eff0       __get_exp                  1003fff0 f   LIBCMTD:util.obj
 0001:0003f020       __add_exp                  10040020 f   LIBCMTD:util.obj
 0001:0003f060       __set_bexp                 10040060 f   LIBCMTD:util.obj
 0001:0003f0a0       __sptype                   100400a0 f   LIBCMTD:util.obj
 0001:0003f120       __decomp                   10040120 f   LIBCMTD:util.obj
 0001:0003f260       __statfp                   10040260 f   LIBCMTD:fpctrl.obj
 0001:0003f280       __clrfp                    10040280 f   LIBCMTD:fpctrl.obj
 0001:0003f2a0       __ctrlfp                   100402a0 f   LIBCMTD:fpctrl.obj
 0001:0003f2e0       __set_statfp               100402e0 f   LIBCMTD:fpctrl.obj
 0001:0003f360       ?_set_new_handler@@YAP6AHI@ZP6AHI@Z@Z 10040360 f   LIBCMTD:handler.obj
 0001:0003f390       ?_query_new_handler@@YAP6AHI@ZXZ 10040390 f   LIBCMTD:handler.obj
 0001:0003f3a0       __callnewh                 100403a0 f   LIBCMTD:handler.obj
 0001:0003f3d0       __mtinitlocks              100403d0 f   LIBCMTD:mlock.obj
 0001:0003f410       __mtdeletelocks            10040410 f   LIBCMTD:mlock.obj
 0001:0003f4b0       __lock                     100404b0 f   LIBCMTD:mlock.obj
 0001:0003f550       __unlock                   10040550 f   LIBCMTD:mlock.obj
 0001:0003f570       __lockerr_exit             10040570 f   LIBCMTD:mlock.obj
 0001:0003f590       __malloc_base              10040590 f   LIBCMTD:malloc.obj
 0001:0003f5b0       __nh_malloc_base           100405b0 f   LIBCMTD:malloc.obj
 0001:0003f610       __heap_alloc_base          10040610 f   LIBCMTD:malloc.obj
 0001:0003f680       __CrtDefaultAllocHook      10040680 f   LIBCMTD:dbghook.obj
 0001:0003f690       __expand_base              10040690 f   LIBCMTD:expand.obj
 0001:0003f740       __realloc_base             10040740 f   LIBCMTD:realloc.obj
 0001:0003f930       __free_base                10040930 f   LIBCMTD:free.obj
 0001:0003f9a0       __heapchk                  100409a0 f   LIBCMTD:heapchk.obj
 0001:0003fa20       __heapset                  10040a20 f   LIBCMTD:heapchk.obj
 0001:0003fa30       __heap_init                10040a30 f   LIBCMTD:heapinit.obj
 0001:0003fa80       __heap_term                10040a80 f   LIBCMTD:heapinit.obj
 0001:0003fb20       __cinit                    10040b20 f   LIBCMTD:crt0dat.obj
 0001:0003fb60       _exit                      10040b60 f   LIBCMTD:crt0dat.obj
 0001:0003fb80       __exit                     10040b80 f   LIBCMTD:crt0dat.obj
 0001:0003fba0       __cexit                    10040ba0 f   LIBCMTD:crt0dat.obj
 0001:0003fbc0       __c_exit                   10040bc0 f   LIBCMTD:crt0dat.obj
 0001:0003fcd0       __lockexit                 10040cd0 f   LIBCMTD:crt0dat.obj
 0001:0003fce0       __unlockexit               10040ce0 f   LIBCMTD:crt0dat.obj
 0001:0003fd20       __get_sbh_threshold        10040d20 f   LIBCMTD:sbheap.obj
 0001:0003fd30       __set_sbh_threshold        10040d30 f   LIBCMTD:sbheap.obj
 0001:0003fd50       ___sbh_heap_init           10040d50 f   LIBCMTD:sbheap.obj
 0001:0003fdb0       ___sbh_find_block          10040db0 f   LIBCMTD:sbheap.obj
 0001:0003fe10       ___sbh_verify_block        10040e10 f   LIBCMTD:sbheap.obj
 0001:0003fe70       ___sbh_free_block          10040e70 f   LIBCMTD:sbheap.obj
 0001:00040440       ___sbh_alloc_block         10041440 f   LIBCMTD:sbheap.obj
 0001:00040980       ___sbh_alloc_new_region    10041980 f   LIBCMTD:sbheap.obj
 0001:00040a90       ___sbh_alloc_new_group     10041a90 f   LIBCMTD:sbheap.obj
 0001:00040c80       ___sbh_resize_block        10041c80 f   LIBCMTD:sbheap.obj
 0001:00041270       ___sbh_heapmin             10042270 f   LIBCMTD:sbheap.obj
 0001:000413a0       ___sbh_heap_check          100423a0 f   LIBCMTD:sbheap.obj
 0001:000419c0       __trandisp1                100429c0 f   LIBCMTD:87disp.obj
 0001:00041a27       __trandisp2                10042a27 f   LIBCMTD:87disp.obj
 0001:00041ab3       __rttospopde               10042ab3 f   LIBCMTD:87disp.obj
 0001:00041ab8       __rttospop                 10042ab8 f   LIBCMTD:87disp.obj
 0001:00041aba       __rtnospop                 10042aba f   LIBCMTD:87disp.obj
 0001:00041abc       __rttosnpop                10042abc f   LIBCMTD:87disp.obj
 0001:00041abd       __rtnospopde               10042abd f   LIBCMTD:87disp.obj
 0001:00041ac4       __rtzeropop                10042ac4 f   LIBCMTD:87disp.obj
 0001:00041ac6       __rtzeronpop               10042ac6 f   LIBCMTD:87disp.obj
 0001:00041acb       __rtonepop                 10042acb f   LIBCMTD:87disp.obj
 0001:00041acd       __rtonenpop                10042acd f   LIBCMTD:87disp.obj
 0001:00041ad2       __tosnan1                  10042ad2 f   LIBCMTD:87disp.obj
 0001:00041afd       __nosnan2                  10042afd f   LIBCMTD:87disp.obj
 0001:00041aff       __tosnan2                  10042aff f   LIBCMTD:87disp.obj
 0001:00041b27       __nan2                     10042b27 f   LIBCMTD:87disp.obj
 0001:00041b66       __rtindfpop                10042b66 f   LIBCMTD:87disp.obj
 0001:00041b68       __rtindfnpop               10042b68 f   LIBCMTD:87disp.obj
 0001:00041b79       __rttosnpopde              10042b79 f   LIBCMTD:87disp.obj
 0001:00041b83       __rtchsifneg               10042b83 f   LIBCMTD:87disp.obj
 0001:00041b90       __startTwoArgErrorHandling 10042b90 f   LIBCMTD:genexcep.obj
 0001:00041ba7       __startOneArgErrorHandling 10042ba7 f   LIBCMTD:genexcep.obj
 0001:00041bf0       __twoToTOS                 10042bf0 f   LIBCMTD:common.obj
 0001:00041c05       __load_CW                  10042c05 f   LIBCMTD:common.obj
 0001:00041c1c       __convertTOStoQNaN         10042c1c f   LIBCMTD:common.obj
 0001:00041c35       __fload_withFB             10042c35 f   LIBCMTD:common.obj
 0001:00041c78       __checkTOS_withFB          10042c78 f   LIBCMTD:common.obj
 0001:00041c8e       __fast_exit                10042c8e f   LIBCMTD:common.obj
 0001:00041c9b       __math_exit                10042c9b f   LIBCMTD:common.obj
 0001:00041cc5       __check_overflow_exit      10042cc5 f   LIBCMTD:common.obj
 0001:00041cd9       __check_range_exit         10042cd9 f   LIBCMTD:common.obj
 0001:00041d80       ___tzset                   10042d80 f   LIBCMTD:tzset.obj
 0001:00041dc0       __tzset                    10042dc0 f   LIBCMTD:tzset.obj
 0001:00042190       __isindst                  10043190 f   LIBCMTD:tzset.obj
 0001:000426c0       _gmtime                    100436c0 f   LIBCMTD:gmtime.obj
 0001:000428c0       ___loctotime_t             100438c0 f   LIBCMTD:dtoxtime.obj
 0001:000429b0       ___initstdio               100439b0 f   LIBCMTD:_file.obj
 0001:00042ae0       ___endstdio                10043ae0 f   LIBCMTD:_file.obj
 0001:00042b00       __lock_file                10043b00 f   LIBCMTD:_file.obj
 0001:00042b40       __lock_file2               10043b40 f   LIBCMTD:_file.obj
 0001:00042b70       __unlock_file              10043b70 f   LIBCMTD:_file.obj
 0001:00042bb0       __unlock_file2             10043bb0 f   LIBCMTD:_file.obj
 0001:00042be0       __write                    10043be0 f   LIBCMTD:write.obj
 0001:00042c70       __write_lk                 10043c70 f   LIBCMTD:write.obj
 0001:00042ef0       _fflush                    10043ef0 f   LIBCMTD:fflush.obj
 0001:00042f40       __fflush_lk                10043f40 f   LIBCMTD:fflush.obj
 0001:00042f90       __flush                    10043f90 f   LIBCMTD:fflush.obj
 0001:00043050       __flushall                 10044050 f   LIBCMTD:fflush.obj
 0001:000431a0       __filbuf                   100441a0 f   LIBCMTD:_filbuf.obj
 0001:00043390       __read                     10044390 f   LIBCMTD:read.obj
 0001:00043420       __read_lk                  10044420 f   LIBCMTD:read.obj
 0001:00043870       __close                    10044870 f   LIBCMTD:close.obj
 0001:000438f0       __close_lk                 100448f0 f   LIBCMTD:close.obj
 0001:000439a0       __freebuf                  100449a0 f   LIBCMTD:_freebuf.obj
 0001:00043a40       __openfile                 10044a40 f   LIBCMTD:_open.obj
 0001:00043dd0       __getstream                10044dd0 f   LIBCMTD:stream.obj
 0001:00043f50       __fltin2                   10044f50 f   LIBCMTD:cfin.obj
 0001:00044010       __input                    10045010 f   LIBCMTD:input.obj
 0001:00045510       __stbuf                    10046510 f   LIBCMTD:_sftbuf.obj
 0001:00045670       __ftbuf                    10046670 f   LIBCMTD:_sftbuf.obj
 0001:0004572c       __fFATN2                   1004672c f   LIBCMTD:87triga.obj
 0001:0004577c       __rtpiby2                  1004677c f   LIBCMTD:87triga.obj
 0001:000457c0       __cintrindisp2             100467c0 f   LIBCMTD:87cdisp.obj
 0001:000457fe       __cintrindisp1             100467fe f   LIBCMTD:87cdisp.obj
 0001:0004583b       __ctrandisp2               1004683b f   LIBCMTD:87cdisp.obj
 0001:000459bb       __ctrandisp1               100469bb f   LIBCMTD:87cdisp.obj
 0001:000459ee       __fload                    100469ee f   LIBCMTD:87cdisp.obj
 0001:00045a30       _setlocale                 10046a30 f   LIBCMTD:setlocal.obj
 0001:000460c0       __expandlocale             100470c0 f   LIBCMTD:setlocal.obj
 0001:00046250       ___init_dummy              10047250 f   LIBCMTD:setlocal.obj
 0001:00046260       __strcats                  10047260 f   LIBCMTD:setlocal.obj
 0001:000462b0       ___lc_strtolc              100472b0 f   LIBCMTD:setlocal.obj
 0001:00046410       ___lc_lctostr              10047410 f   LIBCMTD:setlocal.obj
 0001:00046480       __tolower                  10047480 f   LIBCMTD:tolower.obj
 0001:00046490       _tolower                   10047490 f   LIBCMTD:tolower.obj
 0001:00046530       __tolower_lk               10047530 f   LIBCMTD:tolower.obj
 0001:00046660       __ioinit                   10047660 f   LIBCMTD:ioinit.obj
 0001:00046990       __ioterm                   10047990 f   LIBCMTD:ioinit.obj
 0001:00046a30       __setenvp                  10047a30 f   LIBCMTD:stdenvp.obj
 0001:00046b80       __setargv                  10047b80 f   LIBCMTD:stdargv.obj
 0001:00047090       ___crtGetEnvironmentStringsA 10048090 f   LIBCMTD:a_env.obj
 0001:000472b0       _DllMain@12                100482b0 f   LIBCMTD:dllmain.obj
 0001:000472c0       __FF_MSGBANNER             100482c0 f   LIBCMTD:crt0msg.obj
 0001:00047310       __NMSG_WRITE               10048310 f   LIBCMTD:crt0msg.obj
 0001:000474d0       __GET_RTERRMSG             100484d0 f   LIBCMTD:crt0msg.obj
 0001:00047520       __statusfp                 10048520 f   LIBCMTD:ieee87.obj
 0001:00047540       __clearfp                  10048540 f   LIBCMTD:ieee87.obj
 0001:00047560       __control87                10048560 f   LIBCMTD:ieee87.obj
 0001:000475b0       __controlfp                100485b0 f   LIBCMTD:ieee87.obj
 0001:000475d0       __fpreset                  100485d0 f   LIBCMTD:ieee87.obj
 0001:000479c0       __ZeroTail                 100489c0 f   LIBCMTD:intrncvt.obj
 0001:00047a50       __IncMan                   10048a50 f   LIBCMTD:intrncvt.obj
 0001:00047b00       __RoundMan                 10048b00 f   LIBCMTD:intrncvt.obj
 0001:00047be0       __CopyMan                  10048be0 f   LIBCMTD:intrncvt.obj
 0001:00047c30       __FillZeroMan              10048c30 f   LIBCMTD:intrncvt.obj
 0001:00047c60       __IsZeroMan                10048c60 f   LIBCMTD:intrncvt.obj
 0001:00047ca0       __ShrMan                   10048ca0 f   LIBCMTD:intrncvt.obj
 0001:00047d90       __ld12cvt                  10048d90 f   LIBCMTD:intrncvt.obj
 0001:00047fe0       __ld12tod                  10048fe0 f   LIBCMTD:intrncvt.obj
 0001:00048000       __ld12tof                  10049000 f   LIBCMTD:intrncvt.obj
 0001:00048020       __ld12told                 10049020 f   LIBCMTD:intrncvt.obj
 0001:000480e0       __atodbl                   100490e0 f   LIBCMTD:intrncvt.obj
 0001:00048120       __atoldbl                  10049120 f   LIBCMTD:intrncvt.obj
 0001:00048160       __atoflt                   10049160 f   LIBCMTD:intrncvt.obj
 0001:000481a0       __fptostr                  100491a0 f   LIBCMTD:_fptostr.obj
 0001:000482a0       __fltout2                  100492a0 f   LIBCMTD:cfout.obj
 0001:00048320       ___dtold                   10049320 f   LIBCMTD:cfout.obj
 0001:00048490       _memmove                   10049490 f   LIBCMTD:memmove.obj
 0001:000487d0       __fptrap                   100497d0 f   LIBCMTD:crt0fp.obj
 0001:000487e0       __XcptFilter               100497e0 f   LIBCMTD:winxfltr.obj
 0001:00048a00       __lseek                    10049a00 f   LIBCMTD:lseek.obj
 0001:00048a90       __lseek_lk                 10049a90 f   LIBCMTD:lseek.obj
 0001:00048b50       __getbuf                   10049b50 f   LIBCMTD:_getbuf.obj
 0001:00048c20       __isatty                   10049c20 f   LIBCMTD:isatty.obj
 0001:00048c60       _wctomb                    10049c60 f   LIBCMTD:wctomb.obj
 0001:00048ce0       __wctomb_lk                10049ce0 f   LIBCMTD:wctomb.obj
 0001:00048d80       __aulldiv                  10049d80 f   LIBCMTD:ulldiv.obj
 0001:00048df0       __aullrem                  10049df0 f   LIBCMTD:ullrem.obj
 0001:00048e70       __itoa                     10049e70 f   LIBCMTD:xtoa.obj
 0001:00048f90       __ltoa                     10049f90 f   LIBCMTD:xtoa.obj
 0001:00048fd0       __ultoa                    10049fd0 f   LIBCMTD:xtoa.obj
 0001:00048ff0       __i64toa                   10049ff0 f   LIBCMTD:xtoa.obj
 0001:00049140       __ui64toa                  1004a140 f   LIBCMTD:xtoa.obj
 0001:00049160       __snprintf                 1004a160 f   LIBCMTD:snprintf.obj
 0001:00049260       __vsnprintf                1004a260 f   LIBCMTD:vsnprint.obj
 0001:00049360       _signal                    1004a360 f   LIBCMTD:winsig.obj
 0001:00049630       _raise                     1004a630 f   LIBCMTD:winsig.obj
 0001:000498d0       ___fpecode                 1004a8d0 f   LIBCMTD:winsig.obj
 0001:000498e0       ___pxcptinfoptrs           1004a8e0 f   LIBCMTD:winsig.obj
 0001:000498f0       ___crtMessageBoxA          1004a8f0 f   LIBCMTD:crtmbox.obj
 0001:000499b0       ___crtGetStringTypeA       1004a9b0 f   LIBCMTD:a_str.obj
 0001:00049b70       __dosmaperr                1004ab70 f   LIBCMTD:dosmap.obj
 0001:00049c10       __errno                    1004ac10 f   LIBCMTD:dosmap.obj
 0001:00049c20       ___doserrno                1004ac20 f   LIBCMTD:dosmap.obj
 0001:00049c30       __matherr                  1004ac30 f   LIBCMTD:matherr.obj
 0001:00049c40       __87except                 1004ac40 f   LIBCMTD:87except.obj
 0001:00049dc0       _getenv                    1004adc0 f   LIBCMTD:getenv.obj
 0001:00049df0       __getenv_lk                1004adf0 f   LIBCMTD:getenv.obj
 0001:00049ec0       __fcloseall                1004aec0 f   LIBCMTD:closeall.obj
 0001:00049fa0       __alloc_osfhnd             1004afa0 f   LIBCMTD:osfinfo.obj
 0001:0004a190       __set_osfhnd               1004b190 f   LIBCMTD:osfinfo.obj
 0001:0004a250       __free_osfhnd              1004b250 f   LIBCMTD:osfinfo.obj
 0001:0004a330       __get_osfhandle            1004b330 f   LIBCMTD:osfinfo.obj
 0001:0004a3a0       __open_osfhandle           1004b3a0 f   LIBCMTD:osfinfo.obj
 0001:0004a4b0       __lock_fhandle             1004b4b0 f   LIBCMTD:osfinfo.obj
 0001:0004a540       __unlock_fhandle           1004b540 f   LIBCMTD:osfinfo.obj
 0001:0004a570       __commit                   1004b570 f   LIBCMTD:commit.obj
 0001:0004a650       __open                     1004b650 f   LIBCMTD:open.obj
 0001:0004a690       __sopen                    1004b690 f   LIBCMTD:open.obj
 0001:0004abf0       ___strgtold12              1004bbf0 f   LIBCMTD:strgtold.obj
 0001:0004b720       ___STRINGTOLD              1004c720 f   LIBCMTD:strgtold.obj
 0001:0004b770       _mbtowc                    1004c770 f   LIBCMTD:mbtowc.obj
 0001:0004b7f0       __mbtowc_lk                1004c7f0 f   LIBCMTD:mbtowc.obj
 0001:0004b950       _isalpha                   1004c950 f   LIBCMTD:_ctype.obj
 0001:0004b9a0       _isupper                   1004c9a0 f   LIBCMTD:_ctype.obj
 0001:0004b9e0       _islower                   1004c9e0 f   LIBCMTD:_ctype.obj
 0001:0004ba20       _isdigit                   1004ca20 f   LIBCMTD:_ctype.obj
 0001:0004ba60       _isxdigit                  1004ca60 f   LIBCMTD:_ctype.obj
 0001:0004bab0       _isspace                   1004cab0 f   LIBCMTD:_ctype.obj
 0001:0004baf0       _ispunct                   1004caf0 f   LIBCMTD:_ctype.obj
 0001:0004bb30       _isalnum                   1004cb30 f   LIBCMTD:_ctype.obj
 0001:0004bb80       _isprint                   1004cb80 f   LIBCMTD:_ctype.obj
 0001:0004bbd0       _isgraph                   1004cbd0 f   LIBCMTD:_ctype.obj
 0001:0004bc20       _iscntrl                   1004cc20 f   LIBCMTD:_ctype.obj
 0001:0004bc60       ___isascii                 1004cc60 f   LIBCMTD:_ctype.obj
 0001:0004bc70       ___toascii                 1004cc70 f   LIBCMTD:_ctype.obj
 0001:0004bc80       ___iscsymf                 1004cc80 f   LIBCMTD:_ctype.obj
 0001:0004bce0       ___iscsym                  1004cce0 f   LIBCMTD:_ctype.obj
 0001:0004bd40       __allshl                   1004cd40 f   LIBCMTD:llshl.obj
 0001:0004bd60       _ungetc                    1004cd60 f   LIBCMTD:ungetc.obj
 0001:0004bdd0       __ungetc_lk                1004cdd0 f   LIBCMTD:ungetc.obj
 0001:0004bf10       ___init_time               1004cf10 f   LIBCMTD:inittime.obj
 0001:0004c890       ___init_numeric            1004d890 f   LIBCMTD:initnum.obj
 0001:0004cbc0       ___init_monetary           1004dbc0 f   LIBCMTD:initmon.obj
 0001:0004d020       ___init_ctype              1004e020 f   LIBCMTD:initctyp.obj
 0001:0004d3c0       ___init_collate            1004e3c0 f   LIBCMTD:initcoll.obj
 0001:0004d3d0       _strcspn                   1004e3d0 f   LIBCMTD:strcspn.obj
 0001:0004d410       _strpbrk                   1004e410 f   LIBCMTD:strpbrk.obj
 0001:0004d450       ___get_qualified_locale    1004e450 f   LIBCMTD:getqloc.obj
 0001:0004e1f0       ___crtLCMapStringA         1004f1f0 f   LIBCMTD:a_map.obj
 0001:0004e550       __setmbcp                  1004f550 f   LIBCMTD:mbctype.obj
 0001:0004ed10       __getmbcp                  1004fd10 f   LIBCMTD:mbctype.obj
 0001:0004ed30       ___initmbctable            1004fd30 f   LIBCMTD:mbctype.obj
 0001:0004ed60       ___addl                    1004fd60 f   LIBCMTD:mantold.obj
 0001:0004eda0       ___add_12                  1004fda0 f   LIBCMTD:mantold.obj
 0001:0004ee50       ___shl_12                  1004fe50 f   LIBCMTD:mantold.obj
 0001:0004eeb0       ___shr_12                  1004feb0 f   LIBCMTD:mantold.obj
 0001:0004ef20       ___mtold12                 1004ff20 f   LIBCMTD:mantold.obj
 0001:0004f060       _$I10_OUTPUT               10050060 f   LIBCMTD:x10fout.obj
 0001:0004f578       __global_unwind2           10050578 f   LIBCMTD:exsup.obj
 0001:0004f5ba       __local_unwind2            100505ba f   LIBCMTD:exsup.obj
 0001:0004f612       __NLG_Return2              10050612 f   LIBCMTD:exsup.obj
 0001:0004f622       __abnormal_termination     10050622 f   LIBCMTD:exsup.obj
 0001:0004f645       __NLG_Notify1              10050645 f   LIBCMTD:exsup.obj
 0001:0004f64e       __NLG_Notify               1005064e f   LIBCMTD:exsup.obj
 0001:0004f661       __NLG_Dispatch             10050661 f   LIBCMTD:exsup.obj
 0001:0004f670       __except_handler3          10050670 f   LIBCMTD:exsup3.obj
 0001:0004f72d       __seh_longjmp_unwind@4     1005072d f   LIBCMTD:exsup3.obj
 0001:0004f750       __mbsnbicoll               10050750 f   LIBCMTD:mbsnbico.obj
 0001:0004f7a0       ___wtomb_environ           100507a0 f   LIBCMTD:wtombenv.obj
 0001:0004f850       __chsize                   10050850 f   LIBCMTD:chsize.obj
 0001:0004f8d0       __chsize_lk                100508d0 f   LIBCMTD:chsize.obj
 0001:0004fb00       ___ld12mul                 10050b00 f   LIBCMTD:tenpow.obj
 0001:0004ff40       ___multtenpow12            10050f40 f   LIBCMTD:tenpow.obj
 0001:00050010       __Getdays                  10051010 f   LIBCMTD:strftime.obj
 0001:00050140       __Getmonths                10051140 f   LIBCMTD:strftime.obj
 0001:00050270       __Gettnames                10051270 f   LIBCMTD:strftime.obj
 0001:000505e0       _strftime                  100515e0 f   LIBCMTD:strftime.obj
 0001:00050600       __Strftime                 10051600 f   LIBCMTD:strftime.obj
 0001:00051480       ___getlocaleinfo           10052480 f   LIBCMTD:inithelp.obj
 0001:00051710       _localeconv                10052710 f   LIBCMTD:lconv.obj
 0001:00051720       ___crtGetStringTypeW       10052720 f   LIBCMTD:w_str.obj
 0001:00051990       __strnicmp                 10052990 f   LIBCMTD:strnicmp.obj
 0001:00051aa0       ___crtCompareStringA       10052aa0 f   LIBCMTD:a_cmp.obj
 0001:00051ef0       ___crtsetenv               10052ef0 f   LIBCMTD:setenv.obj
 0001:00052340       __setmode                  10053340 f   LIBCMTD:setmode.obj
 0001:000523c0       __setmode_lk               100533c0 f   LIBCMTD:setmode.obj
 0001:00052490       ___crtGetLocaleInfoW       10053490 f   LIBCMTD:w_loc.obj
 0001:00052630       ___crtGetLocaleInfoA       10053630 f   LIBCMTD:a_loc.obj
 0001:000527e0       __mbschr                   100537e0 f   LIBCMTD:mbschr.obj
 0001:000528d0       _IsBadWritePtr@8           100538d0 f   kernel32:KERNEL32.dll
 0001:000528d6       _IsBadReadPtr@8            100538d6 f   kernel32:KERNEL32.dll
 0001:000528dc       _HeapValidate@12           100538dc f   kernel32:KERNEL32.dll
 0001:000528e2       _GetTimeZoneInformation@4  100538e2 f   kernel32:KERNEL32.dll
 0001:000528e8       _GetSystemTime@4           100538e8 f   kernel32:KERNEL32.dll
 0001:000528ee       _GetLocalTime@4            100538ee f   kernel32:KERNEL32.dll
 0001:000528f4       _GetCommandLineA@0         100538f4 f   kernel32:KERNEL32.dll
 0001:000528fa       _GetVersion@0              100538fa f   kernel32:KERNEL32.dll
 0001:00052900       _GetProcAddress@8          10053900 f   kernel32:KERNEL32.dll
 0001:00052906       _GetModuleHandleA@4        10053906 f   kernel32:KERNEL32.dll
 0001:0005290c       _GetCurrentThreadId@0      1005390c f   kernel32:KERNEL32.dll
 0001:00052912       _TlsSetValue@8             10053912 f   kernel32:KERNEL32.dll
 0001:00052918       _TlsAlloc@0                10053918 f   kernel32:KERNEL32.dll
 0001:0005291e       _TlsFree@4                 1005391e f   kernel32:KERNEL32.dll
 0001:00052924       _SetLastError@4            10053924 f   kernel32:KERNEL32.dll
 0001:0005292a       _TlsGetValue@4             1005392a f   kernel32:KERNEL32.dll
 0001:00052930       _GetLastError@0            10053930 f   kernel32:KERNEL32.dll
 0001:00052936       _GetCurrentThread@0        10053936 f   kernel32:KERNEL32.dll
 0001:0005293c       _DebugBreak@0              1005393c f   kernel32:KERNEL32.dll
 0001:00052942       _GetStdHandle@4            10053942 f   kernel32:KERNEL32.dll
 0001:00052948       _WriteFile@20              10053948 f   kernel32:KERNEL32.dll
 0001:0005294e       _InterlockedDecrement@4    1005394e f   kernel32:KERNEL32.dll
 0001:00052954       _OutputDebugStringA@4      10053954 f   kernel32:KERNEL32.dll
 0001:0005295a       _LoadLibraryA@4            1005395a f   kernel32:KERNEL32.dll
 0001:00052960       _InterlockedIncrement@4    10053960 f   kernel32:KERNEL32.dll
 0001:00052966       _GetModuleFileNameA@12     10053966 f   kernel32:KERNEL32.dll
 0001:0005296c       _RaiseException@16         1005396c f   kernel32:KERNEL32.dll
 0001:00052972       _InitializeCriticalSection@4 10053972 f   kernel32:KERNEL32.dll
 0001:00052978       _DeleteCriticalSection@4   10053978 f   kernel32:KERNEL32.dll
 0001:0005297e       _EnterCriticalSection@4    1005397e f   kernel32:KERNEL32.dll
 0001:00052984       _LeaveCriticalSection@4    10053984 f   kernel32:KERNEL32.dll
 0001:0005298a       _ExitProcess@4             1005398a f   kernel32:KERNEL32.dll
 0001:00052990       _FatalAppExitA@8           10053990 f   kernel32:KERNEL32.dll
 0001:00052996       _HeapAlloc@12              10053996 f   kernel32:KERNEL32.dll
 0001:0005299c       _HeapReAlloc@16            1005399c f   kernel32:KERNEL32.dll
 0001:000529a2       _HeapFree@12               100539a2 f   kernel32:KERNEL32.dll
 0001:000529a8       _HeapDestroy@4             100539a8 f   kernel32:KERNEL32.dll
 0001:000529ae       _HeapCreate@12             100539ae f   kernel32:KERNEL32.dll
 0001:000529b4       _VirtualFree@12            100539b4 f   kernel32:KERNEL32.dll
 0001:000529ba       _TerminateProcess@8        100539ba f   kernel32:KERNEL32.dll
 0001:000529c0       _GetCurrentProcess@0       100539c0 f   kernel32:KERNEL32.dll
 0001:000529c6       _VirtualAlloc@16           100539c6 f   kernel32:KERNEL32.dll
 0001:000529cc       _WideCharToMultiByte@32    100539cc f   kernel32:KERNEL32.dll
 0001:000529d2       _ReadFile@20               100539d2 f   kernel32:KERNEL32.dll
 0001:000529d8       _CloseHandle@4             100539d8 f   kernel32:KERNEL32.dll
 0001:000529de       _Sleep@4                   100539de f   kernel32:KERNEL32.dll
 0001:000529e4       _SetHandleCount@4          100539e4 f   kernel32:KERNEL32.dll
 0001:000529ea       _GetFileType@4             100539ea f   kernel32:KERNEL32.dll
 0001:000529f0       _GetStartupInfoA@4         100539f0 f   kernel32:KERNEL32.dll
 0001:000529f6       _FreeEnvironmentStringsA@4 100539f6 f   kernel32:KERNEL32.dll
 0001:000529fc       _FreeEnvironmentStringsW@4 100539fc f   kernel32:KERNEL32.dll
 0001:00052a02       _GetEnvironmentStrings@0   10053a02 f   kernel32:KERNEL32.dll
 0001:00052a08       _GetEnvironmentStringsW@0  10053a08 f   kernel32:KERNEL32.dll
 0001:00052a0e       _UnhandledExceptionFilter@4 10053a0e f   kernel32:KERNEL32.dll
 0001:00052a14       _SetFilePointer@16         10053a14 f   kernel32:KERNEL32.dll
 0001:00052a1a       _SetConsoleCtrlHandler@8   10053a1a f   kernel32:KERNEL32.dll
 0001:00052a20       _MultiByteToWideChar@24    10053a20 f   kernel32:KERNEL32.dll
 0001:00052a26       _GetStringTypeA@20         10053a26 f   kernel32:KERNEL32.dll
 0001:00052a2c       _GetStringTypeW@16         10053a2c f   kernel32:KERNEL32.dll
 0001:00052a32       _SetStdHandle@8            10053a32 f   kernel32:KERNEL32.dll
 0001:00052a38       _FlushFileBuffers@4        10053a38 f   kernel32:KERNEL32.dll
 0001:00052a3e       _CreateFileA@28            10053a3e f   kernel32:KERNEL32.dll
 0001:00052a44       _GetCPInfo@8               10053a44 f   kernel32:KERNEL32.dll
 0001:00052a4a       _IsValidLocale@8           10053a4a f   kernel32:KERNEL32.dll
 0001:00052a50       _IsValidCodePage@4         10053a50 f   kernel32:KERNEL32.dll
 0001:00052a56       _GetLocaleInfoA@16         10053a56 f   kernel32:KERNEL32.dll
 0001:00052a5c       _EnumSystemLocalesA@8      10053a5c f   kernel32:KERNEL32.dll
 0001:00052a62       _GetUserDefaultLCID@0      10053a62 f   kernel32:KERNEL32.dll
 0001:00052a68       _GetVersionExA@4           10053a68 f   kernel32:KERNEL32.dll
 0001:00052a6e       _LCMapStringA@24           10053a6e f   kernel32:KERNEL32.dll
 0001:00052a74       _LCMapStringW@24           10053a74 f   kernel32:KERNEL32.dll
 0001:00052a7a       _GetACP@0                  10053a7a f   kernel32:KERNEL32.dll
 0001:00052a80       _GetOEMCP@0                10053a80 f   kernel32:KERNEL32.dll
 0001:00052a86       _RtlUnwind@16              10053a86 f   kernel32:KERNEL32.dll
 0001:00052a8c       _SetEndOfFile@4            10053a8c f   kernel32:KERNEL32.dll
 0001:00052a92       _CompareStringA@24         10053a92 f   kernel32:KERNEL32.dll
 0001:00052a98       _CompareStringW@24         10053a98 f   kernel32:KERNEL32.dll
 0001:00052a9e       _SetEnvironmentVariableA@8 10053a9e f   kernel32:KERNEL32.dll
 0001:00052aa4       _GetLocaleInfoW@16         10053aa4 f   kernel32:KERNEL32.dll
 0001:00052ab0       _strdup                    10053ab0 f   LIBCMTD:strdup.obj
 0001:00052ab0       __strdup                   10053ab0 f   LIBCMTD:strdup.obj
 0002:00000000       __imp__IsBadWritePtr@8     10054000     kernel32:KERNEL32.dll
 0002:00000004       __imp__IsBadReadPtr@8      10054004     kernel32:KERNEL32.dll
 0002:00000008       __imp__HeapValidate@12     10054008     kernel32:KERNEL32.dll
 0002:0000000c       __imp__GetTimeZoneInformation@4 1005400c     kernel32:KERNEL32.dll
 0002:00000010       __imp__GetSystemTime@4     10054010     kernel32:KERNEL32.dll
 0002:00000014       __imp__GetLocalTime@4      10054014     kernel32:KERNEL32.dll
 0002:00000018       __imp__GetCommandLineA@0   10054018     kernel32:KERNEL32.dll
 0002:0000001c       __imp__GetVersion@0        1005401c     kernel32:KERNEL32.dll
 0002:00000020       __imp__GetProcAddress@8    10054020     kernel32:KERNEL32.dll
 0002:00000024       __imp__GetModuleHandleA@4  10054024     kernel32:KERNEL32.dll
 0002:00000028       __imp__GetCurrentThreadId@0 10054028     kernel32:KERNEL32.dll
 0002:0000002c       __imp__TlsSetValue@8       1005402c     kernel32:KERNEL32.dll
 0002:00000030       __imp__TlsAlloc@0          10054030     kernel32:KERNEL32.dll
 0002:00000034       __imp__TlsFree@4           10054034     kernel32:KERNEL32.dll
 0002:00000038       __imp__SetLastError@4      10054038     kernel32:KERNEL32.dll
 0002:0000003c       __imp__TlsGetValue@4       1005403c     kernel32:KERNEL32.dll
 0002:00000040       __imp__GetLastError@0      10054040     kernel32:KERNEL32.dll
 0002:00000044       __imp__GetCurrentThread@0  10054044     kernel32:KERNEL32.dll
 0002:00000048       __imp__DebugBreak@0        10054048     kernel32:KERNEL32.dll
 0002:0000004c       __imp__GetStdHandle@4      1005404c     kernel32:KERNEL32.dll
 0002:00000050       __imp__WriteFile@20        10054050     kernel32:KERNEL32.dll
 0002:00000054       __imp__InterlockedDecrement@4 10054054     kernel32:KERNEL32.dll
 0002:00000058       __imp__OutputDebugStringA@4 10054058     kernel32:KERNEL32.dll
 0002:0000005c       __imp__LoadLibraryA@4      1005405c     kernel32:KERNEL32.dll
 0002:00000060       __imp__InterlockedIncrement@4 10054060     kernel32:KERNEL32.dll
 0002:00000064       __imp__GetModuleFileNameA@12 10054064     kernel32:KERNEL32.dll
 0002:00000068       __imp__RaiseException@16   10054068     kernel32:KERNEL32.dll
 0002:0000006c       __imp__InitializeCriticalSection@4 1005406c     kernel32:KERNEL32.dll
 0002:00000070       __imp__DeleteCriticalSection@4 10054070     kernel32:KERNEL32.dll
 0002:00000074       __imp__EnterCriticalSection@4 10054074     kernel32:KERNEL32.dll
 0002:00000078       __imp__LeaveCriticalSection@4 10054078     kernel32:KERNEL32.dll
 0002:0000007c       __imp__ExitProcess@4       1005407c     kernel32:KERNEL32.dll
 0002:00000080       __imp__FatalAppExitA@8     10054080     kernel32:KERNEL32.dll
 0002:00000084       __imp__HeapAlloc@12        10054084     kernel32:KERNEL32.dll
 0002:00000088       __imp__HeapReAlloc@16      10054088     kernel32:KERNEL32.dll
 0002:0000008c       __imp__HeapFree@12         1005408c     kernel32:KERNEL32.dll
 0002:00000090       __imp__HeapDestroy@4       10054090     kernel32:KERNEL32.dll
 0002:00000094       __imp__HeapCreate@12       10054094     kernel32:KERNEL32.dll
 0002:00000098       __imp__VirtualFree@12      10054098     kernel32:KERNEL32.dll
 0002:0000009c       __imp__TerminateProcess@8  1005409c     kernel32:KERNEL32.dll
 0002:000000a0       __imp__GetCurrentProcess@0 100540a0     kernel32:KERNEL32.dll
 0002:000000a4       __imp__VirtualAlloc@16     100540a4     kernel32:KERNEL32.dll
 0002:000000a8       __imp__WideCharToMultiByte@32 100540a8     kernel32:KERNEL32.dll
 0002:000000ac       __imp__ReadFile@20         100540ac     kernel32:KERNEL32.dll
 0002:000000b0       __imp__CloseHandle@4       100540b0     kernel32:KERNEL32.dll
 0002:000000b4       __imp__Sleep@4             100540b4     kernel32:KERNEL32.dll
 0002:000000b8       __imp__SetHandleCount@4    100540b8     kernel32:KERNEL32.dll
 0002:000000bc       __imp__GetFileType@4       100540bc     kernel32:KERNEL32.dll
 0002:000000c0       __imp__GetStartupInfoA@4   100540c0     kernel32:KERNEL32.dll
 0002:000000c4       __imp__FreeEnvironmentStringsA@4 100540c4     kernel32:KERNEL32.dll
 0002:000000c8       __imp__FreeEnvironmentStringsW@4 100540c8     kernel32:KERNEL32.dll
 0002:000000cc       __imp__GetEnvironmentStrings@0 100540cc     kernel32:KERNEL32.dll
 0002:000000d0       __imp__GetEnvironmentStringsW@0 100540d0     kernel32:KERNEL32.dll
 0002:000000d4       __imp__UnhandledExceptionFilter@4 100540d4     kernel32:KERNEL32.dll
 0002:000000d8       __imp__SetFilePointer@16   100540d8     kernel32:KERNEL32.dll
 0002:000000dc       __imp__SetConsoleCtrlHandler@8 100540dc     kernel32:KERNEL32.dll
 0002:000000e0       __imp__MultiByteToWideChar@24 100540e0     kernel32:KERNEL32.dll
 0002:000000e4       __imp__GetStringTypeA@20   100540e4     kernel32:KERNEL32.dll
 0002:000000e8       __imp__GetStringTypeW@16   100540e8     kernel32:KERNEL32.dll
 0002:000000ec       __imp__SetStdHandle@8      100540ec     kernel32:KERNEL32.dll
 0002:000000f0       __imp__FlushFileBuffers@4  100540f0     kernel32:KERNEL32.dll
 0002:000000f4       __imp__CreateFileA@28      100540f4     kernel32:KERNEL32.dll
 0002:000000f8       __imp__GetCPInfo@8         100540f8     kernel32:KERNEL32.dll
 0002:000000fc       __imp__IsValidLocale@8     100540fc     kernel32:KERNEL32.dll
 0002:00000100       __imp__IsValidCodePage@4   10054100     kernel32:KERNEL32.dll
 0002:00000104       __imp__GetLocaleInfoA@16   10054104     kernel32:KERNEL32.dll
 0002:00000108       __imp__EnumSystemLocalesA@8 10054108     kernel32:KERNEL32.dll
 0002:0000010c       __imp__GetUserDefaultLCID@0 1005410c     kernel32:KERNEL32.dll
 0002:00000110       __imp__GetVersionExA@4     10054110     kernel32:KERNEL32.dll
 0002:00000114       __imp__LCMapStringA@24     10054114     kernel32:KERNEL32.dll
 0002:00000118       __imp__LCMapStringW@24     10054118     kernel32:KERNEL32.dll
 0002:0000011c       __imp__GetACP@0            1005411c     kernel32:KERNEL32.dll
 0002:00000120       __imp__GetOEMCP@0          10054120     kernel32:KERNEL32.dll
 0002:00000124       __imp__RtlUnwind@16        10054124     kernel32:KERNEL32.dll
 0002:00000128       __imp__SetEndOfFile@4      10054128     kernel32:KERNEL32.dll
 0002:0000012c       __imp__CompareStringA@24   1005412c     kernel32:KERNEL32.dll
 0002:00000130       __imp__CompareStringW@24   10054130     kernel32:KERNEL32.dll
 0002:00000134       __imp__SetEnvironmentVariableA@8 10054134     kernel32:KERNEL32.dll
 0002:00000138       __imp__GetLocaleInfoW@16   10054138     kernel32:KERNEL32.dll
 0002:0000013c       \177KERNEL32_NULL_THUNK_DATA 1005413c     kernel32:KERNEL32.dll
 0002:0000015c       __real@4@400dfffe000000000000 1005415c     g_ai.obj
 0002:00000160       __real@4@4002f000000000000000 10054160     g_ai.obj
 0002:00000164       __real@4@00000000000000000000 10054164     g_ai.obj
 0002:00000168       __real@4@4008fa00000000000000 10054168     g_ai.obj
 0002:0000016c       __real@4@4007fa00000000000000 1005416c     g_ai.obj
 0002:00000170       __real@4@4005a000000000000000 10054170     g_ai.obj
 0002:00000178       __real@8@3fff8000000000000000 10054178     g_ai.obj
 0002:00000180       __real@8@3ffd9999999999999800 10054180     g_ai.obj
 0002:00000188       ??_C@_0CF@GNG@?$CFs?5at?5?$CFs?0?5combattarget?5?$CFs?5not?5fo@ 10054188     g_ai.obj
 0002:000001b0       __real@4@3fff8000000000000000 100541b0     g_ai.obj
 0002:000001b4       ??_C@_0N@FBNP@player_noise?$AA@ 100541b4     g_ai.obj
 0002:000001c4       ??_C@_0N@MOIO@target_actor?$AA@ 100541c4     g_ai.obj
 0002:000001d4       __real@4@40079d80000000000000 100541d4     g_ai.obj
 0002:000001d8       __real@4@4004b400000000000000 100541d8     g_ai.obj
 0002:000001dc       __real@4@40008000000000000000 100541dc     g_ai.obj
 0002:000001e0       __real@8@3ffe8000000000000000 100541e0     g_ai.obj
 0002:000001e8       __real@4@4001a000000000000000 100541e8     g_ai.obj
 0002:000001ec       __real@4@4019bebc200000000000 100541ec     g_ai.obj
 0002:000001f0       __real@8@4001a000000000000000 100541f0     g_ai.obj
 0002:000001f8       __real@4@4003a000000000000000 100541f8     g_ai.obj
 0002:000001fc       __real@4@40058000000000000000 100541fc     g_ai.obj
 0002:00000200       ??_C@_0CB@KJGC@xv?50?5yb?5?968?5string2?5?$CCChasing?5?$CFs?$CC@ 10054200     g_chase.obj
 0002:00000224       __real@4@4007b400000000000000 10054224     g_chase.obj
 0002:00000228       __real@4@400f8000000000000000 10054228     g_chase.obj
 0002:0000022c       __real@4@4001c000000000000000 1005422c     g_chase.obj
 0002:00000230       __real@4@40038000000000000000 10054230     g_chase.obj
 0002:00000234       __real@4@4004e000000000000000 10054234     g_chase.obj
 0002:00000238       ??_C@_04OFAC@skin?$AA@     10054238     g_cmds.obj
 0002:00000240       ??_C@_0BB@NHB@non?9pickup?5item?6?$AA@ 10054240     g_cmds.obj
 0002:00000254       ??_C@_0O@BFAJ@unknown?5item?6?$AA@ 10054254     g_cmds.obj
 0002:00000264       ??_C@_0N@HDAP@Power?5Shield?$AA@ 10054264     g_cmds.obj
 0002:00000274       ??_C@_0L@JCOL@Body?5Armor?$AA@ 10054274     g_cmds.obj
 0002:00000280       ??_C@_0N@BFGJ@Combat?5Armor?$AA@ 10054280     g_cmds.obj
 0002:00000290       ??_C@_0N@JCKF@Jacket?5Armor?$AA@ 10054290     g_cmds.obj
 0002:000002a0       ??_C@_05KBJH@armor?$AA@    100542a0     g_cmds.obj
 0002:000002a8       ??_C@_04OGMN@ammo?$AA@     100542a8     g_cmds.obj
 0002:000002b0       ??_C@_07LLGA@weapons?$AA@  100542b0     g_cmds.obj
 0002:000002b8       ??_C@_06HECL@health?$AA@   100542b8     g_cmds.obj
 0002:000002c0       ??_C@_03MKE@all?$AA@       100542c0     g_cmds.obj
 0002:000002c4       ??_C@_0EG@EJO@You?5must?5run?5the?5server?5with?5?8?$CLs@ 100542c4     g_cmds.obj
 0002:0000030c       ??_C@_0M@EOGG@godmode?5ON?6?$AA@ 1005430c     g_cmds.obj
 0002:00000318       ??_C@_0N@JADG@godmode?5OFF?6?$AA@ 10054318     g_cmds.obj
 0002:00000328       ??_C@_0N@HPPA@notarget?5ON?6?$AA@ 10054328     g_cmds.obj
 0002:00000338       ??_C@_0O@EPAH@notarget?5OFF?6?$AA@ 10054338     g_cmds.obj
 0002:00000348       ??_C@_0L@DMHD@noclip?5ON?6?$AA@ 10054348     g_cmds.obj
 0002:00000354       ??_C@_0M@GMEE@noclip?5OFF?6?$AA@ 10054354     g_cmds.obj
 0002:00000360       ??_C@_0BB@ICGD@Out?5of?5item?3?5?$CFs?6?$AA@ 10054360     g_cmds.obj
 0002:00000374       ??_C@_0BF@ECFF@Item?5is?5not?5usable?4?6?$AA@ 10054374     g_cmds.obj
 0002:0000038c       ??_C@_0BC@FGI@unknown?5item?3?5?$CFs?6?$AA@ 1005438c     g_cmds.obj
 0002:000003a0       ??_C@_0BH@NMG@Item?5is?5not?5dropable?4?6?$AA@ 100543a0     g_cmds.obj
 0002:000003b8       ??_C@_04EAN@tech?$AA@      100543b8     g_cmds.obj
 0002:000003c0       ??_C@_0BB@NJAG@No?5item?5to?5use?4?6?$AA@ 100543c0     g_cmds.obj
 0002:000003d4       ??_C@_0BC@HEAG@No?5item?5to?5drop?4?6?$AA@ 100543d4     g_cmds.obj
 0002:000003e8       ??_C@_0P@FMDD@?$CFs?6?$CFi?5players?6?$AA@ 100543e8     g_cmds.obj
 0002:000003f8       ??_C@_04HHEG@?4?4?4?6?$AA@ 100543f8     g_cmds.obj
 0002:00000400       ??_C@_07GHIM@?$CF3i?5?$CFs?6?$AA@ 10054400     g_cmds.obj
 0002:00000408       ??_C@_06OOPL@point?6?$AA@  10054408     g_cmds.obj
 0002:00000410       ??_C@_05IMMH@wave?6?$AA@   10054410     g_cmds.obj
 0002:00000418       ??_C@_06JDHH@taunt?6?$AA@  10054418     g_cmds.obj
 0002:00000420       ??_C@_07KPAG@salute?6?$AA@ 10054420     g_cmds.obj
 0002:00000428       ??_C@_08OAMP@flipoff?6?$AA@ 10054428     g_cmds.obj
 0002:00000434       ??_C@_0DD@GPOA@Flood?5protection?3?5?5You?5can?8t?5tal@ 10054434     g_cmds.obj
 0002:00000468       ??_C@_0CE@IGNL@You?5can?8t?5talk?5for?5?$CFd?5more?5secon@ 10054468     g_cmds.obj
 0002:0000048c       ??_C@_02DILL@?$CFs?$AA@    1005448c     g_cmds.obj
 0002:00000490       ??_C@_01BJG@?6?$AA@        10054490     g_cmds.obj
 0002:00000494       ??_C@_01FCOA@?5?$AA@       10054494     g_cmds.obj
 0002:00000498       ??_C@_04HPGM@?$CFs?3?5?$AA@ 10054498     g_cmds.obj
 0002:000004a0       ??_C@_06MGD@?$CI?$CFs?$CJ?3?5?$AA@ 100544a0     g_cmds.obj
 0002:000004a8       ??_C@_08FLDF@observer?$AA@ 100544a8     g_cmds.obj
 0002:000004b4       ??_C@_0L@HINF@playerlist?$AA@ 100544b4     g_cmds.obj
 0002:000004c0       ??_C@_04CDC@boot?$AA@      100544c0     g_cmds.obj
 0002:000004c8       ??_C@_04KCGK@warp?$AA@     100544c8     g_cmds.obj
 0002:000004d0       ??_C@_05KKBO@stats?$AA@    100544d0     g_cmds.obj
 0002:000004d8       ??_C@_05LDB@admin?$AA@     100544d8     g_cmds.obj
 0002:000004e0       ??_C@_05IKFF@ghost?$AA@    100544e0     g_cmds.obj
 0002:000004e8       ??_C@_08PEIF@notready?$AA@ 100544e8     g_cmds.obj
 0002:000004f4       ??_C@_05BBHH@ready?$AA@    100544f4     g_cmds.obj
 0002:000004fc       ??_C@_02ELCB@no?$AA@       100544fc     g_cmds.obj
 0002:00000500       ??_C@_03LGKI@yes?$AA@      10054500     g_cmds.obj
 0002:00000504       ??_C@_02IBHF@id?$AA@       10054504     g_cmds.obj
 0002:00000508       ??_C@_04CJJD@team?$AA@     10054508     g_cmds.obj
 0002:00000510       ??_C@_04FBHL@wave?$AA@     10054510     g_cmds.obj
 0002:00000518       ??_C@_07BOFE@putaway?$AA@  10054518     g_cmds.obj
 0002:00000520       ??_C@_04CHLA@kill?$AA@     10054520     g_cmds.obj
 0002:00000528       ??_C@_08NPJF@weaplast?$AA@ 10054528     g_cmds.obj
 0002:00000534       ??_C@_08FDMA@weapnext?$AA@ 10054534     g_cmds.obj
 0002:00000540       ??_C@_08KKEF@weapprev?$AA@ 10054540     g_cmds.obj
 0002:0000054c       ??_C@_07DCEN@invdrop?$AA@  1005454c     g_cmds.obj
 0002:00000554       ??_C@_06HJLO@invuse?$AA@   10054554     g_cmds.obj
 0002:0000055c       ??_C@_08BHMF@invprevp?$AA@ 1005455c     g_cmds.obj
 0002:00000568       ??_C@_08PNDM@invnextp?$AA@ 10054568     g_cmds.obj
 0002:00000574       ??_C@_08ECCA@invprevw?$AA@ 10054574     g_cmds.obj
 0002:00000580       ??_C@_08KINJ@invnextw?$AA@ 10054580     g_cmds.obj
 0002:0000058c       ??_C@_07JFFH@invprev?$AA@  1005458c     g_cmds.obj
 0002:00000594       ??_C@_07GMNC@invnext?$AA@  10054594     g_cmds.obj
 0002:0000059c       ??_C@_05MCDF@inven?$AA@    1005459c     g_cmds.obj
 0002:000005a4       ??_C@_06GMBK@noclip?$AA@   100545a4     g_cmds.obj
 0002:000005ac       ??_C@_08BHIO@notarget?$AA@ 100545ac     g_cmds.obj
 0002:000005b8       ??_C@_03IPJE@god?$AA@      100545b8     g_cmds.obj
 0002:000005bc       ??_C@_04JEOP@give?$AA@     100545bc     g_cmds.obj
 0002:000005c4       ??_C@_04NMBB@drop?$AA@     100545c4     g_cmds.obj
 0002:000005cc       ??_C@_03CFBD@use?$AA@      100545cc     g_cmds.obj
 0002:000005d0       ??_C@_04MHDN@help?$AA@     100545d0     g_cmds.obj
 0002:000005d8       ??_C@_05FILO@score?$AA@    100545d8     g_cmds.obj
 0002:000005e0       ??_C@_05MGFH@steam?$AA@    100545e0     g_cmds.obj
 0002:000005e8       ??_C@_08PAEI@say_team?$AA@ 100545e8     g_cmds.obj
 0002:000005f4       ??_C@_03NJAM@say?$AA@      100545f4     g_cmds.obj
 0002:000005f8       ??_C@_07PECE@players?$AA@  100545f8     g_cmds.obj
 0002:00000600       __real@8@4002f000000000000000 10054600     g_combat.obj
 0002:00000608       ??_C@_0O@OACK@monster_medic?$AA@ 10054608     g_combat.obj
 0002:00000618       ??_C@_0N@MLBM@monster_jorg?$AA@ 10054618     g_combat.obj
 0002:00000628       ??_C@_0P@PAKL@monster_makron?$AA@ 10054628     g_combat.obj
 0002:00000638       ??_C@_0BC@IELI@monster_supertank?$AA@ 10054638     g_combat.obj
 0002:0000064c       ??_C@_0N@GMDA@monster_tank?$AA@ 1005464c     g_combat.obj
 0002:0000065c       __real@4@4000c000000000000000 1005465c     g_combat.obj
 0002:00000660       ??_C@_0BD@BIJ@items?1protect4?4wav?$AA@ 10054660     g_combat.obj
 0002:00000678       __real@8@4007fa00000000000000 10054678     g_combat.obj
 0002:00000680       __real@8@4009c800000000000000 10054680     g_combat.obj
 0002:00000688       __real@8@3ffcccccccccccccd000 10054688     g_combat.obj
 0002:00000690       ??_C@_05IJJG@Cells?$AA@    10054690     g_combat.obj
 0002:00000698       ??_C@_04KEJD@?5?7?6?$AN?$AA@ 10054698     g_ctf.obj
 0002:000006a0       ??_C@_08BIGC@Settings?$AA@ 100546a0     g_ctf.obj
 0002:000006ac       ??_C@_0BF@EKGI@?$CKAdministration?5Menu?$AA@ 100546ac     g_ctf.obj
 0002:000006c4       ??_C@_06HLPO@Cancel?$AA@   100546c4     g_ctf.obj
 0002:000006cc       ??_C@_05NEPE@Apply?$AA@    100546cc     g_ctf.obj
 0002:000006d4       ??_C@_0P@FGPA@?$CKSettings?5Menu?$AA@ 100546d4     g_ctf.obj
 0002:000006e4       ??_C@_0BA@EEAN@No?5one?5to?5chase?$AA@ 100546e4     g_ctf.obj
 0002:000006f4       ??_C@_05HGBH@v1?452?$AA@   100546f4     g_ctf.obj
 0002:000006fc       ??_C@_0BA@KKFH@?$CITAB?5to?5Return?$CJ?$AA@ 100546fc     g_ctf.obj
 0002:0000070c       ??_C@_0BB@DCFH@ESC?5to?5Exit?5Menu?$AA@ 1005470c     g_ctf.obj
 0002:00000720       ??_C@_0BA@JDPD@ENTER?5to?5select?$AA@ 10054720     g_ctf.obj
 0002:00000730       ??_C@_0BL@DHIC@Use?5?$FL?5and?5?$FN?5to?5move?5cursor?$AA@ 10054730     g_ctf.obj
 0002:0000074c       ??_C@_07NGJJ@Credits?$AA@  1005474c     g_ctf.obj
 0002:00000754       ??_C@_0N@EHAA@Chase?5Camera?$AA@ 10054754     g_ctf.obj
 0002:00000764       ??_C@_0P@BCLJ@Join?5Blue?5Team?$AA@ 10054764     g_ctf.obj
 0002:00000774       ??_C@_0O@HPLN@Join?5Red?5Team?$AA@ 10054774     g_ctf.obj
 0002:0000079c       ??_C@_0BE@OLPC@Return?5to?5Main?5Menu?$AA@ 1005479c     g_ctf.obj
 0002:000007b0       ??_C@_0BJ@LLPH@Brian?5?8Whaleboy?8?5Cozzens?$AA@ 100547b0     g_ctf.obj
 0002:000007cc       ??_C@_0BJ@ODGG@?$CKOriginal?5CTF?5Art?5Design?$AA@ 100547cc     g_ctf.obj
 0002:000007e8       ??_C@_0BB@CDNF@Tom?5?8Bjorn?8?5Klok?$AA@ 100547e8     g_ctf.obj
 0002:000007fc       ??_C@_06OLLL@?$CKSound?$AA@ 100547fc     g_ctf.obj
 0002:00000804       ??_C@_0M@BALK@Kevin?5Cloud?$AA@ 10054804     g_ctf.obj
 0002:00000810       ??_C@_0BK@GEID@Adrian?5Carmack?5Paul?5Steed?$AA@ 10054810     g_ctf.obj
 0002:0000082c       ??_C@_04NBMN@?$CKArt?$AA@  1005482c     g_ctf.obj
 0002:00000834       ??_C@_0M@BICE@Tim?5Willits?$AA@ 10054834     g_ctf.obj
 0002:00000840       ??_C@_0BB@JAPJ@Christian?5Antkow?$AA@ 10054840     g_ctf.obj
 0002:00000854       ??_C@_0O@PNLG@?$CKLevel?5Design?$AA@ 10054854     g_ctf.obj
 0002:00000864       ??_C@_0BD@IBHK@Dave?5?8Zoid?8?5Kirsch?$AA@ 10054864     g_ctf.obj
 0002:00000878       ??_C@_0N@EBMC@?$CKProgramming?$AA@ 10054878     g_ctf.obj
 0002:00000888       ??_C@_0BM@DPIN@?$CKThreeWave?5Capture?5the?5Flag?$AA@ 10054888     g_ctf.obj
 0002:000008a4       ??_C@_09OPFJ@?$CKQuake?5II?$AA@ 100548a4     g_ctf.obj
 0002:000008b0       ??_C@_09LKGH@item_pack?$AA@ 100548b0     g_ctf.obj
 0002:000008bc       ??_C@_0P@NILP@item_bandolier?$AA@ 100548bc     g_ctf.obj
 0002:000008cc       ??_C@_0BA@GODH@item_adrenaline?$AA@ 100548cc     g_ctf.obj
 0002:000008dc       ??_C@_0M@CNAP@item_enviro?$AA@ 100548dc     g_ctf.obj
 0002:000008e8       ??_C@_0O@CDCD@item_breather?$AA@ 100548e8     g_ctf.obj
 0002:000008f8       ??_C@_0O@OMAC@item_silencer?$AA@ 100548f8     g_ctf.obj
 0002:00000908       ??_C@_0BC@PLPJ@item_armor_jacket?$AA@ 10054908     g_ctf.obj
 0002:0000091c       ??_C@_0BC@GPNI@item_armor_combat?$AA@ 1005491c     g_ctf.obj
 0002:00000930       ??_C@_0BA@GFMA@item_armor_body?$AA@ 10054930     g_ctf.obj
 0002:00000940       ??_C@_0BC@CKDO@item_power_shield?$AA@ 10054940     g_ctf.obj
 0002:00000954       ??_C@_0BC@HJFE@item_power_screen?$AA@ 10054954     g_ctf.obj
 0002:00000968       ??_C@_0P@PHLB@weapon_shotgun?$AA@ 10054968     g_ctf.obj
 0002:00000978       ??_C@_0BE@HCK@weapon_supershotgun?$AA@ 10054978     g_ctf.obj
 0002:0000098c       ??_C@_0BC@JMBH@weapon_machinegun?$AA@ 1005498c     g_ctf.obj
 0002:000009a0       ??_C@_0BH@FDFB@weapon_grenadelauncher?$AA@ 100549a0     g_ctf.obj
 0002:000009b8       ??_C@_0BA@FDHN@weapon_chaingun?$AA@ 100549b8     g_ctf.obj
 0002:000009c8       ??_C@_0BE@LOMA@weapon_hyperblaster?$AA@ 100549c8     g_ctf.obj
 0002:000009dc       ??_C@_0BG@EKMA@weapon_rocketlauncher?$AA@ 100549dc     g_ctf.obj
 0002:000009f4       ??_C@_0P@FOOL@weapon_railgun?$AA@ 100549f4     g_ctf.obj
 0002:00000a04       ??_C@_0L@NOHL@weapon_bfg?$AA@ 10054a04     g_ctf.obj
 0002:00000a10       ??_C@_0BF@MAMM@item_invulnerability?$AA@ 10054a10     g_ctf.obj
 0002:00000a28       ??_C@_09NKAN@item_quad?$AA@ 10054a28     g_ctf.obj
 0002:00000a34       ??_C@_0BA@HABG@item_flag_team2?$AA@ 10054a34     g_ctf.obj
 0002:00000a44       ??_C@_0BA@IPKP@item_flag_team1?$AA@ 10054a44     g_ctf.obj
 0002:00000a54       ??_C@_0L@OCFE@item_tech4?$AA@ 10054a54     g_ctf.obj
 0002:00000a60       ??_C@_0L@LHLB@item_tech3?$AA@ 10054a60     g_ctf.obj
 0002:00000a6c       ??_C@_0L@BNCG@item_tech2?$AA@ 10054a6c     g_ctf.obj
 0002:00000a78       ??_C@_0L@OCJP@item_tech1?$AA@ 10054a78     g_ctf.obj
 0002:00000a84       ??_C@_0CKD@GEEG@yb?7?924?5xv?70?5hnum?5xv?750?5pic?50?5if?5@ 10054a84     g_ctf.obj
 0002:00000d28       __real@4@4004f000000000000000 10054d28     g_ctf.obj
 0002:00000d2c       ??_C@_0BA@PABA@warn_unbalanced?$AA@ 10054d2c     g_ctf.obj
 0002:00000d3c       ??_C@_09EHDA@warp_list?$AA@ 10054d3c     g_ctf.obj
 0002:00000d48       ??_C@_0CD@IMKN@q2ctf1?5q2ctf2?5q2ctf3?5q2ctf4?5q2ct@ 10054d48     g_ctf.obj
 0002:00000d6c       ??_C@_0M@NNH@allow_admin?$AA@ 10054d6c     g_ctf.obj
 0002:00000d78       ??_C@_0P@NBEE@admin_password?$AA@ 10054d78     g_ctf.obj
 0002:00000d88       ??_C@_0P@CLJA@matchstarttime?$AA@ 10054d88     g_ctf.obj
 0002:00000d98       ??_C@_0P@PEDL@matchsetuptime?$AA@ 10054d98     g_ctf.obj
 0002:00000da8       ??_C@_02FCMB@10?$AA@       10054da8     g_ctf.obj
 0002:00000dac       ??_C@_09EEKN@matchtime?$AA@ 10054dac     g_ctf.obj
 0002:00000db8       ??_C@_02GJDO@20?$AA@       10054db8     g_ctf.obj
 0002:00000dbc       ??_C@_0BA@CHAM@electpercentage?$AA@ 10054dbc     g_ctf.obj
 0002:00000dcc       ??_C@_02MMOG@66?$AA@       10054dcc     g_ctf.obj
 0002:00000dd0       ??_C@_09LOAK@matchlock?$AA@ 10054dd0     g_ctf.obj
 0002:00000ddc       ??_C@_0M@MJKI@competition?$AA@ 10054ddc     g_ctf.obj
 0002:00000de8       ??_C@_01PLJA@0?$AA@        10054de8     g_ctf.obj
 0002:00000dec       ??_C@_0O@OBID@ctf_forcejoin?$AA@ 10054dec     g_ctf.obj
 0002:00000dfc       ??_C@_00A@?$AA@            10054dfc     g_ctf.obj
 0002:00000e00       ??_C@_03HGOC@ctf?$AA@      10054e00     g_ctf.obj
 0002:00000e04       ??_C@_01FBAH@1?$AA@        10054e04     g_ctf.obj
 0002:00000e08       ??_C@_06CAMK@ctfsb2?$AA@   10054e08     g_ctf.obj
 0002:00000e10       ??_C@_06NPHD@ctfsb1?$AA@   10054e10     g_ctf.obj
 0002:00000e18       ??_C@_07EOJM@sbfctf2?$AA@  10054e18     g_ctf.obj
 0002:00000e20       ??_C@_07LBCF@sbfctf1?$AA@  10054e20     g_ctf.obj
 0002:00000e28       ??_C@_06EPLN@i_ctfj?$AA@   10054e28     g_ctf.obj
 0002:00000e30       ??_C@_07MEBL@i_ctf2t?$AA@  10054e30     g_ctf.obj
 0002:00000e38       ??_C@_07PPOE@i_ctf1t?$AA@  10054e38     g_ctf.obj
 0002:00000e40       ??_C@_07GNGL@i_ctf2d?$AA@  10054e40     g_ctf.obj
 0002:00000e48       ??_C@_07FGJE@i_ctf1d?$AA@  10054e48     g_ctf.obj
 0002:00000e50       ??_C@_06BHLF@i_ctf2?$AA@   10054e50     g_ctf.obj
 0002:00000e58       ??_C@_06OIAM@i_ctf1?$AA@   10054e58     g_ctf.obj
 0002:00000e60       ??_C@_07CNPM@UNKNOWN?$AA@  10054e60     g_ctf.obj
 0002:00000e68       ??_C@_04GKGD@BLUE?$AA@     10054e68     g_ctf.obj
 0002:00000e70       ??_C@_03OJNE@RED?$AA@      10054e70     g_ctf.obj
 0002:00000e74       ??_C@_05KEJO@?$CFs?2?$CFs?$AA@ 10054e74     g_ctf.obj
 0002:00000e7c       ??_C@_05EODE@ctf_b?$AA@    10054e7c     g_ctf.obj
 0002:00000e84       ??_C@_07MGOL@?$CFs?2?$CFs?$CFs?$AA@ 10054e84     g_ctf.obj
 0002:00000e8c       ??_C@_05OHEE@ctf_r?$AA@    10054e8c     g_ctf.obj
 0002:00000e94       ??_C@_05IICL@male?1?$AA@   10054e94     g_ctf.obj
 0002:00000e9c       ??_C@_0BC@DGGD@info_player_team2?$AA@ 10054e9c     g_ctf.obj
 0002:00000eb0       ??_C@_0BC@MJNK@info_player_team1?$AA@ 10054eb0     g_ctf.obj
 0002:00000ec4       ??_C@_0CD@CBLK@?$CFs?5defends?5the?5?$CFs?8s?5flag?5carrier@ 10054ec4     g_ctf.obj
 0002:00000ee8       ??_C@_0BJ@PPB@?$CFs?5defends?5the?5?$CFs?5flag?4?6?$AA@ 10054ee8     g_ctf.obj
 0002:00000f04       ??_C@_0BJ@MDED@?$CFs?5defends?5the?5?$CFs?5base?4?6?$AA@ 10054f04     g_ctf.obj
 0002:00000f20       __real@4@4007c800000000000000 10054f20     g_ctf.obj
 0002:00000f24       ??_C@_0DJ@DILI@?$CFs?5defends?5?$CFs?8s?5flag?5carrier?5aga@ 10054f24     g_ctf.obj
 0002:00000f60       __real@4@40028000000000000000 10054f60     g_ctf.obj
 0002:00000f64       ??_C@_0DD@DDFA@BONUS?3?5?$CFd?5points?5for?5fragging?5en@ 10054f64     g_ctf.obj
 0002:00000f98       ??_C@_0BF@JCPI@?$CFs?5got?5the?5?$CFs?5flag?$CB?6?$AA@ 10054f98     g_ctf.obj
 0002:00000fb0       ??_C@_0BA@NEHL@ctf?1flagret?4wav?$AA@ 10054fb0     g_ctf.obj
 0002:00000fc0       ??_C@_0BK@PNLF@?$CFs?5returned?5the?5?$CFs?5flag?$CB?6?$AA@ 10054fc0     g_ctf.obj
 0002:00000fdc       ??_C@_0DC@OKJD@?$CFs?5gets?5an?5assist?5for?5fragging?5t@ 10054fdc     g_ctf.obj
 0002:00001010       ??_C@_0CL@EGOI@?$CFs?5gets?5an?5assist?5for?5returning?5@ 10055010     g_ctf.obj
 0002:0000103c       __real@4@4002a000000000000000 1005503c     g_ctf.obj
 0002:00001040       ??_C@_0BA@MFKB@ctf?1flagcap?4wav?$AA@ 10055040     g_ctf.obj
 0002:00001050       ??_C@_0BK@GEJK@?$CFs?5captured?5the?5?$CFs?5flag?$CB?6?$AA@ 10055050     g_ctf.obj
 0002:0000106c       ??_C@_0CG@MPPE@Don?8t?5know?5what?5team?5the?5flag?5is@ 1005506c     g_ctf.obj
 0002:00001094       __real@4@4003f000000000000000 10055094     g_ctf.obj
 0002:00001098       ??_C@_0BG@NEPF@?$CFs?5lost?5the?5?$CFs?5flag?$CB?6?$AA@ 10055098     g_ctf.obj
 0002:000010b0       __real@4@4003e000000000000000 100550b0     g_ctf.obj
 0002:000010b4       ??_C@_0BL@IBGD@The?5?$CFs?5flag?5has?5returned?$CB?6?$AA@ 100550b4     g_ctf.obj
 0002:000010d0       ??_C@_0BL@PEDH@Winners?5don?8t?5drop?5flags?4?6?$AA@ 100550d0     g_ctf.obj
 0002:000010ec       ??_C@_0BJ@NNEH@Only?5lusers?5drop?5flags?4?6?$AA@ 100550ec     g_ctf.obj
 0002:00001108       __real@8@3ffbccccccccccccd000 10055108     g_ctf.obj
 0002:00001110       ??_C@_0CD@GOAJ@CTFFlagSetup?3?5?$CFs?5startsolid?5at?5?$CF@ 10055110     g_ctf.obj
 0002:00001134       ??_C@_0BH@GHHK@players?1male?1flag2?4md2?$AA@ 10055134     g_ctf.obj
 0002:0000114c       ??_C@_0BH@IHBF@players?1male?1flag1?4md2?$AA@ 1005514c     g_ctf.obj
 0002:00001164       ??_C@_0CJ@PJPF@Activating?5player?5identication?5d@ 10055164     g_ctf.obj
 0002:00001190       ??_C@_0CI@LCID@Disabling?5player?5identication?5di@ 10055190     g_ctf.obj
 0002:000011b8       __real@8@3ffee666666666666800 100551b8     g_ctf.obj
 0002:000011c0       __real@8@3ffd8000000000000000 100551c0     g_ctf.obj
 0002:000011c8       ??_C@_0BM@LFMA@weapons?1grapple?1grreset?4wav?$AA@ 100551c8     g_ctf.obj
 0002:000011e4       ??_C@_0BK@BDDB@weapons?1grapple?1grhit?4wav?$AA@ 100551e4     g_ctf.obj
 0002:00001200       ??_C@_0BL@MDJH@weapons?1grapple?1grpull?4wav?$AA@ 10055200     g_ctf.obj
 0002:0000121c       ??_C@_0BL@JJAD@weapons?1grapple?1grhang?4wav?$AA@ 1005521c     g_ctf.obj
 0002:00001238       ??_C@_0BL@IJLG@weapons?1grapple?1grhurt?4wav?$AA@ 10055238     g_ctf.obj
 0002:00001254       ??_C@_0P@NBBO@weapon_grapple?$AA@ 10055254     g_ctf.obj
 0002:00001264       ??_C@_0CF@PEHL@models?1weapons?1grapple?1hook?1tris@ 10055264     g_ctf.obj
 0002:0000128c       ??_C@_0BL@PNPE@weapons?1grapple?1grfire?4wav?$AA@ 1005528c     g_ctf.obj
 0002:000012a8       ??_C@_0BM@KNHD@?$CFs?5changed?5to?5the?5?$CFs?5team?4?6?$AA@ 100552a8     g_ctf.obj
 0002:000012c4       ??_C@_0BI@LKNC@?$CFs?5joined?5the?5?$CFs?5team?4?6?$AA@ 100552c4     g_ctf.obj
 0002:000012dc       ??_C@_0CB@BFEK@You?5are?5already?5on?5the?5?$CFs?5team?4?6@ 100552dc     g_ctf.obj
 0002:00001300       ??_C@_0BC@IOKK@Unknown?5team?5?$CFs?4?6?$AA@ 10055300     g_ctf.obj
 0002:00001314       ??_C@_04FEG@blue?$AA@      10055314     g_ctf.obj
 0002:0000131c       ??_C@_03CMLD@red?$AA@      1005531c     g_ctf.obj
 0002:00001320       ??_C@_0CA@NPAG@Can?8t?5change?5teams?5in?5a?5match?4?6?$AA@ 10055320     g_ctf.obj
 0002:00001340       ??_C@_0BJ@KBBJ@You?5are?5on?5the?5?$CFs?5team?4?6?$AA@ 10055340     g_ctf.obj
 0002:0000135c       ??_C@_0CF@FKCA@xv?5168?5yv?5?$CFd?5string?5?$CC?4?4and?5?$CFd?5mo@ 1005535c     g_ctf.obj
 0002:00001384       ??_C@_0CD@FNJ@xv?58?5yv?5?$CFd?5string?5?$CC?4?4and?5?$CFd?5more@ 10055384     g_ctf.obj
 0002:000013a8       ??_C@_0BE@OKMM@ctf?5?$CFd?5?$CFd?5?$CFd?5?$CFd?5?$CFd?5?$AA@ 100553a8     g_ctf.obj
 0002:000013bc       ??_C@_0CB@KNJO@xv?50?5yv?5?$CFd?5string2?5?$CCSpectators?$CC?5@ 100553bc     g_ctf.obj
 0002:000013e0       ??_C@_0BL@HAHH@xv?5216?5yv?5?$CFd?5picn?5sbfctf1?5?$AA@ 100553e0     g_ctf.obj
 0002:000013fc       ??_C@_0BF@DBKE@ctf?5160?5?$CFd?5?$CFd?5?$CFd?5?$CFd?5?$AA@ 100553fc     g_ctf.obj
 0002:00001414       ??_C@_0BK@NDME@xv?556?5yv?5?$CFd?5picn?5sbfctf2?5?$AA@ 10055414     g_ctf.obj
 0002:00001430       ??_C@_0BD@NPOO@ctf?50?5?$CFd?5?$CFd?5?$CFd?5?$CFd?5?$AA@ 10055430     g_ctf.obj
 0002:00001444       ??_C@_0KF@MOB@if?524?5xv?58?5yv?58?5pic?524?5endif?5xv?5@ 10055444     g_ctf.obj
 0002:000014ec       ??_C@_0CB@ONPG@You?5already?5have?5a?5TECH?5powerup?4@ 100554ec     g_ctf.obj
 0002:00001510       ??_C@_0BH@MKJP@info_player_deathmatch?$AA@ 10055510     g_ctf.obj
 0002:00001528       ??_C@_0O@DHD@ctf?1tech1?4wav?$AA@ 10055528     g_ctf.obj
 0002:00001538       ??_C@_0O@ODBM@ctf?1tech2?4wav?$AA@ 10055538     g_ctf.obj
 0002:00001548       ??_C@_0P@OKJI@ctf?1tech2x?4wav?$AA@ 10055548     g_ctf.obj
 0002:00001558       ??_C@_0O@EDDJ@ctf?1tech3?4wav?$AA@ 10055558     g_ctf.obj
 0002:00001568       ??_C@_0O@CDMD@ctf?1tech4?4wav?$AA@ 10055568     g_ctf.obj
 0002:00001578       ??_C@_09MNOM@?$CI?$CFs?$CJ?3?5?$CFs?6?$AA@ 10055578     g_ctf.obj
 0002:00001584       ??_C@_04IHD@the?5?$AA@     10055584     g_ctf.obj
 0002:0000158c       ??_C@_09HPFB@the?5blue?5?$AA@ 1005558c     g_ctf.obj
 0002:00001598       ??_C@_08PPBO@the?5red?5?$AA@ 10055598     g_ctf.obj
 0002:000015a4       ??_C@_05HNFE@near?5?$AA@   100555a4     g_ctf.obj
 0002:000015ac       ??_C@_06FEFM@below?5?$AA@  100555ac     g_ctf.obj
 0002:000015b4       ??_C@_06EBIF@above?5?$AA@  100555b4     g_ctf.obj
 0002:000015bc       ??_C@_0O@MFMI@in?5the?5water?5?$AA@ 100555bc     g_ctf.obj
 0002:000015cc       ??_C@_07NELF@nowhere?$AA@  100555cc     g_ctf.obj
 0002:000015d4       ??_C@_08CAOO@no?5armor?$AA@ 100555d4     g_ctf.obj
 0002:000015e0       ??_C@_0P@LPNJ@?$CFi?5units?5of?5?$CFs?$AA@ 100555e0     g_ctf.obj
 0002:000015f0       ??_C@_04BHJF@and?5?$AA@    100555f0     g_ctf.obj
 0002:000015f8       ??_C@_0BC@NOEA@?$CFs?5with?5?$CFi?5cells?5?$AA@ 100555f8     g_ctf.obj
 0002:0000160c       ??_C@_0N@CAGF@Power?5Screen?$AA@ 1005560c     g_ctf.obj
 0002:0000161c       ??_C@_05INDM@cells?$AA@    1005561c     g_ctf.obj
 0002:00001624       ??_C@_09CDNP@?$CFi?5health?$AA@ 10055624     g_ctf.obj
 0002:00001630       ??_C@_04ICJN@dead?$AA@     10055630     g_ctf.obj
 0002:00001638       ??_C@_0L@LGHB@no?5powerup?$AA@ 10055638     g_ctf.obj
 0002:00001644       ??_C@_06OIOI@the?5?$CFs?$AA@ 10055644     g_ctf.obj
 0002:0000164c       ??_C@_04KIKH@none?$AA@     1005564c     g_ctf.obj
 0002:00001654       ??_C@_06GJLM@no?5one?$AA@  10055654     g_ctf.obj
 0002:0000165c       ??_C@_05BDDP@?5and?5?$AA@  1005565c     g_ctf.obj
 0002:00001664       ??_C@_02GIEM@?0?5?$AA@     10055664     g_ctf.obj
 0002:00001668       ??_C@_0BL@EMH@models?1ctf?1banner?1tris?4md2?$AA@ 10055668     g_ctf.obj
 0002:00001684       ??_C@_0BM@FHOF@models?1ctf?1banner?1small?4md2?$AA@ 10055684     g_ctf.obj
 0002:000016a0       ??_C@_0CH@GCI@Votes?3?5?$CFd?5?5Needed?3?5?$CFd?5?5Time?5left@ 100556a0     g_ctf.obj
 0002:000016c8       ??_C@_0CJ@PELJ@Type?5YES?5or?5NO?5to?5vote?5on?5this?5r@ 100556c8     g_ctf.obj
 0002:000016f4       ??_C@_03HHKO@?$CFs?6?$AA@  100556f4     g_ctf.obj
 0002:000016f8       __real@4@4005c800000000000000 100556f8     g_ctf.obj
 0002:000016fc       ??_C@_0CC@CIKI@Not?5enough?5players?5for?5election?4@ 100556fc     g_ctf.obj
 0002:00001720       ??_C@_0BP@BABG@Election?5already?5in?5progress?4?6?$AA@ 10055720     g_ctf.obj
 0002:00001740       ??_C@_0EA@FKAB@Elections?5are?5disabled?0?5only?5an?5@ 10055740     g_ctf.obj
 0002:00001780       ??_C@_0FF@KHFB@If?5you?5lose?5connection?0?5you?5can?5@ 10055780     g_ctf.obj
 0002:000017d8       ??_C@_0CB@CEJC@Your?5ghost?5code?5is?5?$CK?$CK?$CK?$CK?5?$CFd?5?$CK?$CK?$CK?$CK?6@ 100557d8     g_ctf.obj
 0002:00001800       __real@8@4002a000000000000000 10055800     g_ctf.obj
 0002:00001808       ??_C@_0DL@HGLH@?$CK?$CK?$CK?$CK?$CK?$CK?$CK?$CK?$CK?$CK?$CK?$CK?$CK?$CK?$CK?$CK?$CK?$CK?6?6MATCH?5HAS?5ST@ 10055808     g_ctf.obj
 0002:00001844       ??_C@_0L@HKKH@TIE?5GAME?$CB?6?$AA@ 10055844     g_ctf.obj
 0002:00001850       ??_C@_0CP@HECL@BLUE?5team?5won?5over?5the?5RED?5team?5@ 10055850     g_ctf.obj
 0002:00001880       ??_C@_0CP@CBEA@RED?5team?5won?5over?5the?5BLUE?5team?5@ 10055880     g_ctf.obj
 0002:000018b0       ??_C@_0DB@ECGP@BLUE?5team?5won?5over?5the?5RED?5team?5@ 100558b0     g_ctf.obj
 0002:000018e4       ??_C@_0DB@LKKI@RED?5team?5won?5over?5the?5BLUE?5team?5@ 100558e4     g_ctf.obj
 0002:00001918       ??_C@_0CE@DELC@BLUE?5TEAM?3?5?5?$CFd?5captures?0?5?$CFd?5poin@ 10055918     g_ctf.obj
 0002:0000193c       ??_C@_0CD@GNJJ@RED?5TEAM?3?5?5?$CFd?5captures?0?5?$CFd?5point@ 1005593c     g_ctf.obj
 0002:00001960       ??_C@_0BC@BCCA@MATCH?5COMPLETED?$CB?6?$AA@ 10055960     g_ctf.obj
 0002:00001974       ??_C@_0BM@CIPG@?$CFs?5is?5warping?5to?5level?5?$CFs?4?6?$AA@ 10055974     g_ctf.obj
 0002:00001990       ??_C@_0DA@HKPG@Type?5?8admin?8?5to?5access?5the?5admin@ 10055990     g_ctf.obj
 0002:000019c0       ??_C@_0BJ@IMNO@?$CFs?5has?5become?5an?5admin?4?6?$AA@ 100559c0     g_ctf.obj
 0002:000019dc       ??_C@_01KOLO@2?$AA@        100559dc     g_ctf.obj
 0002:000019e0       ??_C@_0BO@NCEJ@You?5can?8t?5vote?5for?5yourself?4?6?$AA@ 100559e0     g_ctf.obj
 0002:00001a00       ??_C@_0BE@HMJF@You?5already?5voted?4?6?$AA@ 10055a00     g_ctf.obj
 0002:00001a14       ??_C@_0BN@JIAJ@No?5election?5is?5in?5progress?4?6?$AA@ 10055a14     g_ctf.obj
 0002:00001a34       ??_C@_0P@HFBE@misc?1talk1?4wav?$AA@ 10055a34     g_ctf.obj
 0002:00001a44       ??_C@_0CM@EJIJ@All?5players?5have?5commited?4?5?5Matc@ 10055a44     g_ctf.obj
 0002:00001a70       ??_C@_0O@KKHK@?$CFs?5is?5ready?4?6?$AA@ 10055a70     g_ctf.obj
 0002:00001a80       ??_C@_0BM@EBFA@You?5have?5already?5commited?4?6?$AA@ 10055a80     g_ctf.obj
 0002:00001a9c       ??_C@_0BN@KFPB@A?5match?5is?5not?5being?5setup?4?6?$AA@ 10055a9c     g_ctf.obj
 0002:00001abc       ??_C@_0CI@GPIM@Pick?5a?5team?5first?5?$CIhit?5?$DMTAB?$DO?5for@ 10055abc     g_ctf.obj
 0002:00001ae4       ??_C@_0P@CFKF@Match?5halted?4?6?$AA@ 10055ae4     g_ctf.obj
 0002:00001af4       ??_C@_0BI@JAMO@?$CFs?5is?5no?5longer?5ready?4?6?$AA@ 10055af4     g_ctf.obj
 0002:00001b0c       ??_C@_0BH@ECMK@You?5haven?8t?5commited?4?6?$AA@ 10055b0c     g_ctf.obj
 0002:00001b24       ??_C@_0BF@JG@Invalid?5ghost?5code?4?6?$AA@ 10055b24     g_ctf.obj
 0002:00001b3c       ??_C@_0CE@INNE@?$CFs?5has?5been?5reinstated?5to?5?$CFs?5tea@ 10055b3c     g_ctf.obj
 0002:00001b60       ??_C@_0DJ@ODHI@Ghost?5code?5accepted?0?5your?5positi@ 10055b60     g_ctf.obj
 0002:00001b9c       ??_C@_0BK@GFEB@No?5match?5is?5in?5progress?4?6?$AA@ 10055b9c     g_ctf.obj
 0002:00001bb8       ??_C@_0BO@OEDN@You?5are?5already?5in?5the?5game?4?6?$AA@ 10055bb8     g_ctf.obj
 0002:00001bd8       ??_C@_0BG@MPEL@Usage?3?5?5ghost?5?$DMcode?$DO?6?$AA@ 10055bd8     g_ctf.obj
 0002:00001bf0       ??_C@_0FF@DDD@?$CK?$CK?$CK?$CK?$CK?$CK?$CK?$CK?$CK?$CK?$CK?$CK?$CK?$CK?$CK?$CK?$CK?$CK?$CK?$CK?$CK?$CK?$CK?6Type?5?$CCre@ 10055bf0     g_ctf.obj
 0002:00001c48       ??_C@_0DA@EFGM@?$CFs?5has?5requested?5to?5switch?5to?5co@ 10055c48     g_ctf.obj
 0002:00001c78       ??_C@_0O@GIFJ@Request?5Match?$AA@ 10055c78     g_ctf.obj
 0002:00001c88       ??_C@_0BD@NIF@?$CKMATCH?5IN?5PROGRESS?$AA@ 10055c88     g_ctf.obj
 0002:00001c9c       ??_C@_0BA@OLKI@?$CKMATCH?5STARTING?$AA@ 10055c9c     g_ctf.obj
 0002:00001cac       ??_C@_0BJ@IDCI@?$CKMATCH?5SETUP?5IN?5PROGRESS?$AA@ 10055cac     g_ctf.obj
 0002:00001cc8       ??_C@_0P@MGDB@?5?5?$CI?$CFd?5players?$CJ?$AA@ 10055cc8     g_ctf.obj
 0002:00001cd8       ??_C@_0BD@EIKM@Leave?5Chase?5Camera?$AA@ 10055cd8     g_ctf.obj
 0002:00001cec       ??_C@_0BF@KFLN@Join?5Blue?5MATCH?5Team?$AA@ 10055cec     g_ctf.obj
 0002:00001d04       ??_C@_0BE@MCBK@Join?5Red?5MATCH?5Team?$AA@ 10055d04     g_ctf.obj
 0002:00001d18       ??_C@_0BL@GBCM@?5?5?$CIentry?5is?5not?5permitted?$CJ?$AA@ 10055d18     g_ctf.obj
 0002:00001d34       ??_C@_0BA@BJO@MATCH?5IS?5LOCKED?$AA@ 10055d34     g_ctf.obj
 0002:00001d44       ??_C@_0BD@HDFI@Capturelimit?5hit?4?6?$AA@ 10055d44     g_ctf.obj
 0002:00001d58       ??_C@_0CD@IGPO@WARNING?3?5Blue?5has?5too?5many?5playe@ 10055d58     g_ctf.obj
 0002:00001d7c       ??_C@_0CC@KPOI@WARNING?3?5Red?5has?5too?5many?5player@ 10055d7c     g_ctf.obj
 0002:00001da0       ??_C@_0BA@JMNJ@?$CF02d?3?$CF02d?5MATCH?$AA@ 10055da0     g_ctf.obj
 0002:00001db0       ??_C@_0P@JGIM@world?110_0?4wav?$AA@ 10055db0     g_ctf.obj
 0002:00001dc0       ??_C@_0BG@BIDP@?$CF02d?3?$CF02d?5UNTIL?5START?$AA@ 10055dc0     g_ctf.obj
 0002:00001dd8       ??_C@_0BE@FONG@SETUP?3?5?$CFd?5not?5ready?$AA@ 10055dd8     g_ctf.obj
 0002:00001dec       ??_C@_0BO@OBEL@?$CF02d?3?$CF02d?5SETUP?3?5?$CFd?5not?5ready?$AA@ 10055dec     g_ctf.obj
 0002:00001e0c       ??_C@_0BB@KGMJ@misc?1bigtele?4wav?$AA@ 10055e0c     g_ctf.obj
 0002:00001e20       ??_C@_0BB@PMHO@misc?1tele_up?4wav?$AA@ 10055e20     g_ctf.obj
 0002:00001e34       ??_C@_0CM@PDAJ@Election?5timed?5out?5and?5has?5been?5@ 10055e34     g_ctf.obj
 0002:00001e60       ??_C@_0P@ECFC@world?1hum1?4wav?$AA@ 10055e60     g_ctf.obj
 0002:00001e70       ??_C@_0BO@NINO@teleporter?5without?5a?5target?4?6?$AA@ 10055e70     g_ctf.obj
 0002:00001e90       ??_C@_0BL@GBLC@Couldn?8t?5find?5destination?6?$AA@ 10055e90     g_ctf.obj
 0002:00001eac       ??_C@_0BK@OAGK@?$CFs?5turned?5?$CFs?5match?5lock?4?6?$AA@ 10055eac     g_ctf.obj
 0002:00001ec8       ??_C@_0M@GOBA@instantweap?$AA@ 10055ec8     g_ctf.obj
 0002:00001ed4       ??_C@_0BP@KDKH@?$CFs?5turned?5?$CFs?5instant?5weapons?4?6?$AA@ 10055ed4     g_ctf.obj
 0002:00001ef4       ??_C@_0BJ@JLMH@?$CFs?5turned?5?$CFs?5quad?5drop?4?6?$AA@ 10055ef4     g_ctf.obj
 0002:00001f10       ??_C@_0BN@PBEN@?$CFs?5turned?5?$CFs?5instant?5items?4?6?$AA@ 10055f10     g_ctf.obj
 0002:00001f30       ??_C@_07NJLK@dmflags?$AA@  10055f30     g_ctf.obj
 0002:00001f38       ??_C@_0BM@INPG@?$CFs?5turned?5?$CFs?5weapons?5stay?4?6?$AA@ 10055f38     g_ctf.obj
 0002:00001f54       ??_C@_03OJPB@off?$AA@      10055f54     g_ctf.obj
 0002:00001f58       ??_C@_02PHBM@on?$AA@       10055f58     g_ctf.obj
 0002:00001f5c       ??_C@_0DA@DACC@?$CFs?5changed?5the?5match?5start?5time?5@ 10055f5c     g_ctf.obj
 0002:00001f8c       ??_C@_0DA@DBHM@?$CFs?5changed?5the?5match?5setup?5time?5@ 10055f8c     g_ctf.obj
 0002:00001fbc       ??_C@_02MECO@?$CFd?$AA@    10055fbc     g_ctf.obj
 0002:00001fc0       ??_C@_0CM@HHHB@?$CFs?5changed?5the?5match?5length?5to?5?$CF@ 10055fc0     g_ctf.obj
 0002:00001fec       ??_C@_0BE@CJIF@Match?5Lock?3?5?5?5?5?5?5?$CFs?$AA@ 10055fec     g_ctf.obj
 0002:00002000       ??_C@_0BE@JOKA@Instant?5Weapons?3?5?$CFs?$AA@ 10056000     g_ctf.obj
 0002:00002014       ??_C@_0BE@JIEJ@Quad?5Drop?3?5?5?5?5?5?5?5?$CFs?$AA@ 10056014     g_ctf.obj
 0002:00002028       ??_C@_0BE@FBJM@Instant?5Items?3?5?5?5?$CFs?$AA@ 10056028     g_ctf.obj
 0002:0000203c       ??_C@_0BE@HFMH@Weapons?5Stay?3?5?5?5?5?$CFs?$AA@ 1005603c     g_ctf.obj
 0002:00002050       ??_C@_02JOHD@No?$AA@       10056050     g_ctf.obj
 0002:00002054       ??_C@_03PEHN@Yes?$AA@      10056054     g_ctf.obj
 0002:00002058       ??_C@_0BK@FBAJ@Match?5Start?5Len?3?5?$CF2d?5secs?$AA@ 10056058     g_ctf.obj
 0002:00002074       ??_C@_0BK@BDCP@Match?5Setup?5Len?3?5?$CF2d?5mins?$AA@ 10056074     g_ctf.obj
 0002:00002090       ??_C@_0BK@OHOG@Match?5Len?3?5?5?5?5?5?5?5?$CF2d?5mins?$AA@ 10056090     g_ctf.obj
 0002:000020ac       ??_C@_0CF@LGDG@Match?5has?5been?5forced?5to?5termina@ 100560ac     g_ctf.obj
 0002:000020d4       ??_C@_0CB@LFKA@Match?5has?5been?5forced?5to?5start?4?6@ 100560d4     g_ctf.obj
 0002:000020f8       ??_C@_0DK@FNGN@Match?5mode?5has?5been?5terminated?0?5@ 100560f8     g_ctf.obj
 0002:00002134       ??_C@_0BF@HGIC@Switch?5to?5match?5mode?$AA@ 10056134     g_ctf.obj
 0002:0000214c       ??_C@_0N@MKGH@Cancel?5match?$AA@ 1005614c     g_ctf.obj
 0002:0000215c       ??_C@_0BF@JJMH@Reset?5to?5pickup?5mode?$AA@ 1005615c     g_ctf.obj
 0002:00002174       ??_C@_0BC@GEGP@Force?5start?5match?$AA@ 10056174     g_ctf.obj
 0002:00002188       ??_C@_0BP@GIJI@?$CFs?5has?5requested?5admin?5rights?4?$AA@ 10056188     g_ctf.obj
 0002:000021a8       ??_C@_0BM@KBKH@Administration?5is?5disabled?6?$AA@ 100561a8     g_ctf.obj
 0002:000021c4       ??_C@_0N@KKIB@And?5more?4?4?4?6?$AA@ 100561c4     g_ctf.obj
 0002:000021d4       ??_C@_0CJ@HKEL@?$CF3d?$HM?$CF?916?416s?$HM?$CF5d?$HM?$CF5d?$HM?$CF5d?$HM?$CF5d?$HM?$CF5d@ 100561d4     g_ctf.obj
 0002:00002200       ??_C@_0DL@BIAP@?5?5?$CD?$HMName?5?5?5?5?5?5?5?5?5?5?5?5?$HMScore?$HMKills@ 10056200     g_ctf.obj
 0002:0000223c       ??_C@_0BK@PFFC@No?5statistics?5available?4?6?$AA@ 1005623c     g_ctf.obj
 0002:00002258       ??_C@_0BC@ILPE@?$CFs?5is?5not?5ready?4?6?$AA@ 10056258     g_ctf.obj
 0002:0000226c       ??_C@_0CE@IHFN@?$CF3d?5?$CF?916?416s?5?$CF02d?3?$CF02d?5?$CF4d?5?$CF3d?$CFs@ 1005626c     g_ctf.obj
 0002:00002290       ??_C@_0M@MOJI@?5?$CInotready?$CJ?$AA@ 10056290     g_ctf.obj
 0002:0000229c       ??_C@_08GNBF@?5?$CIready?$CJ?$AA@ 1005629c     g_ctf.obj
 0002:000022a8       ??_C@_08BHAP@?5?$CIadmin?$CJ?$AA@ 100562a8     g_ctf.obj
 0002:000022b4       ??_C@_0CG@HMEC@?$CFs?5has?5requested?5warping?5to?5leve@ 100562b4     g_ctf.obj
 0002:000022dc       ??_C@_0BE@CDOD@Unknown?5CTF?5level?4?6?$AA@ 100562dc     g_ctf.obj
 0002:000022f0       ??_C@_0BK@KHBF@Available?5levels?5are?3?5?$CFs?6?$AA@ 100562f0     g_ctf.obj
 0002:0000230c       ??_C@_0BP@KPH@Where?5do?5you?5want?5to?5warp?5to?$DP?6?$AA@ 1005630c     g_ctf.obj
 0002:0000232c       ??_C@_08OCNC@kick?5?$CFd?6?$AA@ 1005632c     g_ctf.obj
 0002:00002338       ??_C@_0CG@IFGL@That?5player?5number?5is?5not?5connec@ 10056338     g_ctf.obj
 0002:00002360       ??_C@_0BI@GNDO@Invalid?5player?5number?4?6?$AA@ 10056360     g_ctf.obj
 0002:00002378       ??_C@_0CE@NGMK@Specify?5the?5player?5number?5to?5kic@ 10056378     g_ctf.obj
 0002:0000239c       ??_C@_0BK@FIMC@Who?5do?5you?5want?5to?5kick?$DP?6?$AA@ 1005639c     g_ctf.obj
 0002:000023b8       ??_C@_0BH@BPOF@You?5are?5not?5an?5admin?4?6?$AA@ 100563b8     g_ctf.obj
 0002:000023d0       __real@8@c0008000000000000000 100563d0     g_func.obj
 0002:000023d8       __real@4@c0008000000000000000 100563d8     g_func.obj
 0002:000023dc       __real@4@40018000000000000000 100563dc     g_func.obj
 0002:000023e0       __real@8@40008000000000000000 100563e0     g_func.obj
 0002:000023e8       __real@4@4003c800000000000000 100563e8     g_func.obj
 0002:000023ec       ??_C@_0BC@EIKC@plats?1pt1_end?4wav?$AA@ 100563ec     g_func.obj
 0002:00002400       ??_C@_0BC@NEGP@plats?1pt1_mid?4wav?$AA@ 10056400     g_func.obj
 0002:00002414       ??_C@_0BD@CLJM@plats?1pt1_strt?4wav?$AA@ 10056414     g_func.obj
 0002:00002428       ??_C@_0BD@FDDF@switches?1butn2?4wav?$AA@ 10056428     g_func.obj
 0002:0000243c       ??_C@_0BA@OOGF@func_areaportal?$AA@ 1005643c     g_func.obj
 0002:0000244c       ??_C@_0BD@DIJK@func_door_rotating?$AA@ 1005644c     g_func.obj
 0002:00002460       ??_C@_09HMCI@func_door?$AA@ 10056460     g_func.obj
 0002:0000246c       ??_C@_0O@DEBE@misc?1talk?4wav?$AA@ 1005646c     g_func.obj
 0002:0000247c       ??_C@_0BC@MBBE@doors?1dr1_end?4wav?$AA@ 1005647c     g_func.obj
 0002:00002490       ??_C@_0BC@FNNJ@doors?1dr1_mid?4wav?$AA@ 10056490     g_func.obj
 0002:000024a4       ??_C@_0BD@GMBF@doors?1dr1_strt?4wav?$AA@ 100564a4     g_func.obj
 0002:000024b8       ??_C@_0BP@EBPH@?$CFs?5at?5?$CFs?5with?5no?5distance?5set?6?$AA@ 100564b8     g_func.obj
 0002:000024d8       __real@4@bfff8000000000000000 100564d8     g_func.obj
 0002:000024dc       ??_C@_0BD@FCKL@world?1stp_watr?4wav?$AA@ 100564dc     g_func.obj
 0002:000024f0       ??_C@_0BD@GMLH@world?1mov_watr?4wav?$AA@ 100564f0     g_func.obj
 0002:00002504       ??_C@_0CP@LEJP@connected?5teleport?5path_corners?0@ 10056504     g_func.obj
 0002:00002534       ??_C@_0BL@EBHP@train_next?3?5bad?5target?5?$CFs?6?$AA@ 10056534     g_func.obj
 0002:00002550       ??_C@_0CB@KOIG@train_find?3?5target?5?$CFs?5not?5found?6@ 10056550     g_func.obj
 0002:00002574       ??_C@_0BH@BLIH@train_find?3?5no?5target?6?$AA@ 10056574     g_func.obj
 0002:0000258c       ??_C@_0CD@EJHD@func_train?5without?5a?5target?5at?5?$CF@ 1005658c     g_func.obj
 0002:000025b0       ??_C@_0CH@DLI@elevator?5used?5with?5bad?5pathtarge@ 100565b0     g_func.obj
 0002:000025d8       ??_C@_0CC@IBKK@elevator?5used?5with?5no?5pathtarget@ 100565d8     g_func.obj
 0002:000025fc       ??_C@_0CL@PPLO@trigger_elevator?5target?5?$CFs?5is?5no@ 100565fc     g_func.obj
 0002:00002628       ??_C@_0L@OLKI@func_train?$AA@ 10056628     g_func.obj
 0002:00002634       ??_C@_0CL@CBCI@trigger_elevator?5unable?5to?5find?5@ 10056634     g_func.obj
 0002:00002660       ??_C@_0CA@BDIG@trigger_elevator?5has?5no?5target?6?$AA@ 10056660     g_func.obj
 0002:00002680       ??_C@_0CF@NBCN@func_timer?5at?5?$CFs?5has?5random?5?$DO?$DN?5w@ 10056680     g_func.obj
 0002:000026a8       ??_C@_07BJK@AutoDoc?$AA@   100566a8     g_items.obj
 0002:000026b0       ??_C@_05GLMI@tech4?$AA@    100566b0     g_items.obj
 0002:000026b8       ??_C@_0CB@HDJC@models?1ctf?1regeneration?1tris?4md2@ 100566b8     g_items.obj
 0002:000026dc       ??_C@_0L@HLAD@Time?5Accel?$AA@ 100566dc     g_items.obj
 0002:000026e8       ??_C@_05DOCN@tech3?$AA@    100566e8     g_items.obj
 0002:000026f0       ??_C@_0BK@FDDN@models?1ctf?1haste?1tris?4md2?$AA@ 100566f0     g_items.obj
 0002:0000270c       ??_C@_0BN@LIPJ@ctf?1tech2?4wav?5ctf?1tech2x?4wav?$AA@ 1005670c     g_items.obj
 0002:0000272c       ??_C@_0BA@DNAD@Power?5Amplifier?$AA@ 1005672c     g_items.obj
 0002:0000273c       ??_C@_05JELK@tech2?$AA@    1005673c     g_items.obj
 0002:00002744       ??_C@_0BN@GNJP@models?1ctf?1strength?1tris?4md2?$AA@ 10056744     g_items.obj
 0002:00002764       ??_C@_0BB@JOOL@Disruptor?5Shield?$AA@ 10056764     g_items.obj
 0002:00002778       ??_C@_05GLAD@tech1?$AA@    10056778     g_items.obj
 0002:00002780       ??_C@_0BP@CFA@models?1ctf?1resistance?1tris?4md2?$AA@ 10056780     g_items.obj
 0002:000027a0       ??_C@_09DHIB@Blue?5Flag?$AA@ 100567a0     g_items.obj
 0002:000027ac       ??_C@_08CLEI@Red?5Flag?$AA@ 100567ac     g_items.obj
 0002:000027b8       ??_C@_0P@DNK@ctf?1flagtk?4wav?$AA@ 100567b8     g_items.obj
 0002:000027c8       ??_C@_0EM@LNKL@items?1s_health?4wav?5items?1n_healt@ 100567c8     g_items.obj
 0002:00002814       ??_C@_06MACP@Health?$AA@   10056814     g_items.obj
 0002:0000281c       ??_C@_08ICHB@i_health?$AA@ 1005681c     g_items.obj
 0002:00002828       ??_C@_0BB@ICKC@Airstrike?5Marker?$AA@ 10056828     g_items.obj
 0002:0000283c       ??_C@_0M@BJCM@i_airstrike?$AA@ 1005683c     g_items.obj
 0002:00002848       ??_C@_0CC@BHHL@models?1items?1keys?1target?1tris?4md@ 10056848     g_items.obj
 0002:0000286c       ??_C@_0BF@HDCH@key_airstrike_target?$AA@ 1005686c     g_items.obj
 0002:00002884       ??_C@_0BB@JKCO@Commander?8s?5Head?$AA@ 10056884     g_items.obj
 0002:00002898       ??_C@_09DDEJ@k_comhead?$AA@ 10056898     g_items.obj
 0002:000028a4       ??_C@_0CH@PJGN@models?1monsters?1commandr?1head?1tr@ 100568a4     g_items.obj
 0002:000028cc       ??_C@_0BD@IOEP@key_commander_head?$AA@ 100568cc     g_items.obj
 0002:000028e0       ??_C@_07FJLB@Red?5Key?$AA@ 100568e0     g_items.obj
 0002:000028e8       ??_C@_08LPPA@k_redkey?$AA@ 100568e8     g_items.obj
 0002:000028f4       ??_C@_0CD@OEHM@models?1items?1keys?1red_key?1tris?4m@ 100568f4     g_items.obj
 0002:00002918       ??_C@_0M@IMJK@key_red_key?$AA@ 10056918     g_items.obj
 0002:00002924       ??_C@_08JAFA@Blue?5Key?$AA@ 10056924     g_items.obj
 0002:00002930       ??_C@_09OBKC@k_bluekey?$AA@ 10056930     g_items.obj
 0002:0000293c       ??_C@_0BP@KAAH@models?1items?1keys?1key?1tris?4md2?$AA@ 1005693c     g_items.obj
 0002:0000295c       ??_C@_0N@OOKB@key_blue_key?$AA@ 1005695c     g_items.obj
 0002:0000296c       ??_C@_0O@NDGM@Security?5Pass?$AA@ 1005696c     g_items.obj
 0002:0000297c       ??_C@_0L@PMKO@k_security?$AA@ 1005697c     g_items.obj
 0002:00002988       ??_C@_0CA@FPDK@models?1items?1keys?1pass?1tris?4md2?$AA@ 10056988     g_items.obj
 0002:000029a8       ??_C@_08BBNH@key_pass?$AA@ 100569a8     g_items.obj
 0002:000029b4       ??_C@_0N@JPBB@Data?5Spinner?$AA@ 100569b4     g_items.obj
 0002:000029c4       ??_C@_0L@KFIJ@k_dataspin?$AA@ 100569c4     g_items.obj
 0002:000029d0       ??_C@_0CD@FKBP@models?1items?1keys?1spinner?1tris?4m@ 100569d0     g_items.obj
 0002:000029f4       ??_C@_0BB@BMDG@key_data_spinner?$AA@ 100569f4     g_items.obj
 0002:00002a08       ??_C@_0M@BHPN@Pyramid?5Key?$AA@ 10056a08     g_items.obj
 0002:00002a14       ??_C@_09MHMJ@k_pyramid?$AA@ 10056a14     g_items.obj
 0002:00002a20       ??_C@_0CD@KBCN@models?1items?1keys?1pyramid?1tris?4m@ 10056a20     g_items.obj
 0002:00002a44       ??_C@_0M@EGCN@key_pyramid?$AA@ 10056a44     g_items.obj
 0002:00002a50       ??_C@_0L@NGMP@Power?5Cube?$AA@ 10056a50     g_items.obj
 0002:00002a5c       ??_C@_0M@MDMI@k_powercube?$AA@ 10056a5c     g_items.obj
 0002:00002a68       ??_C@_0CB@NDLO@models?1items?1keys?1power?1tris?4md2@ 10056a68     g_items.obj
 0002:00002a8c       ??_C@_0P@KFJF@key_power_cube?$AA@ 10056a8c     g_items.obj
 0002:00002a9c       ??_C@_07NOCL@Data?5CD?$AA@ 10056a9c     g_items.obj
 0002:00002aa4       ??_C@_08PDOC@k_datacd?$AA@ 10056aa4     g_items.obj
 0002:00002ab0       ??_C@_0CD@PNKA@models?1items?1keys?1data_cd?1tris?4m@ 10056ab0     g_items.obj
 0002:00002ad4       ??_C@_0M@HNGO@key_data_cd?$AA@ 10056ad4     g_items.obj
 0002:00002ae0       ??_C@_09PBEE@Ammo?5Pack?$AA@ 10056ae0     g_items.obj
 0002:00002aec       ??_C@_06KINL@i_pack?$AA@   10056aec     g_items.obj
 0002:00002af4       ??_C@_0BL@HOFG@models?1items?1pack?1tris?4md2?$AA@ 10056af4     g_items.obj
 0002:00002b10       ??_C@_09COCH@Bandolier?$AA@ 10056b10     g_items.obj
 0002:00002b1c       ??_C@_0M@OADN@p_bandolier?$AA@ 10056b1c     g_items.obj
 0002:00002b28       ??_C@_0BL@PMA@models?1items?1band?1tris?4md2?$AA@ 10056b28     g_items.obj
 0002:00002b44       ??_C@_0L@PNMB@Adrenaline?$AA@ 10056b44     g_items.obj
 0002:00002b50       ??_C@_0N@NGAP@p_adrenaline?$AA@ 10056b50     g_items.obj
 0002:00002b60       ??_C@_0BO@DMKC@models?1items?1adrenal?1tris?4md2?$AA@ 10056b60     g_items.obj
 0002:00002b80       ??_C@_0N@JMEI@Ancient?5Head?$AA@ 10056b80     g_items.obj
 0002:00002b90       ??_C@_07GBEC@i_fixme?$AA@  10056b90     g_items.obj
 0002:00002b98       ??_C@_0BN@KLFA@models?1items?1c_head?1tris?4md2?$AA@ 10056b98     g_items.obj
 0002:00002bb8       ??_C@_0BC@JGIH@item_ancient_head?$AA@ 10056bb8     g_items.obj
 0002:00002bcc       ??_C@_0BB@IPAO@Environment?5Suit?$AA@ 10056bcc     g_items.obj
 0002:00002be0       ??_C@_0N@OPNI@p_envirosuit?$AA@ 10056be0     g_items.obj
 0002:00002bf0       ??_C@_0BN@FAOA@models?1items?1enviro?1tris?4md2?$AA@ 10056bf0     g_items.obj
 0002:00002c10       ??_C@_0BB@NIN@items?1airout?4wav?$AA@ 10056c10     g_items.obj
 0002:00002c24       ??_C@_0L@LNMI@Rebreather?$AA@ 10056c24     g_items.obj
 0002:00002c30       ??_C@_0N@JGAG@p_rebreather?$AA@ 10056c30     g_items.obj
 0002:00002c40       ??_C@_0BP@BBGL@models?1items?1breather?1tris?4md2?$AA@ 10056c40     g_items.obj
 0002:00002c60       ??_C@_08HEGP@Silencer?$AA@ 10056c60     g_items.obj
 0002:00002c6c       ??_C@_0L@GOHC@p_silencer?$AA@ 10056c6c     g_items.obj
 0002:00002c78       ??_C@_0BP@GHMI@models?1items?1silencer?1tris?4md2?$AA@ 10056c78     g_items.obj
 0002:00002c98       ??_C@_0DI@NJKD@items?1protect?4wav?5items?1protect2@ 10056c98     g_items.obj
 0002:00002cd0       ??_C@_0BA@BJNG@Invulnerability?$AA@ 10056cd0     g_items.obj
 0002:00002ce0       ??_C@_0BC@EFC@p_invulnerability?$AA@ 10056ce0     g_items.obj
 0002:00002cf4       ??_C@_0BP@CBEK@models?1items?1invulner?1tris?4md2?$AA@ 10056cf4     g_items.obj
 0002:00002d14       ??_C@_0DF@IGAC@items?1damage?4wav?5items?1damage2?4w@ 10056d14     g_items.obj
 0002:00002d4c       ??_C@_0M@MLLH@Quad?5Damage?$AA@ 10056d4c     g_items.obj
 0002:00002d58       ??_C@_06KKBC@p_quad?$AA@   10056d58     g_items.obj
 0002:00002d60       ??_C@_0BP@KNLB@models?1items?1quaddama?1tris?4md2?$AA@ 10056d60     g_items.obj
 0002:00002d80       ??_C@_0P@GLJD@items?1pkup?4wav?$AA@ 10056d80     g_items.obj
 0002:00002d90       ??_C@_07MDOK@a_slugs?$AA@  10056d90     g_items.obj
 0002:00002d98       ??_C@_0CI@HJH@models?1items?1ammo?1slugs?1medium?1t@ 10056d98     g_items.obj
 0002:00002dc0       ??_C@_0L@PCJD@ammo_slugs?$AA@ 10056dc0     g_items.obj
 0002:00002dcc       ??_C@_09BGGI@a_rockets?$AA@ 10056dcc     g_items.obj
 0002:00002dd8       ??_C@_0CK@EPEF@models?1items?1ammo?1rockets?1medium@ 10056dd8     g_items.obj
 0002:00002e04       ??_C@_0N@DEF@ammo_rockets?$AA@ 10056e04     g_items.obj
 0002:00002e14       ??_C@_07KDBP@a_cells?$AA@  10056e14     g_items.obj
 0002:00002e1c       ??_C@_0CI@CBPO@models?1items?1ammo?1cells?1medium?1t@ 10056e1c     g_items.obj
 0002:00002e44       ??_C@_0L@JCGG@ammo_cells?$AA@ 10056e44     g_items.obj
 0002:00002e50       ??_C@_09LIBP@a_bullets?$AA@ 10056e50     g_items.obj
 0002:00002e5c       ??_C@_0CK@CGE@models?1items?1ammo?1bullets?1medium@ 10056e5c     g_items.obj
 0002:00002e88       ??_C@_0N@KNDC@ammo_bullets?$AA@ 10056e88     g_items.obj
 0002:00002e98       ??_C@_08ODLI@a_shells?$AA@ 10056e98     g_items.obj
 0002:00002ea4       ??_C@_0CJ@HNEA@models?1items?1ammo?1shells?1medium?1@ 10056ea4     g_items.obj
 0002:00002ed0       ??_C@_0M@MOIJ@ammo_shells?$AA@ 10056ed0     g_items.obj
 0002:00002edc       ??_C@_0IM@CFEI@sprites?1s_bfg1?4sp2?5sprites?1s_bfg@ 10056edc     g_items.obj
 0002:00002f68       ??_C@_06KEGK@BFG10K?$AA@   10056f68     g_items.obj
 0002:00002f70       ??_C@_05HHEE@w_bfg?$AA@    10056f70     g_items.obj
 0002:00002f78       ??_C@_0BO@NMNP@models?1weapons?1v_bfg?1tris?4md2?$AA@ 10056f78     g_items.obj
 0002:00002f98       ??_C@_0BO@HJJI@models?1weapons?1g_bfg?1tris?4md2?$AA@ 10056f98     g_items.obj
 0002:00002fb8       ??_C@_0BD@FAHJ@weapons?1rg_hum?4wav?$AA@ 10056fb8     g_items.obj
 0002:00002fcc       ??_C@_05OJGD@Slugs?$AA@    10056fcc     g_items.obj
 0002:00002fd4       ??_C@_07MJPA@Railgun?$AA@  10056fd4     g_items.obj
 0002:00002fdc       ??_C@_09JLMB@w_railgun?$AA@ 10056fdc     g_items.obj
 0002:00002fe8       ??_C@_0BP@MPOG@models?1weapons?1v_rail?1tris?4md2?$AA@ 10056fe8     g_items.obj
 0002:00003008       ??_C@_0BP@CHED@models?1weapons?1g_rail?1tris?4md2?$AA@ 10057008     g_items.obj
 0002:00003028       ??_C@_0GE@IGEK@weapons?1hyprbu1a?4wav?5weapons?1hyp@ 10057028     g_items.obj
 0002:0000308c       ??_C@_0N@CJGK@HyperBlaster?$AA@ 1005708c     g_items.obj
 0002:0000309c       ??_C@_0P@EMJD@w_hyperblaster?$AA@ 1005709c     g_items.obj
 0002:000030ac       ??_C@_0CB@BANK@models?1weapons?1v_hyperb?1tris?4md2@ 100570ac     g_items.obj
 0002:000030d0       ??_C@_0CB@KGOH@models?1weapons?1g_hyperb?1tris?4md2@ 100570d0     g_items.obj
 0002:000030f4       ??_C@_0HN@PHOL@models?1objects?1rocket?1tris?4md2?5w@ 100570f4     g_items.obj
 0002:00003174       ??_C@_07ONGL@Rockets?$AA@  10057174     g_items.obj
 0002:0000317c       ??_C@_0BA@JFMN@Rocket?5Launcher?$AA@ 1005717c     g_items.obj
 0002:0000318c       ??_C@_0M@CIAK@w_rlauncher?$AA@ 1005718c     g_items.obj
 0002:00003198       ??_C@_0CB@GJNF@models?1weapons?1v_rocket?1tris?4md2@ 10057198     g_items.obj
 0002:000031bc       ??_C@_0CB@NPOI@models?1weapons?1g_rocket?1tris?4md2@ 100571bc     g_items.obj
 0002:000031e0       ??_C@_0FP@GPCL@models?1objects?1grenade?1tris?4md2?5@ 100571e0     g_items.obj
 0002:00003240       ??_C@_0BB@KEFG@Grenade?5Launcher?$AA@ 10057240     g_items.obj
 0002:00003254       ??_C@_0M@MHOA@w_glauncher?$AA@ 10057254     g_items.obj
 0002:00003260       ??_C@_0CB@PDJC@models?1weapons?1v_launch?1tris?4md2@ 10057260     g_items.obj
 0002:00003284       ??_C@_0CB@EFKP@models?1weapons?1g_launch?1tris?4md2@ 10057284     g_items.obj
 0002:000032a8       ??_C@_0GK@JHN@weapons?1hgrent1a?4wav?5weapons?1hgr@ 100572a8     g_items.obj
 0002:00003314       ??_C@_08CAJL@grenades?$AA@ 10057314     g_items.obj
 0002:00003320       ??_C@_08CFEJ@Grenades?$AA@ 10057320     g_items.obj
 0002:0000332c       ??_C@_0L@EMLC@a_grenades?$AA@ 1005732c     g_items.obj
 0002:00003338       ??_C@_0CB@BEBI@models?1weapons?1v_handgr?1tris?4md2@ 10057338     g_items.obj
 0002:0000335c       ??_C@_0CL@OLDE@models?1items?1ammo?1grenades?1mediu@ 1005735c     g_items.obj
 0002:00003388       ??_C@_0BB@CKLK@misc?1am_pkup?4wav?$AA@ 10057388     g_items.obj
 0002:0000339c       ??_C@_0O@KBKH@ammo_grenades?$AA@ 1005739c     g_items.obj
 0002:000033ac       ??_C@_0FF@LIOJ@weapons?1chngnu1a?4wav?5weapons?1chn@ 100573ac     g_items.obj
 0002:00003404       ??_C@_08ECOK@Chaingun?$AA@ 10057404     g_items.obj
 0002:00003410       ??_C@_0L@PHLI@w_chaingun?$AA@ 10057410     g_items.obj
 0002:0000341c       ??_C@_0CA@DPMF@models?1weapons?1v_chain?1tris?4md2?$AA@ 1005741c     g_items.obj
 0002:0000343c       ??_C@_0CA@CCN@models?1weapons?1g_chain?1tris?4md2?$AA@ 1005743c     g_items.obj
 0002:0000345c       ??_C@_0GJ@MDBO@weapons?1machgf1b?4wav?5weapons?1mac@ 1005745c     g_items.obj
 0002:000034c8       ??_C@_07EDBM@Bullets?$AA@  100574c8     g_items.obj
 0002:000034d0       ??_C@_0L@OIKI@Machinegun?$AA@ 100574d0     g_items.obj
 0002:000034dc       ??_C@_0N@MCPD@w_machinegun?$AA@ 100574dc     g_items.obj
 0002:000034ec       ??_C@_0CA@BHPB@models?1weapons?1v_machn?1tris?4md2?$AA@ 100574ec     g_items.obj
 0002:0000350c       ??_C@_0CA@CKBJ@models?1weapons?1g_machn?1tris?4md2?$AA@ 1005750c     g_items.obj
 0002:0000352c       ??_C@_0BF@PMBF@weapons?1sshotf1b?4wav?$AA@ 1005752c     g_items.obj
 0002:00003544       ??_C@_0O@IBII@Super?5Shotgun?$AA@ 10057544     g_items.obj
 0002:00003554       ??_C@_0L@FGHD@w_sshotgun?$AA@ 10057554     g_items.obj
 0002:00003560       ??_C@_0CB@LBHC@models?1weapons?1v_shotg2?1tris?4md2@ 10057560     g_items.obj
 0002:00003584       ??_C@_0CB@HEP@models?1weapons?1g_shotg2?1tris?4md2@ 10057584     g_items.obj
 0002:000035a8       ??_C@_0CK@HCMB@weapons?1shotgf1b?4wav?5weapons?1sho@ 100575a8     g_items.obj
 0002:000035d4       ??_C@_06OAJC@Shells?$AA@   100575d4     g_items.obj
 0002:000035dc       ??_C@_07GAKK@Shotgun?$AA@  100575dc     g_items.obj
 0002:000035e4       ??_C@_09DCJL@w_shotgun?$AA@ 100575e4     g_items.obj
 0002:000035f0       ??_C@_0CA@HEBK@models?1weapons?1v_shotg?1tris?4md2?$AA@ 100575f0     g_items.obj
 0002:00003610       ??_C@_0CA@EJPC@models?1weapons?1g_shotg?1tris?4md2?$AA@ 10057610     g_items.obj
 0002:00003630       ??_C@_0CF@NLGB@weapons?1blastf1a?4wav?5misc?1lasfly@ 10057630     g_items.obj
 0002:00003658       ??_C@_07CAMC@Blaster?$AA@  10057658     g_items.obj
 0002:00003660       ??_C@_09HCPD@w_blaster?$AA@ 10057660     g_items.obj
 0002:0000366c       ??_C@_0CA@GOAM@models?1weapons?1v_blast?1tris?4md2?$AA@ 1005766c     g_items.obj
 0002:0000368c       ??_C@_0P@LHNJ@weapon_blaster?$AA@ 1005768c     g_items.obj
 0002:0000369c       ??_C@_0IH@CAJE@weapons?1grapple?1grfire?4wav?5weapo@ 1005769c     g_items.obj
 0002:00003724       ??_C@_07EGAF@Grapple?$AA@  10057724     g_items.obj
 0002:0000372c       ??_C@_09BEDE@w_grapple?$AA@ 1005772c     g_items.obj
 0002:00003738       ??_C@_0CA@ELLB@models?1weapons?1grapple?1tris?4md2?$AA@ 10057738     g_items.obj
 0002:00003758       ??_C@_0BA@CGLK@misc?1w_pkup?4wav?$AA@ 10057758     g_items.obj
 0002:00003768       ??_C@_0CA@ECIN@misc?1power2?4wav?5misc?1power1?4wav?$AA@ 10057768     g_items.obj
 0002:00003788       ??_C@_0O@CFDP@i_powershield?$AA@ 10057788     g_items.obj
 0002:00003798       ??_C@_0CD@HCHN@models?1items?1armor?1shield?1tris?4m@ 10057798     g_items.obj
 0002:000037bc       ??_C@_0O@HGFF@i_powerscreen?$AA@ 100577bc     g_items.obj
 0002:000037cc       ??_C@_0CD@CBGF@models?1items?1armor?1screen?1tris?4m@ 100577cc     g_items.obj
 0002:000037f0       ??_C@_0BC@DCGO@misc?1ar3_pkup?4wav?$AA@ 100577f0     g_items.obj
 0002:00003804       ??_C@_0M@KPGH@Armor?5Shard?$AA@ 10057804     g_items.obj
 0002:00003810       ??_C@_0CC@GMDM@models?1items?1armor?1shard?1tris?4md@ 10057810     g_items.obj
 0002:00003834       ??_C@_0BC@LNKM@misc?1ar2_pkup?4wav?$AA@ 10057834     g_items.obj
 0002:00003848       ??_C@_0BB@JODA@item_armor_shard?$AA@ 10057848     g_items.obj
 0002:0000385c       ??_C@_0O@KNO@i_jacketarmor?$AA@ 1005785c     g_items.obj
 0002:0000386c       ??_C@_0CD@EFEK@models?1items?1armor?1jacket?1tris?4m@ 1005786c     g_items.obj
 0002:00003890       ??_C@_0O@MGEN@i_combatarmor?$AA@ 10057890     g_items.obj
 0002:000038a0       ??_C@_0CD@JFAG@models?1items?1armor?1combat?1tris?4m@ 100578a0     g_items.obj
 0002:000038c4       ??_C@_0M@KLPF@i_bodyarmor?$AA@ 100578c4     g_items.obj
 0002:000038d0       ??_C@_0CB@OJMK@models?1items?1armor?1body?1tris?4md2@ 100578d0     g_items.obj
 0002:000038f4       ??_C@_0BC@CNOK@misc?1ar1_pkup?4wav?$AA@ 100578f4     g_items.obj
 0002:00003908       ??_C@_0BB@NELB@items?1damage?4wav?$AA@ 10057908     g_items.obj
 0002:0000391c       __real@4@40079600000000000000 1005791c     g_items.obj
 0002:00003920       ??_C@_0BC@BJLH@items?1protect?4wav?$AA@ 10057920     g_items.obj
 0002:00003934       ??_C@_07PCHG@blaster?$AA@  10057934     g_items.obj
 0002:0000393c       ??_C@_0BA@MOHK@misc?1power1?4wav?$AA@ 1005793c     g_items.obj
 0002:0000394c       ??_C@_0BL@OHOH@No?5cells?5for?5power?5armor?4?6?$AA@ 1005794c     g_items.obj
 0002:00003968       ??_C@_0BA@COBF@misc?1power2?4wav?$AA@ 10057968     g_items.obj
 0002:00003978       ??_C@_0BD@HBMH@items?1m_health?4wav?$AA@ 10057978     g_items.obj
 0002:0000398c       ??_C@_0BD@BMCN@items?1l_health?4wav?$AA@ 1005798c     g_items.obj
 0002:000039a0       ??_C@_0BD@MHPI@items?1n_health?4wav?$AA@ 100579a0     g_items.obj
 0002:000039b4       ??_C@_0BD@KMEE@items?1s_health?4wav?$AA@ 100579b4     g_items.obj
 0002:000039c8       __real@8@4000c000000000000000 100579c8     g_items.obj
 0002:000039d0       __real@4@4003e800000000000000 100579d0     g_items.obj
 0002:000039d4       ??_C@_0CC@KCLI@droptofloor?3?5?$CFs?5startsolid?5at?5?$CFs@ 100579d4     g_items.obj
 0002:000039f8       ??_C@_03KIPF@pcx?$AA@      100579f8     g_items.obj
 0002:000039fc       ??_C@_03JAAL@wav?$AA@      100579fc     g_items.obj
 0002:00003a00       ??_C@_03KLMO@sp2?$AA@      10057a00     g_items.obj
 0002:00003a04       ??_C@_03MGGF@md2?$AA@      10057a04     g_items.obj
 0002:00003a08       ??_C@_0CJ@CCML@PrecacheItem?3?5?$CFs?5has?5bad?5precach@ 10057a08     g_items.obj
 0002:00003a34       ??_C@_0CF@IMLI@?$CFs?5at?5?$CFs?5has?5invalid?5spawnflags?5@ 10057a34     g_items.obj
 0002:00003a5c       ??_C@_0CF@IDDJ@models?1items?1healing?1medium?1tris@ 10057a5c     g_items.obj
 0002:00003a84       ??_C@_0CH@FLHP@models?1items?1healing?1stimpack?1tr@ 10057a84     g_items.obj
 0002:00003aac       ??_C@_0CE@FEBG@models?1items?1healing?1large?1tris?4@ 10057aac     g_items.obj
 0002:00003ad0       ??_C@_0BN@GFAE@models?1items?1mega_h?1tris?4md2?$AA@ 10057ad0     g_items.obj
 0002:00003af0       ??_C@_04PMAK@?5?0?6?$AN?$AA@ 10057af0     g_main.obj
 0002:00003af8       ??_C@_0BI@PFML@?$DN?$DN?$DN?$DN?5ShutdownGame?5?$DN?$DN?$DN?$DN?6?$AA@ 10057af8     g_main.obj
 0002:00003b10       ??_C@_0BD@MLHK@target_changelevel?$AA@ 10057b10     g_main.obj
 0002:00003b24       ??_C@_0BA@LILH@Fraglimit?5hit?4?6?$AA@ 10057b24     g_main.obj
 0002:00003b34       ??_C@_0BA@OFJB@Timelimit?5hit?4?6?$AA@ 10057b34     g_main.obj
 0002:00003b44       ??_C@_0O@ONPD@gamemap?5?$CC?$CFs?$CC?6?$AA@ 10057b44     g_main.obj
 0002:00003b58       __real@8@4006c800000000000000 10057b58     g_misc.obj
 0002:00003b60       __real@8@4005c800000000000000 10057b60     g_misc.obj
 0002:00003b68       __real@4@4006c800000000000000 10057b68     g_misc.obj
 0002:00003b6c       __real@4@c0079600000000000000 10057b6c     g_misc.obj
 0002:00003b70       ??_C@_0P@BHLG@misc?1fhit3?4wav?$AA@ 10057b70     g_misc.obj
 0002:00003b80       __real@4@40089600000000000000 10057b80     g_misc.obj
 0002:00003b88       __real@8@40089600000000000000 10057b88     g_misc.obj
 0002:00003b90       __real@4@40048000000000000000 10057b90     g_misc.obj
 0002:00003b94       ??_C@_0CD@EOKM@models?1objects?1gibs?1skull?1tris?4m@ 10057b94     g_misc.obj
 0002:00003bb8       ??_C@_0CD@KKJE@models?1objects?1gibs?1head2?1tris?4m@ 10057bb8     g_misc.obj
 0002:00003bdc       ??_C@_06CMHI@debris?$AA@   10057bdc     g_misc.obj
 0002:00003be4       ??_C@_0CG@FPGB@path_corner?5with?5no?5targetname?5a@ 10057be4     g_misc.obj
 0002:00003c0c       ??_C@_0CD@KCGM@?$CFs?5at?5?$CFs?5target?5?$CFs?5does?5not?5exis@ 10057c0c     g_misc.obj
 0002:00003c30       ??_C@_0BP@HNEL@models?1objects?1banner?1tris?4md2?$AA@ 10057c30     g_misc.obj
 0002:00003c50       ??_C@_0BD@MHAN@viewthing?5spawned?6?$AA@ 10057c50     g_misc.obj
 0002:00003c64       ??_C@_01KDFD@m?$AA@        10057c64     g_misc.obj
 0002:00003c68       ??_C@_01FNLH@a?$AA@        10057c68     g_misc.obj
 0002:00003c6c       ??_C@_0CD@PFAN@func_wall?5START_ON?5without?5TOGGL@ 10057c6c     g_misc.obj
 0002:00003c90       ??_C@_0CA@JLMM@models?1objects?1debris2?1tris?4md2?$AA@ 10057c90     g_misc.obj
 0002:00003cb0       ??_C@_0CA@LIK@models?1objects?1debris1?1tris?4md2?$AA@ 10057cb0     g_misc.obj
 0002:00003cd0       ??_C@_0CA@BEAO@models?1objects?1debris3?1tris?4md2?$AA@ 10057cd0     g_misc.obj
 0002:00003cf0       __real@8@3fffe000000000000000 10057cf0     g_misc.obj
 0002:00003cf8       __real@8@3fffc000000000000000 10057cf8     g_misc.obj
 0002:00003d00       ??_C@_0CA@JOFH@models?1objects?1barrels?1tris?4md2?$AA@ 10057d00     g_misc.obj
 0002:00003d20       ??_C@_0BO@GEEP@models?1objects?1black?1tris?4md2?$AA@ 10057d20     g_misc.obj
 0002:00003d40       ??_C@_0BO@OKLP@models?1monsters?1tank?1tris?4md2?$AA@ 10057d40     g_misc.obj
 0002:00003d60       ??_C@_0BP@MDAF@models?1monsters?1bitch?1tris?4md2?$AA@ 10057d60     g_misc.obj
 0002:00003d80       ??_C@_0O@MPH@tank?1thud?4wav?$AA@ 10057d80     g_misc.obj
 0002:00003d90       ??_C@_0O@JGJG@tank?1pain?4wav?$AA@ 10057d90     g_misc.obj
 0002:00003da0       ??_C@_0CC@FJLG@models?1monsters?1commandr?1tris?4md@ 10057da0     g_misc.obj
 0002:00003dc4       ??_C@_0CF@MFJE@models?1objects?1gibs?1sm_meat?1tris@ 10057dc4     g_misc.obj
 0002:00003dec       ??_C@_0BA@FFAE@misc?1udeath?4wav?$AA@ 10057dec     g_misc.obj
 0002:00003dfc       ??_C@_0BO@JLLJ@models?1deadbods?1dude?1tris?4md2?$AA@ 10057dfc     g_misc.obj
 0002:00003e1c       ??_C@_0BM@DJCE@models?1ships?1viper?1tris?4md2?$AA@ 10057e1c     g_misc.obj
 0002:00003e38       ??_C@_0CD@LGFG@misc_viper?5without?5a?5target?5at?5?$CF@ 10057e38     g_misc.obj
 0002:00003e5c       ??_C@_0BP@OEGM@models?1ships?1bigviper?1tris?4md2?$AA@ 10057e5c     g_misc.obj
 0002:00003e80       __real@8@bfff8000000000000000 10057e80     g_misc.obj
 0002:00003e88       ??_C@_0L@KAN@misc_viper?$AA@ 10057e88     g_misc.obj
 0002:00003e94       ??_C@_0BN@OIAK@models?1objects?1bomb?1tris?4md2?$AA@ 10057e94     g_misc.obj
 0002:00003eb4       ??_C@_0BO@NHHO@models?1ships?1strogg1?1tris?4md2?$AA@ 10057eb4     g_misc.obj
 0002:00003ed4       ??_C@_0BL@LBBM@?$CFs?5without?5a?5target?5at?5?$CFs?6?$AA@ 10057ed4     g_misc.obj
 0002:00003ef0       ??_C@_0CC@EIPF@models?1objects?1satellite?1tris?4md@ 10057ef0     g_misc.obj
 0002:00003f14       ??_C@_0CI@PEFC@models?1objects?1minelite?1light1?1t@ 10057f14     g_misc.obj
 0002:00003f3c       ??_C@_0CI@GEBE@models?1objects?1minelite?1light2?1t@ 10057f3c     g_misc.obj
 0002:00003f64       ??_C@_0CB@CEMB@models?1objects?1gibs?1arm?1tris?4md2@ 10057f64     g_misc.obj
 0002:00003f88       ??_C@_0CB@MNBA@models?1objects?1gibs?1leg?1tris?4md2@ 10057f88     g_misc.obj
 0002:00003fac       ??_C@_0CC@JCGH@models?1objects?1gibs?1head?1tris?4md@ 10057fac     g_misc.obj
 0002:00003fd0       ??_C@_0M@CEBL@?$CF2i?3?$CF2i?3?$CF2i?$AA@ 10057fd0     g_misc.obj
 0002:00003fdc       ??_C@_07HDKP@?$CF2i?3?$CF2i?$AA@ 10057fdc     g_misc.obj
 0002:00003fe4       ??_C@_03MDDI@?$CF2i?$AA@   10057fe4     g_misc.obj
 0002:00003fe8       ??_C@_0BI@NNAD@?$CFs?5with?5no?5count?5at?5?$CFs?6?$AA@ 10057fe8     g_misc.obj
 0002:00004000       ??_C@_0BJ@DKLK@?$CFs?5with?5no?5target?5at?5?$CFs?6?$AA@ 10058000     g_misc.obj
 0002:0000401c       ??_C@_0BA@OMJG@world?1amb10?4wav?$AA@ 1005801c     g_misc.obj
 0002:0000402c       ??_C@_0BP@IEEA@models?1objects?1dmspot?1tris?4md2?$AA@ 1005802c     g_misc.obj
 0002:0000404c       ??_C@_0BG@PFNF@infantry?1inflies1?4wav?$AA@ 1005804c     g_monster.obj
 0002:00004068       __real@8@3ffeb333333333333000 10058068     g_monster.obj
 0002:00004070       __real@4@4003b000000000000000 10058070     g_monster.obj
 0002:00004074       __real@4@4003d000000000000000 10058074     g_monster.obj
 0002:00004078       ??_C@_0BD@JDHA@player?1watr_in?4wav?$AA@ 10058078     g_monster.obj
 0002:0000408c       ??_C@_0BB@DHNK@player?1lava2?4wav?$AA@ 1005808c     g_monster.obj
 0002:000040a0       ??_C@_0BB@NHLF@player?1lava1?4wav?$AA@ 100580a0     g_monster.obj
 0002:000040b4       ??_C@_0BE@KOMJ@player?1watr_out?4wav?$AA@ 100580b4     g_monster.obj
 0002:000040c8       __real@4@40029000000000000000 100580c8     g_monster.obj
 0002:000040cc       __real@4@4002c000000000000000 100580cc     g_monster.obj
 0002:000040d0       __real@4@40078000000000000000 100580d0     g_monster.obj
 0002:000040d4       ??_C@_0BL@NEKL@?$CFs?5at?5?$CFs?5has?5bad?5item?3?5?$CFs?6?$AA@ 100580d4     g_monster.obj
 0002:000040f0       ??_C@_0M@PJIA@path_corner?$AA@ 100580f0     g_monster.obj
 0002:000040fc       ??_C@_0BP@OHJG@?$CFs?5can?8t?5find?5target?5?$CFs?5at?5?$CFs?6?$AA@ 100580fc     g_monster.obj
 0002:0000411c       ??_C@_0DP@DAGH@?$CFs?5at?5?$CI?$CFi?5?$CFi?5?$CFi?$CJ?5has?5a?5bad?5comba@ 1005811c     g_monster.obj
 0002:0000415c       ??_C@_0CG@JNPE@?$CFs?5at?5?$CFs?5has?5target?5with?5mixed?5t@ 1005815c     g_monster.obj
 0002:00004184       ??_C@_0N@FOKJ@point_combat?$AA@ 10058184     g_monster.obj
 0002:00004194       ??_C@_0BD@PEKE@?$CFs?5in?5solid?5at?5?$CFs?6?$AA@ 10058194     g_monster.obj
 0002:000041a8       ??_C@_0BA@IHJH@NULL?5ent?9?$DOthink?$AA@ 100581a8     g_phys.obj
 0002:000041b8       __real@8@3ff583126e978d4fe000 100581b8     g_phys.obj
 0002:000041c0       __real@8@bffbccccccccccccd000 100581c0     g_phys.obj
 0002:000041c8       __real@8@3ffc8000000000000000 100581c8     g_phys.obj
 0002:000041d0       __real@8@00000000000000000000 100581d0     g_phys.obj
 0002:000041d8       __real@8@40028000000000000000 100581d8     g_phys.obj
 0002:000041e0       ??_C@_0DB@LLNH@pushed_p?5?$DO?5?$CGpushed?$FLMAX_EDICTS?$FN?0?5@ 100581e0     g_phys.obj
 0002:00004214       ??_C@_0BB@IGEA@misc?1h2ohit1?4wav?$AA@ 10058214     g_phys.obj
 0002:00004228       ??_C@_0P@KELF@world?1land?4wav?$AA@ 10058228     g_phys.obj
 0002:00004238       ??_C@_0BM@LBLC@SV_Physics?3?5bad?5movetype?5?$CFi?$AA@ 10058238     g_phys.obj
 0002:00004254       ??_C@_07LBIF@nextmap?$AA@  10058254     g_save.obj
 0002:0000425c       ??_C@_08OCKB@maxpitch?$AA@ 1005825c     g_save.obj
 0002:00004268       ??_C@_08LBMO@minpitch?$AA@ 10058268     g_save.obj
 0002:00004274       ??_C@_06NINP@maxyaw?$AA@   10058274     g_save.obj
 0002:0000427c       ??_C@_06FDDI@minyaw?$AA@   1005827c     g_save.obj
 0002:00004284       ??_C@_07FMKF@skyaxis?$AA@  10058284     g_save.obj
 0002:0000428c       ??_C@_09DICD@skyrotate?$AA@ 1005828c     g_save.obj
 0002:00004298       ??_C@_03EBAN@sky?$AA@      10058298     g_save.obj
 0002:0000429c       ??_C@_07CAPN@gravity?$AA@  1005829c     g_save.obj
 0002:000042a4       ??_C@_04MPOO@item?$AA@     100582a4     g_save.obj
 0002:000042ac       ??_C@_09OMAL@pausetime?$AA@ 100582ac     g_save.obj
 0002:000042b8       ??_C@_05DOHE@noise?$AA@    100582b8     g_save.obj
 0002:000042c0       ??_C@_06OKPG@height?$AA@   100582c0     g_save.obj
 0002:000042c8       ??_C@_08GHDD@distance?$AA@ 100582c8     g_save.obj
 0002:000042d4       ??_C@_03JNMJ@lip?$AA@      100582d4     g_save.obj
 0002:000042d8       ??_C@_03HKIL@map?$AA@      100582d8     g_save.obj
 0002:000042dc       ??_C@_0M@IDKI@attenuation?$AA@ 100582dc     g_save.obj
 0002:000042e8       ??_C@_06FLOP@volume?$AA@   100582e8     g_save.obj
 0002:000042f0       ??_C@_04HOGM@mass?$AA@     100582f0     g_save.obj
 0002:000042f8       ??_C@_05LIJM@angle?$AA@    100582f8     g_save.obj
 0002:00004300       ??_C@_06MFB@angles?$AA@    10058300     g_save.obj
 0002:00004308       ??_C@_03KLED@dmg?$AA@      10058308     g_save.obj
 0002:0000430c       ??_C@_05DKPF@light?$AA@    1005830c     g_save.obj
 0002:00004314       ??_C@_06HADE@sounds?$AA@   10058314     g_save.obj
 0002:0000431c       ??_C@_05HGHB@count?$AA@    1005831c     g_save.obj
 0002:00004324       ??_C@_05JCDO@style?$AA@    10058324     g_save.obj
 0002:0000432c       ??_C@_0M@NGLJ@move_angles?$AA@ 1005832c     g_save.obj
 0002:00004338       ??_C@_0M@EJN@move_origin?$AA@ 10058338     g_save.obj
 0002:00004344       ??_C@_06IMKP@random?$AA@   10058344     g_save.obj
 0002:0000434c       ??_C@_05BFAE@delay?$AA@    1005834c     g_save.obj
 0002:00004354       ??_C@_04OMDE@wait?$AA@     10058354     g_save.obj
 0002:0000435c       ??_C@_07NPGL@message?$AA@  1005835c     g_save.obj
 0002:00004364       ??_C@_0N@JLPC@combattarget?$AA@ 10058364     g_save.obj
 0002:00004374       ??_C@_0L@BJOF@killtarget?$AA@ 10058374     g_save.obj
 0002:00004380       ??_C@_0M@HEMH@deathtarget?$AA@ 10058380     g_save.obj
 0002:0000438c       ??_C@_0L@GABP@pathtarget?$AA@ 1005838c     g_save.obj
 0002:00004398       ??_C@_0L@PMO@targetname?$AA@ 10058398     g_save.obj
 0002:000043a4       ??_C@_06CCPD@target?$AA@   100583a4     g_save.obj
 0002:000043ac       ??_C@_05MIMB@decel?$AA@    100583ac     g_save.obj
 0002:000043b4       ??_C@_05DHJN@accel?$AA@    100583b4     g_save.obj
 0002:000043bc       ??_C@_05PHJK@speed?$AA@    100583bc     g_save.obj
 0002:000043c4       ??_C@_0L@CANC@spawnflags?$AA@ 100583c4     g_save.obj
 0002:000043d0       ??_C@_05LHJL@model?$AA@    100583d0     g_save.obj
 0002:000043d8       ??_C@_06NOHF@origin?$AA@   100583d8     g_save.obj
 0002:000043e0       ??_C@_09JDJH@classname?$AA@ 100583e0     g_save.obj
 0002:000043ec       ??_C@_0L@GJKO@sv_maplist?$AA@ 100583ec     g_save.obj
 0002:000043f8       ??_C@_0BA@JHGD@flood_waitdelay?$AA@ 100583f8     g_save.obj
 0002:00004408       ??_C@_0BA@FOPI@flood_persecond?$AA@ 10058408     g_save.obj
 0002:00004418       ??_C@_0L@LOBO@flood_msgs?$AA@ 10058418     g_save.obj
 0002:00004424       ??_C@_08FIAL@bob_roll?$AA@ 10058424     g_save.obj
 0002:00004430       ??_C@_09CLI@bob_pitch?$AA@ 10058430     g_save.obj
 0002:0000443c       ??_C@_06KCBK@bob_up?$AA@   1005843c     g_save.obj
 0002:00004444       ??_C@_08OBLP@run_roll?$AA@ 10058444     g_save.obj
 0002:00004450       ??_C@_05HONO@0?4005?$AA@   10058450     g_save.obj
 0002:00004458       ??_C@_09LLAB@run_pitch?$AA@ 10058458     g_save.obj
 0002:00004464       ??_C@_05CLDL@0?4002?$AA@   10058464     g_save.obj
 0002:0000446c       ??_C@_0P@IOFC@g_select_empty?$AA@ 1005846c     g_save.obj
 0002:0000447c       ??_C@_09KCNC@filterban?$AA@ 1005847c     g_save.obj
 0002:00004488       ??_C@_08NPHI@password?$AA@ 10058488     g_save.obj
 0002:00004494       ??_C@_0N@ELFE@capturelimit?$AA@ 10058494     g_save.obj
 0002:000044a4       ??_C@_09GBNJ@timelimit?$AA@ 100584a4     g_save.obj
 0002:000044b0       ??_C@_09DPJO@fraglimit?$AA@ 100584b0     g_save.obj
 0002:000044bc       ??_C@_0BE@HGNN@Forcing?5deathmatch?4?$AA@ 100584bc     g_save.obj
 0002:000044d0       ??_C@_0M@NLOP@maxentities?$AA@ 100584d0     g_save.obj
 0002:000044dc       ??_C@_04HKOM@1024?$AA@     100584dc     g_save.obj
 0002:000044e4       ??_C@_05MIHE@skill?$AA@    100584e4     g_save.obj
 0002:000044ec       ??_C@_04INDM@coop?$AA@     100584ec     g_save.obj
 0002:000044f4       ??_C@_0L@IKBP@deathmatch?$AA@ 100584f4     g_save.obj
 0002:00004500       ??_C@_0L@IGMM@maxclients?$AA@ 10058500     g_save.obj
 0002:0000450c       ??_C@_01FBMM@4?$AA@        1005850c     g_save.obj
 0002:00004510       ??_C@_08HGGM@gamedate?$AA@ 10058510     g_save.obj
 0002:0000451c       ??_C@_0M@LKKB@Jul?531?52014?$AA@ 1005851c     g_save.obj
 0002:00004528       ??_C@_08NPAP@gamename?$AA@ 10058528     g_save.obj
 0002:00004534       ??_C@_06OOPP@baseq2?$AA@   10058534     g_save.obj
 0002:0000453c       ??_C@_06FLJA@cheats?$AA@   1005853c     g_save.obj
 0002:00004544       ??_C@_09GLCL@dedicated?$AA@ 10058544     g_save.obj
 0002:00004550       ??_C@_0L@GIJ@sv_gravity?$AA@ 10058550     g_save.obj
 0002:0000455c       ??_C@_03LHGB@800?$AA@      1005855c     g_save.obj
 0002:00004560       ??_C@_0P@NFJM@sv_maxvelocity?$AA@ 10058560     g_save.obj
 0002:00004570       ??_C@_04JCBD@2000?$AA@     10058570     g_save.obj
 0002:00004578       ??_C@_0N@LNLL@sv_rollangle?$AA@ 10058578     g_save.obj
 0002:00004588       ??_C@_0N@PCLN@sv_rollspeed?$AA@ 10058588     g_save.obj
 0002:00004598       ??_C@_03IDPJ@200?$AA@      10058598     g_save.obj
 0002:0000459c       ??_C@_05IGIO@gun_z?$AA@    1005859c     g_save.obj
 0002:000045a4       ??_C@_05HJDH@gun_y?$AA@    100585a4     g_save.obj
 0002:000045ac       ??_C@_05NDKA@gun_x?$AA@    100585ac     g_save.obj
 0002:000045b4       ??_C@_0BE@BEM@?$DN?$DN?$DN?$DN?5InitGame?5?$DN?$DN?$DN?$DN?6?$AA@ 100585b4     g_save.obj
 0002:000045c8       ??_C@_0BP@GAGI@WriteEdict?3?5unknown?5field?5type?$AA@ 100585c8     g_save.obj
 0002:000045e8       ??_C@_0BO@IGHB@ReadEdict?3?5unknown?5field?5type?$AA@ 100585e8     g_save.obj
 0002:00004608       ??_C@_0BB@CJIC@Couldn?8t?5open?5?$CFs?$AA@ 10058608     g_save.obj
 0002:0000461c       ??_C@_02NGAF@wb?$AA@       1005861c     g_save.obj
 0002:00004620       ??_C@_0CB@KBGK@Savegame?5from?5an?5older?5version?4?6@ 10058620     g_save.obj
 0002:00004644       ??_C@_02JKAF@rb?$AA@       10058644     g_save.obj
 0002:00004648       ??_C@_0BJ@EGM@target_crosslevel_target?$AA@ 10058648     g_save.obj
 0002:00004664       ??_C@_0CB@KNOJ@ReadLevel?3?5failed?5to?5read?5entnum@ 10058664     g_save.obj
 0002:00004688       ??_C@_0CI@CGIO@ReadLevel?3?5function?5pointers?5hav@ 10058688     g_save.obj
 0002:000046b0       ??_C@_0CB@BAPJ@ReadLevel?3?5mismatched?5edict?5size@ 100586b0     g_save.obj
 0002:000046d4       ??_C@_0BCJ@NAKJ@yb?7?924?5xv?70?5hnum?5xv?750?5pic?50?5if?5@ 100586d4     g_spawn.obj
 0002:00004800       ??_C@_0BBF@NJBE@yb?7?924?5xv?70?5hnum?5xv?750?5pic?50?5if?5@ 10058800     g_spawn.obj
 0002:00004918       ??_C@_0BC@LCIL@misc_easterchick2?$AA@ 10058918     g_spawn.obj
 0002:0000492c       ??_C@_0BB@DFAH@misc_easterchick?$AA@ 1005892c     g_spawn.obj
 0002:00004940       ??_C@_0BA@HODD@misc_eastertank?$AA@ 10058940     g_spawn.obj
 0002:00004950       ??_C@_0P@JDBM@misc_blackhole?$AA@ 10058950     g_spawn.obj
 0002:00004960       ??_C@_0BK@NHGH@info_teleport_destination?$AA@ 10058960     g_spawn.obj
 0002:0000497c       ??_C@_0BB@EDMK@trigger_teleport?$AA@ 1005897c     g_spawn.obj
 0002:00004990       ??_C@_0BF@HFGF@misc_teleporter_dest?$AA@ 10058990     g_spawn.obj
 0002:000049a8       ??_C@_0BA@HPLN@misc_teleporter?$AA@ 100589a8     g_spawn.obj
 0002:000049b8       ??_C@_0BB@OMPK@misc_strogg_ship?$AA@ 100589b8     g_spawn.obj
 0002:000049cc       ??_C@_0O@FNLJ@misc_bigviper?$AA@ 100589cc     g_spawn.obj
 0002:000049dc       ??_C@_0BA@LLCB@misc_viper_bomb?$AA@ 100589dc     g_spawn.obj
 0002:000049ec       ??_C@_0BB@GNG@misc_deadsoldier?$AA@ 100589ec     g_spawn.obj
 0002:00004a00       ??_C@_0O@EBHE@misc_gib_head?$AA@ 10058a00     g_spawn.obj
 0002:00004a10       ??_C@_0N@LPIF@misc_gib_leg?$AA@ 10058a10     g_spawn.obj
 0002:00004a20       ??_C@_0N@DPBG@misc_gib_arm?$AA@ 10058a20     g_spawn.obj
 0002:00004a30       ??_C@_0BE@BGLN@misc_satellite_dish?$AA@ 10058a30     g_spawn.obj
 0002:00004a44       ??_C@_0BG@PCFH@misc_ctf_small_banner?$AA@ 10058a44     g_spawn.obj
 0002:00004a5c       ??_C@_0BA@EGOB@misc_ctf_banner?$AA@ 10058a5c     g_spawn.obj
 0002:00004a6c       ??_C@_0M@FDPD@misc_banner?$AA@ 10058a6c     g_spawn.obj
 0002:00004a78       ??_C@_0O@FANE@misc_explobox?$AA@ 10058a78     g_spawn.obj
 0002:00004a88       ??_C@_0N@BOHL@info_notnull?$AA@ 10058a88     g_spawn.obj
 0002:00004a98       ??_C@_0L@PCLN@func_group?$AA@ 10058a98     g_spawn.obj
 0002:00004aa4       ??_C@_09PJNA@info_null?$AA@ 10058aa4     g_spawn.obj
 0002:00004ab0       ??_C@_0M@IGJI@light_mine2?$AA@ 10058ab0     g_spawn.obj
 0002:00004abc       ??_C@_0M@HJCB@light_mine1?$AA@ 10058abc     g_spawn.obj
 0002:00004ac8       ??_C@_09LJEN@viewthing?$AA@ 10058ac8     g_spawn.obj
 0002:00004ad4       ??_C@_0L@LME@worldspawn?$AA@ 10058ad4     g_spawn.obj
 0002:00004ae0       ??_C@_0O@KGCK@target_string?$AA@ 10058ae0     g_spawn.obj
 0002:00004af0       ??_C@_0BB@MKAL@target_character?$AA@ 10058af0     g_spawn.obj
 0002:00004b04       ??_C@_0BC@JCKD@target_earthquake?$AA@ 10058b04     g_spawn.obj
 0002:00004b18       ??_C@_0BB@GNGI@target_lightramp?$AA@ 10058b18     g_spawn.obj
 0002:00004b2c       ??_C@_0M@GEAM@target_help?$AA@ 10058b2c     g_spawn.obj
 0002:00004b38       ??_C@_0N@IDNA@target_laser?$AA@ 10058b38     g_spawn.obj
 0002:00004b48       ??_C@_0BK@LKKG@target_crosslevel_trigger?$AA@ 10058b48     g_spawn.obj
 0002:00004b64       ??_C@_0P@JEJM@target_blaster?$AA@ 10058b64     g_spawn.obj
 0002:00004b74       ??_C@_0P@HCGK@target_spawner?$AA@ 10058b74     g_spawn.obj
 0002:00004b84       ??_C@_0O@IEPH@target_splash?$AA@ 10058b84     g_spawn.obj
 0002:00004b94       ??_C@_0M@COHK@target_goal?$AA@ 10058b94     g_spawn.obj
 0002:00004ba0       ??_C@_0O@OLKP@target_secret?$AA@ 10058ba0     g_spawn.obj
 0002:00004bb0       ??_C@_0BB@HIIM@target_explosion?$AA@ 10058bb0     g_spawn.obj
 0002:00004bc4       ??_C@_0P@GCHO@target_speaker?$AA@ 10058bc4     g_spawn.obj
 0002:00004bd4       ??_C@_0BD@PFJH@target_temp_entity?$AA@ 10058bd4     g_spawn.obj
 0002:00004be8       ??_C@_0BE@PKDJ@trigger_monsterjump?$AA@ 10058be8     g_spawn.obj
 0002:00004bfc       ??_C@_0BA@FJFN@trigger_gravity?$AA@ 10058bfc     g_spawn.obj
 0002:00004c0c       ??_C@_0BB@FCLG@trigger_elevator?$AA@ 10058c0c     g_spawn.obj
 0002:00004c20       ??_C@_0BA@FGMI@trigger_counter?$AA@ 10058c20     g_spawn.obj
 0002:00004c30       ??_C@_0M@OLAC@trigger_key?$AA@ 10058c30     g_spawn.obj
 0002:00004c3c       ??_C@_0N@HKNA@trigger_hurt?$AA@ 10058c3c     g_spawn.obj
 0002:00004c4c       ??_C@_0N@EEFP@trigger_push?$AA@ 10058c4c     g_spawn.obj
 0002:00004c5c       ??_C@_0O@JNBA@trigger_relay?$AA@ 10058c5c     g_spawn.obj
 0002:00004c6c       ??_C@_0BB@HNOL@trigger_multiple?$AA@ 10058c6c     g_spawn.obj
 0002:00004c80       ??_C@_0N@LIGO@trigger_once?$AA@ 10058c80     g_spawn.obj
 0002:00004c90       ??_C@_0P@LGNO@trigger_always?$AA@ 10058c90     g_spawn.obj
 0002:00004ca0       ??_C@_0N@NBNL@func_killbox?$AA@ 10058ca0     g_spawn.obj
 0002:00004cb0       ??_C@_0P@CDNG@func_explosive?$AA@ 10058cb0     g_spawn.obj
 0002:00004cc0       ??_C@_0L@JLGK@func_timer?$AA@ 10058cc0     g_spawn.obj
 0002:00004ccc       ??_C@_0M@INIM@func_object?$AA@ 10058ccc     g_spawn.obj
 0002:00004cd8       ??_C@_09DHI@func_wall?$AA@ 10058cd8     g_spawn.obj
 0002:00004ce4       ??_C@_0L@MNFC@func_clock?$AA@ 10058ce4     g_spawn.obj
 0002:00004cf0       ??_C@_0O@ONIM@func_conveyor?$AA@ 10058cf0     g_spawn.obj
 0002:00004d00       ??_C@_0L@LCFM@func_water?$AA@ 10058d00     g_spawn.obj
 0002:00004d0c       ??_C@_0O@HHKP@func_rotating?$AA@ 10058d0c     g_spawn.obj
 0002:00004d1c       ??_C@_0BB@OLAJ@func_door_secret?$AA@ 10058d1c     g_spawn.obj
 0002:00004d30       ??_C@_0M@BFDL@func_button?$AA@ 10058d30     g_spawn.obj
 0002:00004d3c       ??_C@_09HHKD@func_plat?$AA@ 10058d3c     g_spawn.obj
 0002:00004d48       ??_C@_0BJ@JMLD@info_player_intermission?$AA@ 10058d48     g_spawn.obj
 0002:00004d64       ??_C@_0BB@HJAP@info_player_coop?$AA@ 10058d64     g_spawn.obj
 0002:00004d78       ??_C@_0BC@MCPA@info_player_start?$AA@ 10058d78     g_spawn.obj
 0002:00004d8c       ??_C@_0BB@KJE@item_health_mega?$AA@ 10058d8c     g_spawn.obj
 0002:00004da0       ??_C@_0BC@KFF@item_health_large?$AA@ 10058da0     g_spawn.obj
 0002:00004db4       ??_C@_0BC@HBNN@item_health_small?$AA@ 10058db4     g_spawn.obj
 0002:00004dc8       ??_C@_0M@DFKC@item_health?$AA@ 10058dc8     g_spawn.obj
 0002:00004dd4       ??_C@_0CC@GHOH@?$CFs?5doesn?8t?5have?5a?5spawn?5function@ 10058dd4     g_spawn.obj
 0002:00004df8       ??_C@_0BO@IEEN@ED_CallSpawn?3?5NULL?5classname?6?$AA@ 10058df8     g_spawn.obj
 0002:00004e18       ??_C@_0BD@HCPE@?$CFs?5is?5not?5a?5field?6?$AA@ 10058e18     g_spawn.obj
 0002:00004e2c       ??_C@_08JPAH@?$CFf?5?$CFf?5?$CFf?$AA@ 10058e2c     g_spawn.obj
 0002:00004e38       ??_C@_0CL@GNBE@ED_ParseEntity?3?5closing?5brace?5wi@ 10058e38     g_spawn.obj
 0002:00004e64       ??_C@_0CK@IDMI@ED_ParseEntity?3?5EOF?5without?5clos@ 10058e64     g_spawn.obj
 0002:00004e90       ??_C@_0BL@KDOE@?$CFi?5teams?5with?5?$CFi?5entities?6?$AA@ 10058e90     g_spawn.obj
 0002:00004eac       ??_C@_0BH@OE@?$CFi?5entities?5inhibited?6?$AA@ 10058eac     g_spawn.obj
 0002:00004ec4       ??_C@_03EKJG@?$CK27?$AA@   10058ec4     g_spawn.obj
 0002:00004ec8       ??_C@_07KAGO@command?$AA@  10058ec8     g_spawn.obj
 0002:00004ed0       ??_C@_0CL@LEGL@ED_LoadFromFile?3?5found?5?$CFs?5when?5e@ 10058ed0     g_spawn.obj
 0002:00004efc       ??_C@_02JBAA@?$CFf?$AA@    10058efc     g_spawn.obj
 0002:00004f00       ??_C@_0CF@KCME@abcdefghijklmnopqrrqponmlkjihgfe@ 10058f00     g_spawn.obj
 0002:00004f28       ??_C@_0BK@CINK@mmamammmmammamamaaamammma?$AA@ 10058f28     g_spawn.obj
 0002:00004f44       ??_C@_0BB@INDJ@aaaaaaaazzzzzzzz?$AA@ 10058f44     g_spawn.obj
 0002:00004f58       ??_C@_0CL@INLP@mmmaaammmaaammmabcdefaaaammmmabc@ 10058f58     g_spawn.obj
 0002:00004f84       ??_C@_0BN@NNNF@mmmaaaabcdefgmmmmaaaammmaamm?$AA@ 10058f84     g_spawn.obj
 0002:00004fa4       ??_C@_0BC@LBBO@nmonqnmomnmomomno?$AA@ 10058fa4     g_spawn.obj
 0002:00004fb8       ??_C@_0CC@LHDJ@jklmnopqrstuvwxyzyxwvutsrqponmlk@ 10058fb8     g_spawn.obj
 0002:00004fdc       ??_C@_0N@PODM@mamamamamama?$AA@ 10058fdc     g_spawn.obj
 0002:00004fec       ??_C@_0CD@IDOE@mmmmmaaaaammmmmaaaaaabcdefgabcde@ 10058fec     g_spawn.obj
 0002:00005010       ??_C@_0DE@EDOG@abcdefghijklmnopqrstuvwxyzyxwvut@ 10059010     g_spawn.obj
 0002:00005044       ??_C@_0BI@LDFL@mmnmmommommnonmmonqnmmo?$AA@ 10059044     g_spawn.obj
 0002:0000505c       ??_C@_0CD@INLP@models?1objects?1gibs?1chest?1tris?4m@ 1005905c     g_spawn.obj
 0002:00005080       ??_C@_0CD@EFEH@models?1objects?1gibs?1bone2?1tris?4m@ 10059080     g_spawn.obj
 0002:000050a4       ??_C@_0CC@EBEB@models?1objects?1gibs?1bone?1tris?4md@ 100590a4     g_spawn.obj
 0002:000050c8       ??_C@_0BD@KKCF@weapons?1noammo?4wav?$AA@ 100590c8     g_spawn.obj
 0002:000050dc       ??_C@_0BF@JBOH@player?1u_breath2?4wav?$AA@ 100590dc     g_spawn.obj
 0002:000050f4       ??_C@_0BF@HBII@player?1u_breath1?4wav?$AA@ 100590f4     g_spawn.obj
 0002:0000510c       ??_C@_0BD@DCPD@player?1watr_un?4wav?$AA@ 1005910c     g_spawn.obj
 0002:00005120       ??_C@_0BB@DICC@player?1gasp2?4wav?$AA@ 10059120     g_spawn.obj
 0002:00005134       ??_C@_0BB@NIEN@player?1gasp1?4wav?$AA@ 10059134     g_spawn.obj
 0002:00005148       ??_C@_0P@OCBH@?$CDw_grapple?4md2?$AA@ 10059148     g_spawn.obj
 0002:00005158       ??_C@_0L@JHOP@?$CDw_bfg?4md2?$AA@ 10059158     g_spawn.obj
 0002:00005164       ??_C@_0P@DEAL@?$CDw_railgun?4md2?$AA@ 10059164     g_spawn.obj
 0002:00005174       ??_C@_0BE@CAJM@?$CDw_hyperblaster?4md2?$AA@ 10059174     g_spawn.obj
 0002:00005188       ??_C@_0BB@GKHJ@?$CDw_rlauncher?4md2?$AA@ 10059188     g_spawn.obj
 0002:0000519c       ??_C@_0BB@GIHN@?$CDw_glauncher?4md2?$AA@ 1005919c     g_spawn.obj
 0002:000051b0       ??_C@_0BA@IKAF@?$CDa_grenades?4md2?$AA@ 100591b0     g_spawn.obj
 0002:000051c0       ??_C@_0BA@BDPM@?$CDw_chaingun?4md2?$AA@ 100591c0     g_spawn.obj
 0002:000051d0       ??_C@_0BC@ELBH@?$CDw_machinegun?4md2?$AA@ 100591d0     g_spawn.obj
 0002:000051e4       ??_C@_0BA@CBOG@?$CDw_sshotgun?4md2?$AA@ 100591e4     g_spawn.obj
 0002:000051f4       ??_C@_0P@GBHJ@?$CDw_shotgun?4md2?$AA@ 100591f4     g_spawn.obj
 0002:00005204       ??_C@_0P@DIDH@?$CDw_blaster?4md2?$AA@ 10059204     g_spawn.obj
 0002:00005214       ??_C@_0P@HFEI@?$CKpain100_2?4wav?$AA@ 10059214     g_spawn.obj
 0002:00005224       ??_C@_0P@JFCH@?$CKpain100_1?4wav?$AA@ 10059224     g_spawn.obj
 0002:00005234       ??_C@_0O@JGBF@?$CKpain75_2?4wav?$AA@ 10059234     g_spawn.obj
 0002:00005244       ??_C@_0O@HGHK@?$CKpain75_1?4wav?$AA@ 10059244     g_spawn.obj
 0002:00005254       ??_C@_0O@JCIL@?$CKpain50_2?4wav?$AA@ 10059254     g_spawn.obj
 0002:00005264       ??_C@_0O@HCOE@?$CKpain50_1?4wav?$AA@ 10059264     g_spawn.obj
 0002:00005274       ??_C@_0O@POIB@?$CKpain25_2?4wav?$AA@ 10059274     g_spawn.obj
 0002:00005284       ??_C@_0O@BOOO@?$CKpain25_1?4wav?$AA@ 10059284     g_spawn.obj
 0002:00005294       ??_C@_0L@EIFI@?$CKjump1?4wav?$AA@ 10059294     g_spawn.obj
 0002:000052a0       ??_C@_0L@CFAB@?$CKgurp2?4wav?$AA@ 100592a0     g_spawn.obj
 0002:000052ac       ??_C@_0L@MFGO@?$CKgurp1?4wav?$AA@ 100592ac     g_spawn.obj
 0002:000052b8       ??_C@_0L@JOBD@?$CKfall2?4wav?$AA@ 100592b8     g_spawn.obj
 0002:000052c4       ??_C@_0L@HOHM@?$CKfall1?4wav?$AA@ 100592c4     g_spawn.obj
 0002:000052d0       ??_C@_0M@KNPH@?$CKdeath4?4wav?$AA@ 100592d0     g_spawn.obj
 0002:000052dc       ??_C@_0M@MNAN@?$CKdeath3?4wav?$AA@ 100592dc     g_spawn.obj
 0002:000052e8       ??_C@_0M@GNCI@?$CKdeath2?4wav?$AA@ 100592e8     g_spawn.obj
 0002:000052f4       ??_C@_0M@INEH@?$CKdeath1?4wav?$AA@ 100592f4     g_spawn.obj
 0002:00005300       ??_C@_0BD@NMFF@items?1respawn1?4wav?$AA@ 10059300     g_spawn.obj
 0002:00005314       ??_C@_0P@IHIL@misc?1pc_up?4wav?$AA@ 10059314     g_spawn.obj
 0002:00005324       ??_C@_0P@MOHO@player?1fry?4wav?$AA@ 10059324     g_spawn.obj
 0002:00005334       ??_C@_07IHFN@field_3?$AA@  10059334     g_spawn.obj
 0002:0000533c       ??_C@_06EJEA@i_help?$AA@   1005933c     g_spawn.obj
 0002:00005344       ??_C@_02JAFN@?$CFi?$AA@    10059344     g_spawn.obj
 0002:00005348       ??_C@_06HCNC@unit1_?$AA@   10059348     g_spawn.obj
 0002:00005350       ??_C@_0BA@GHGA@Svcmd_Test_f?$CI?$CJ?6?$AA@ 10059350     g_svcmds.obj
 0002:00005360       ??_C@_0BI@EBJA@IP?5filter?5list?5is?5full?6?$AA@ 10059360     g_svcmds.obj
 0002:00005378       ??_C@_0BJ@NFNM@Usage?3?5?5addip?5?$DMip?9mask?$DO?6?$AA@ 10059378     g_svcmds.obj
 0002:00005394       ??_C@_0BI@PKEJ@Bad?5filter?5address?3?5?$CFs?6?$AA@ 10059394     g_svcmds.obj
 0002:000053ac       ??_C@_0BB@MKAO@Didn?8t?5find?5?$CFs?4?6?$AA@ 100593ac     g_svcmds.obj
 0002:000053c0       ??_C@_09ECMH@Removed?4?6?$AA@ 100593c0     g_svcmds.obj
 0002:000053cc       ??_C@_0BP@DAMB@Usage?3?5?5sv?5removeip?5?$DMip?9mask?$DO?6?$AA@ 100593cc     g_svcmds.obj
 0002:000053ec       ??_C@_0BB@ICLN@?$CF3i?4?$CF3i?4?$CF3i?4?$CF3i?6?$AA@ 100593ec     g_svcmds.obj
 0002:00005400       ??_C@_0O@KHLK@Filter?5list?3?6?$AA@ 10059400     g_svcmds.obj
 0002:00005410       ??_C@_0BG@EJLA@sv?5addip?5?$CFi?4?$CFi?4?$CFi?4?$CFi?6?$AA@ 10059410     g_svcmds.obj
 0002:00005428       ??_C@_0BC@MAJ@set?5filterban?5?$CFd?6?$AA@ 10059428     g_svcmds.obj
 0002:0000543c       ??_C@_0BC@KCLP@Couldn?8t?5open?5?$CFs?6?$AA@ 1005943c     g_svcmds.obj
 0002:00005450       ??_C@_0N@OKCN@Writing?5?$CFs?4?6?$AA@ 10059450     g_svcmds.obj
 0002:00005460       ??_C@_0O@BLGB@?$CFs?1listip?4cfg?$AA@ 10059460     g_svcmds.obj
 0002:00005470       ??_C@_04OAFI@game?$AA@     10059470     g_svcmds.obj
 0002:00005478       ??_C@_0BN@JLPD@Unknown?5server?5command?5?$CC?$CFs?$CC?6?$AA@ 10059478     g_svcmds.obj
 0002:00005498       ??_C@_07DHBE@writeip?$AA@  10059498     g_svcmds.obj
 0002:000054a0       ??_C@_06GDHL@listip?$AA@   100594a0     g_svcmds.obj
 0002:000054a8       ??_C@_08KLO@removeip?$AA@  100594a8     g_svcmds.obj
 0002:000054b4       ??_C@_05MLCI@addip?$AA@    100594b4     g_svcmds.obj
 0002:000054bc       ??_C@_04DJDA@test?$AA@     100594bc     g_svcmds.obj
 0002:000054c4       ??_C@_06FHNF@?$CFs?4wav?$AA@ 100594c4     g_target.obj
 0002:000054cc       ??_C@_04MPDF@?4wav?$AA@    100594cc     g_target.obj
 0002:000054d4       ??_C@_0CI@EEDK@target_speaker?5with?5no?5noise?5set@ 100594d4     g_target.obj
 0002:000054fc       ??_C@_0BK@NCNK@?$CFs?5with?5no?5message?5at?5?$CFs?6?$AA@ 100594fc     g_target.obj
 0002:00005518       ??_C@_0BO@JLJC@You?5have?5found?5a?5secret?5area?4?$AA@ 10059518     g_target.obj
 0002:00005538       __real@4@c0089c00000000000000 10059538     g_target.obj
 0002:0000553c       __real@4@c00a8000000000000000 1005953c     g_target.obj
 0002:00005540       __real@4@40078c00000000000000 10059540     g_target.obj
 0002:00005544       ??_C@_05FBAC@mine3?$AA@    10059544     g_target.obj
 0002:0000554c       ??_C@_0BA@NBIK@misc?1secret?4wav?$AA@ 1005954c     g_target.obj
 0002:0000555c       ??_C@_01FDHG@?$CK?$AA@     1005955c     g_target.obj
 0002:00005560       ??_C@_0BG@DJMD@?$CFs?5exited?5the?5level?4?6?$AA@ 10059560     g_target.obj
 0002:00005578       ??_C@_0O@OOM@fact3$secret1?$AA@ 10059578     g_target.obj
 0002:00005588       ??_C@_05GMCN@fact3?$AA@    10059588     g_target.obj
 0002:00005590       ??_C@_05DJAD@fact1?$AA@    10059590     g_target.obj
 0002:00005598       ??_C@_0CG@GHDH@target_changelevel?5with?5no?5map?5a@ 10059598     g_target.obj
 0002:000055c0       ??_C@_0BD@HJLB@weapons?1laser2?4wav?$AA@ 100595c0     g_target.obj
 0002:000055d4       ??_C@_0BO@BFAL@?$CFs?5at?5?$CFs?3?5?$CFs?5is?5a?5bad?5target?6?$AA@ 100595d4     g_target.obj
 0002:000055f4       __real@4@4005c200000000000000 100595f4     g_target.obj
 0002:000055f8       ??_C@_0BO@IHL@?$CFs?5target?5?$CFs?5not?5found?5at?5?$CFs?6?$AA@ 100595f8     g_target.obj
 0002:00005618       ??_C@_0CF@KJDG@target?5?$CFs?5?$CI?$CFs?5at?5?$CFs?$CJ?5is?5not?5a?5li@ 10059618     g_target.obj
 0002:00005640       ??_C@_09EMDN@?$CFs?5at?5?$CFs?5?$AA@ 10059640     g_target.obj
 0002:0000564c       ??_C@_0CK@FOCB@target_lightramp?5has?5bad?5ramp?5?$CI?$CF@ 1005964c     g_target.obj
 0002:00005678       __real@8@40069600000000000000 10059678     g_target.obj
 0002:00005680       ??_C@_0BA@OHMM@world?1quake?4wav?$AA@ 10059680     g_target.obj
 0002:00005690       ??_C@_0BF@ONKA@untargeted?5?$CFs?5at?5?$CFs?6?$AA@ 10059690     g_target.obj
 0002:000056a8       ??_C@_0BC@IMIB@misc?1trigger1?4wav?$AA@ 100596a8     g_trigger.obj
 0002:000056bc       ??_C@_0CC@FIBG@fixed?5TRIGGERED?5flag?5on?5?$CFs?5at?5?$CFs@ 100596bc     g_trigger.obj
 0002:000056e0       ??_C@_0BA@EMCG@misc?1keyuse?4wav?$AA@ 100596e0     g_trigger.obj
 0002:000056f0       ??_C@_0BA@HEPJ@misc?1keytry?4wav?$AA@ 100596f0     g_trigger.obj
 0002:00005700       ??_C@_0BA@IENL@You?5need?5the?5?$CFs?$AA@ 10059700     g_trigger.obj
 0002:00005710       ??_C@_0BI@GLJN@?$CFs?5at?5?$CFs?5has?5no?5target?6?$AA@ 10059710     g_trigger.obj
 0002:00005728       ??_C@_0CJ@ILFG@item?5?$CFs?5not?5found?5for?5trigger_ke@ 10059728     g_trigger.obj
 0002:00005754       ??_C@_0CD@KJDG@no?5key?5item?5for?5trigger_key?5at?5?$CF@ 10059754     g_trigger.obj
 0002:00005778       ??_C@_0BE@JMIP@Sequence?5completed?$CB?$AA@ 10059778     g_trigger.obj
 0002:0000578c       ??_C@_0BB@MACC@?$CFi?5more?5to?5go?4?4?4?$AA@ 1005978c     g_trigger.obj
 0002:000057a0       ??_C@_07HCFB@grenade?$AA@  100597a0     g_trigger.obj
 0002:000057a8       ??_C@_0BB@OMDB@misc?1windfly?4wav?$AA@ 100597a8     g_trigger.obj
 0002:000057bc       ??_C@_0BC@JIII@world?1electro?4wav?$AA@ 100597bc     g_trigger.obj
 0002:000057d0       ??_C@_0CL@EKON@trigger_gravity?5without?5gravity?5@ 100597d0     g_trigger.obj
 0002:000057fc       ??_C@_0CD@DAPB@G_PickTarget?3?5target?5?$CFs?5not?5foun@ 100597fc     g_utils.obj
 0002:00005820       ??_C@_0CK@EMIN@G_PickTarget?5called?5with?5NULL?5ta@ 10059820     g_utils.obj
 0002:0000584c       ??_C@_0CI@IBFM@entity?5was?5removed?5while?5using?5t@ 1005984c     g_utils.obj
 0002:00005874       ??_C@_0BO@BFGM@WARNING?3?5Entity?5used?5itself?4?6?$AA@ 10059874     g_utils.obj
 0002:00005894       ??_C@_0CM@EJMH@entity?5was?5removed?5while?5using?5k@ 10059894     g_utils.obj
 0002:000058c0       ??_C@_0BP@KMKC@Think_Delay?5with?5no?5activator?6?$AA@ 100598c0     g_utils.obj
 0002:000058e0       ??_C@_0L@HGKE@DelayedUse?$AA@ 100598e0     g_utils.obj
 0002:000058ec       ??_C@_0L@IIGH@?$CI?$CFi?5?$CFi?5?$CFi?$CJ?$AA@ 100598ec     g_utils.obj
 0002:000058f8       __real@8@4000c90fdaa22168c000 100598f8     g_utils.obj
 0002:00005900       __real@8@4006b400000000000000 10059900     g_utils.obj
 0002:00005908       ??_C@_07MLMP@noclass?$AA@  10059908     g_utils.obj
 0002:00005910       ??_C@_0BJ@GGEO@ED_Alloc?3?5no?5free?5edicts?$AA@ 10059910     g_utils.obj
 0002:0000592c       ??_C@_05JPNL@freed?$AA@    1005992c     g_utils.obj
 0002:00005934       ??_C@_08HBEB@?$CKbrwater?$AA@ 10059934     g_weapon.obj
 0002:00005940       ??_C@_04DJMN@bolt?$AA@     10059940     g_weapon.obj
 0002:00005948       ??_C@_0BA@DNAN@misc?1lasfly?4wav?$AA@ 10059948     g_weapon.obj
 0002:00005958       ??_C@_0BO@EPDP@models?1objects?1laser?1tris?4md2?$AA@ 10059958     g_weapon.obj
 0002:00005978       ??_C@_0CA@NGKB@models?1objects?1grenade?1tris?4md2?$AA@ 10059978     g_weapon.obj
 0002:00005998       ??_C@_0BF@KMC@weapons?1grenlb1b?4wav?$AA@ 10059998     g_weapon.obj
 0002:000059b0       ??_C@_0BF@EFGP@weapons?1hgrenb2a?4wav?$AA@ 100599b0     g_weapon.obj
 0002:000059c8       ??_C@_0BF@PLIP@weapons?1hgrenb1a?4wav?$AA@ 100599c8     g_weapon.obj
 0002:000059e0       ??_C@_0BF@PFKI@weapons?1hgrent1a?4wav?$AA@ 100599e0     g_weapon.obj
 0002:000059f8       ??_C@_0BF@DFHF@weapons?1hgrenc1b?4wav?$AA@ 100599f8     g_weapon.obj
 0002:00005a10       ??_C@_08DNFC@hgrenade?$AA@ 10059a10     g_weapon.obj
 0002:00005a1c       ??_C@_0CB@DCNA@models?1objects?1grenade2?1tris?4md2@ 10059a1c     g_weapon.obj
 0002:00005a40       ??_C@_06DGFK@rocket?$AA@   10059a40     g_weapon.obj
 0002:00005a48       ??_C@_0BE@ECMN@weapons?1rockfly?4wav?$AA@ 10059a48     g_weapon.obj
 0002:00005a5c       ??_C@_0BP@PBFK@models?1objects?1rocket?1tris?4md2?$AA@ 10059a5c     g_weapon.obj
 0002:00005a7c       ??_C@_0BD@DABC@sprites?1s_bfg3?4sp2?$AA@ 10059a7c     g_weapon.obj
 0002:00005a90       ??_C@_0BF@PNJO@weapons?1bfg__x1b?4wav?$AA@ 10059a90     g_weapon.obj
 0002:00005aa8       ??_C@_0BF@EOPN@weapons?1bfg__l1a?4wav?$AA@ 10059aa8     g_weapon.obj
 0002:00005ac0       ??_C@_09KIFB@bfg?5blast?$AA@ 10059ac0     g_weapon.obj
 0002:00005acc       ??_C@_0BD@HAFI@sprites?1s_bfg1?4sp2?$AA@ 10059acc     g_weapon.obj
 0002:00005ae0       __real@4@40039000000000000000 10059ae0     m_move.obj
 0002:00005ae4       __real@4@40049000000000000000 10059ae4     m_move.obj
 0002:00005ae8       __real@4@c0028000000000000000 10059ae8     m_move.obj
 0002:00005aec       __real@4@4004a000000000000000 10059aec     m_move.obj
 0002:00005af0       __real@4@c006b400000000000000 10059af0     m_move.obj
 0002:00005af4       __real@4@4006b400000000000000 10059af4     m_move.obj
 0002:00005af8       __real@8@4007b400000000000000 10059af8     m_move.obj
 0002:00005b00       __real@4@c002a000000000000000 10059b00     m_move.obj
 0002:00005b04       ??_C@_08PBBB@security?$AA@ 10059b04     p_client.obj
 0002:00005b10       ??_C@_05GPH@jail3?$AA@     10059b10     p_client.obj
 0002:00005b18       ??_C@_06FFPI@strike?$AA@   10059b18     p_client.obj
 0002:00005b20       ??_C@_06PAPP@power2?$AA@   10059b20     p_client.obj
 0002:00005b28       ??_C@_05GCKI@space?$AA@    10059b28     p_client.obj
 0002:00005b30       ??_C@_06CDGP@biggun?$AA@   10059b30     p_client.obj
 0002:00005b38       ??_C@_05MNF@boss1?$AA@     10059b38     p_client.obj
 0002:00005b40       ??_C@_03NEMD@lab?$AA@      10059b40     p_client.obj
 0002:00005b44       ??_C@_05EOH@mine4?$AA@     10059b44     p_client.obj
 0002:00005b4c       ??_C@_05PLJF@mine2?$AA@    10059b4c     p_client.obj
 0002:00005b54       ??_C@_05ECM@mine1?$AA@     10059b54     p_client.obj
 0002:00005b5c       ??_C@_05FDBC@jail4?$AA@    10059b5c     p_client.obj
 0002:00005b64       ??_C@_05KMGA@jail2?$AA@    10059b64     p_client.obj
 0002:00005b6c       __real@4@4007c000000000000000 10059b6c     p_client.obj
 0002:00005b70       ??_C@_09PFNP@?$CFs?5died?4?6?$AA@ 10059b70     p_client.obj
 0002:00005b7c       ??_C@_0M@JPCK@?$CFs?5?$CFs?5?$CFs?$CFs?6?$AA@ 10059b7c     p_client.obj
 0002:00005b88       ??_C@_0L@HPDB@?8s?5grapple?$AA@ 10059b88     p_client.obj
 0002:00005b94       ??_C@_0O@IGPI@was?5caught?5by?$AA@ 10059b94     p_client.obj
 0002:00005ba4       ??_C@_0BC@EAHL@?8s?5personal?5space?$AA@ 10059ba4     p_client.obj
 0002:00005bb8       ??_C@_0BA@BOPB@tried?5to?5invade?$AA@ 10059bb8     p_client.obj
 0002:00005bc8       ??_C@_07JJHF@?8s?5pain?$AA@ 10059bc8     p_client.obj
 0002:00005bd0       ??_C@_05GPCP@feels?$AA@    10059bd0     p_client.obj
 0002:00005bd8       ??_C@_0L@FLDO@didn?8t?5see?$AA@ 10059bd8     p_client.obj
 0002:00005be4       ??_C@_0P@HMGJ@?8s?5handgrenade?$AA@ 10059be4     p_client.obj
 0002:00005bf4       ??_C@_06JDHL@caught?$AA@   10059bf4     p_client.obj
 0002:00005bfc       ??_C@_0BD@EPNI@couldn?8t?5hide?5from?$AA@ 10059bfc     p_client.obj
 0002:00005c10       ??_C@_0N@BHNL@?8s?5BFG?5blast?$AA@ 10059c10     p_client.obj
 0002:00005c20       ??_C@_0BF@CDEE@was?5disintegrated?5by?$AA@ 10059c20     p_client.obj
 0002:00005c38       ??_C@_06BFBK@?8s?5BFG?$AA@ 10059c38     p_client.obj
 0002:00005c40       ??_C@_0BL@GCPC@saw?5the?5pretty?5lights?5from?$AA@ 10059c40     p_client.obj
 0002:00005c5c       ??_C@_0O@CAMJ@was?5railed?5by?$AA@ 10059c5c     p_client.obj
 0002:00005c6c       ??_C@_0BA@IJMK@?8s?5hyperblaster?$AA@ 10059c6c     p_client.obj
 0002:00005c7c       ??_C@_0O@BKII@was?5melted?5by?$AA@ 10059c7c     p_client.obj
 0002:00005c8c       ??_C@_0O@FKJL@almost?5dodged?$AA@ 10059c8c     p_client.obj
 0002:00005c9c       ??_C@_09LGPO@?8s?5rocket?$AA@ 10059c9c     p_client.obj
 0002:00005ca8       ??_C@_03CNHG@ate?$AA@      10059ca8     p_client.obj
 0002:00005cac       ??_C@_0M@JEIL@?8s?5shrapnel?$AA@ 10059cac     p_client.obj
 0002:00005cb8       ??_C@_0BA@LEDP@was?5shredded?5by?$AA@ 10059cb8     p_client.obj
 0002:00005cc8       ??_C@_0L@JJNB@?8s?5grenade?$AA@ 10059cc8     p_client.obj
 0002:00005cd4       ??_C@_0O@EHCL@was?5popped?5by?$AA@ 10059cd4     p_client.obj
 0002:00005ce4       ??_C@_0M@KOND@?8s?5chaingun?$AA@ 10059ce4     p_client.obj
 0002:00005cf0       ??_C@_0BD@HFCG@was?5cut?5in?5half?5by?$AA@ 10059cf0     p_client.obj
 0002:00005d04       ??_C@_0BF@PMCN@was?5machinegunned?5by?$AA@ 10059d04     p_client.obj
 0002:00005d1c       ??_C@_0BB@DIEO@?8s?5super?5shotgun?$AA@ 10059d1c     p_client.obj
 0002:00005d30       ??_C@_0BC@JMNM@was?5blown?5away?5by?$AA@ 10059d30     p_client.obj
 0002:00005d44       ??_C@_0BD@BGJE@was?5gunned?5down?5by?$AA@ 10059d44     p_client.obj
 0002:00005d58       ??_C@_0P@PJPG@was?5blasted?5by?$AA@ 10059d58     p_client.obj
 0002:00005d68       ??_C@_07GGCL@?$CFs?5?$CFs?4?6?$AA@ 10059d68     p_client.obj
 0002:00005d70       ??_C@_0P@GGKD@killed?5himself?$AA@ 10059d70     p_client.obj
 0002:00005d80       ??_C@_0P@POKH@killed?5herself?$AA@ 10059d80     p_client.obj
 0002:00005d90       ??_C@_0BP@NJLA@should?5have?5used?5a?5smaller?5gun?$AA@ 10059d90     p_client.obj
 0002:00005db0       ??_C@_0BA@IPDB@blew?5himself?5up?$AA@ 10059db0     p_client.obj
 0002:00005dc0       ??_C@_0BA@KPAE@blew?5herself?5up?$AA@ 10059dc0     p_client.obj
 0002:00005dd0       ??_C@_0BL@HMJI@tripped?5on?5his?5own?5grenade?$AA@ 10059dd0     p_client.obj
 0002:00005dec       ??_C@_0BL@KODL@tripped?5on?5her?5own?5grenade?$AA@ 10059dec     p_client.obj
 0002:00005e08       ??_C@_0BN@JOKE@tried?5to?5put?5the?5pin?5back?5in?$AA@ 10059e08     p_client.obj
 0002:00005e28       ??_C@_0BH@BPGN@was?5in?5the?5wrong?5place?$AA@ 10059e28     p_client.obj
 0002:00005e40       ??_C@_0M@OJCL@got?5blasted?$AA@ 10059e40     p_client.obj
 0002:00005e4c       ??_C@_0O@NKOE@saw?5the?5light?$AA@ 10059e4c     p_client.obj
 0002:00005e5c       ??_C@_0BA@FMLI@found?5a?5way?5out?$AA@ 10059e5c     p_client.obj
 0002:00005e6c       ??_C@_07DELG@blew?5up?$AA@ 10059e6c     p_client.obj
 0002:00005e74       ??_C@_0BP@CFPL@does?5a?5back?5flip?5into?5the?5lava?$AA@ 10059e74     p_client.obj
 0002:00005e94       ??_C@_06BOLJ@melted?$AA@   10059e94     p_client.obj
 0002:00005e9c       ??_C@_0BB@PFDP@sank?5like?5a?5rock?$AA@ 10059e9c     p_client.obj
 0002:00005eb0       ??_C@_0N@NNIF@was?5squished?$AA@ 10059eb0     p_client.obj
 0002:00005ec0       ??_C@_08LBFE@cratered?$AA@ 10059ec0     p_client.obj
 0002:00005ecc       ??_C@_08LLKL@suicides?$AA@ 10059ecc     p_client.obj
 0002:00005ed8       __real@8@4004e52ee0d31e0fc000 10059ed8     p_client.obj
 0002:00005ee0       ??_C@_0N@ELAE@?$CKdeath?$CFi?4wav?$AA@ 10059ee0     p_client.obj
 0002:00005ef0       ??_C@_0BO@FHIN@Couldn?8t?5find?5spawn?5point?5?$CFs?6?$AA@ 10059ef0     p_client.obj
 0002:00005f10       ??_C@_07IAGC@bodyque?$AA@  10059f10     p_client.obj
 0002:00005f18       __real@4@4004c000000000000000 10059f18     p_client.obj
 0002:00005f1c       ??_C@_0P@DBJF@menu_loadgame?6?$AA@ 10059f1c     p_client.obj
 0002:00005f2c       __real@4@4006a000000000000000 10059f2c     p_client.obj
 0002:00005f30       ??_C@_03CBNM@fov?$AA@      10059f30     p_client.obj
 0002:00005f34       ??_C@_0BG@EKNO@players?1male?1tris?4md2?$AA@ 10059f34     p_client.obj
 0002:00005f4c       ??_C@_06MNOE@player?$AA@   10059f4c     p_client.obj
 0002:00005f54       ??_C@_0BF@LIFO@?$CFs?5entered?5the?5game?6?$AA@ 10059f54     p_client.obj
 0002:00005f6c       ??_C@_04KBBO@hand?$AA@     10059f6c     p_client.obj
 0002:00005f74       ??_C@_04OPJK@name?$AA@     10059f74     p_client.obj
 0002:00005f7c       ??_C@_0BO@MGKJ@?2name?2badinfo?2skin?2male?1grunt?$AA@ 10059f7c     p_client.obj
 0002:00005f9c       ??_C@_0O@PHNC@?$CFs?5connected?6?$AA@ 10059f9c     p_client.obj
 0002:00005fac       ??_C@_0CA@IMDB@Password?5required?5or?5incorrect?4?$AA@ 10059fac     p_client.obj
 0002:00005fcc       ??_C@_06NPBA@rejmsg?$AA@   10059fcc     p_client.obj
 0002:00005fd4       ??_C@_07HHBK@Banned?4?$AA@ 10059fd4     p_client.obj
 0002:00005fdc       ??_C@_02ICFJ@ip?$AA@       10059fdc     p_client.obj
 0002:00005fe0       ??_C@_0N@OGHP@disconnected?$AA@ 10059fe0     p_client.obj
 0002:00005ff0       ??_C@_0BB@KGDK@?$CFs?5disconnected?6?$AA@ 10059ff0     p_client.obj
 0002:00006004       ??_C@_0O@DFHL@sv?5?$CF3i?3?$CFi?5?$CFi?6?$AA@ 1005a004     p_client.obj
 0002:00006018       __real@8@3ff7b400000000000000 1005a018     p_client.obj
 0002:00006020       ??_C@_0BK@CBJC@client?5?$CFi?5?$CFi?5?$CFi?5?$CFi?5?$CFi?5?$CFi?5?$AA@ 1005a020     p_hud.obj
 0002:0000603c       ??_C@_0BF@IMFD@xv?5?$CFi?5yv?5?$CFi?5picn?5?$CFs?5?$AA@ 1005a03c     p_hud.obj
 0002:00006054       ??_C@_04BLNL@tag2?$AA@     1005a054     p_hud.obj
 0002:0000605c       ??_C@_04OEGC@tag1?$AA@     1005a05c     p_hud.obj
 0002:00006064       ??_C@_0OE@DKLC@xv?532?5yv?58?5picn?5help?5xv?5202?5yv?51@ 1005a064     p_hud.obj
 0002:00006148       ??_C@_05EJMF@hard?$CL?$AA@ 1005a148     p_hud.obj
 0002:00006150       ??_C@_04CEEJ@hard?$AA@     1005a150     p_hud.obj
 0002:00006158       ??_C@_06LDM@medium?$AA@    1005a158     p_hud.obj
 0002:00006160       ??_C@_04FFGK@easy?$AA@     1005a160     p_hud.obj
 0002:00006168       __real@4@4005b600000000000000 1005a168     p_hud.obj
 0002:0000616c       ??_C@_0CB@FBBF@warning?0?5ent?5already?5has?5a?5menu?6@ 1005a16c     p_menu.obj
 0002:00006190       ??_C@_0N@KOHH@string?5?$CC?$CFs?$CC?5?$AA@ 1005a190     p_menu.obj
 0002:000061a0       ??_C@_0O@MPEO@string2?5?$CC?$CFs?$CC?5?$AA@ 1005a1a0     p_menu.obj
 0002:000061b0       ??_C@_0P@EJGE@string2?5?$CC?$AN?$CFs?$CC?5?$AA@ 1005a1b0     p_menu.obj
 0002:000061c0       ??_C@_06GBBM@xv?5?$CFd?5?$AA@ 1005a1c0     p_menu.obj
 0002:000061c8       ??_C@_06PELM@yv?5?$CFd?5?$AA@ 1005a1c8     p_menu.obj
 0002:000061d0       ??_C@_0BL@FANH@xv?532?5yv?58?5picn?5inventory?5?$AA@ 1005a1d0     p_menu.obj
 0002:000061ec       ??_C@_0BL@PINK@warning?3?5?5ent?5has?5no?5menu?6?$AA@ 1005a1ec     p_menu.obj
 0002:00006208       ??_C@_0N@EBHD@player_trail?$AA@ 1005a208     p_trail.obj
 0002:00006218       __real@4@4004c800000000000000 1005a218     p_view.obj
 0002:00006220       __real@8@3ffe9999999999999800 1005a220     p_view.obj
 0002:00006228       __real@8@3ff8a3d70a3d70a3d800 1005a228     p_view.obj
 0002:00006230       ??_C@_0P@PIGP@?$CKpain?$CFi_?$CFi?4wav?$AA@ 1005a230     p_view.obj
 0002:00006240       __real@4@c003b000000000000000 1005a240     p_view.obj
 0002:00006244       __real@4@4002e000000000000000 1005a244     p_view.obj
 0002:00006248       __real@4@c002e000000000000000 1005a248     p_view.obj
 0002:00006250       __real@8@3ffdccccccccccccd000 1005a250     p_view.obj
 0002:00006258       __real@4@c004b400000000000000 1005a258     p_view.obj
 0002:00006260       __real@8@3ff7a3d70a3d70a3d800 1005a260     p_view.obj
 0002:00006268       __real@8@3ffaf5c28f5c28f5c000 1005a268     p_view.obj
 0002:00006270       ??_C@_0BD@MBFG@items?1protect2?4wav?$AA@ 1005a270     p_view.obj
 0002:00006284       ??_C@_0BC@PAJL@items?1damage2?4wav?$AA@ 1005a284     p_view.obj
 0002:00006298       __real@4@4004dc00000000000000 1005a298     p_view.obj
 0002:000062a0       __real@8@3ff1d1b71758e2196800 1005a2a0     p_view.obj
 0002:000062a8       ??_C@_0BB@PFEP@player?1burn2?4wav?$AA@ 1005a2a8     p_view.obj
 0002:000062bc       ??_C@_0BB@BFCA@player?1burn1?4wav?$AA@ 1005a2bc     p_view.obj
 0002:000062d0       ??_C@_0BC@HBEB@player?1drown1?4wav?$AA@ 1005a2d0     p_view.obj
 0002:000062e4       __real@4@4002b000000000000000 1005a2e4     p_view.obj
 0002:000062e8       ??_C@_0BD@IOGI@player?1lava_in?4wav?$AA@ 1005a2e8     p_view.obj
 0002:000062fc       __real@4@4006e100000000000000 1005a2fc     p_view.obj
 0002:00006300       ??_C@_0BE@MGPD@weapons?1bfg_hum?4wav?$AA@ 1005a300     p_view.obj
 0002:00006314       __real@4@4006d200000000000000 1005a314     p_view.obj
 0002:00006318       __real@4@c007b400000000000000 1005a318     p_view.obj
 0002:0000631c       ??_C@_07LCBO@shotgun?$AA@  1005a31c     p_weapon.obj
 0002:00006324       ??_C@_0O@HOIB@super?5shotgun?$AA@ 1005a324     p_weapon.obj
 0002:00006334       ??_C@_06FEJG@shells?$AA@   1005a334     p_weapon.obj
 0002:0000633c       ??_C@_0L@BAOB@machinegun?$AA@ 1005a33c     p_weapon.obj
 0002:00006348       ??_C@_08EHDI@chaingun?$AA@ 1005a348     p_weapon.obj
 0002:00006354       ??_C@_07JBKI@bullets?$AA@  1005a354     p_weapon.obj
 0002:0000635c       ??_C@_0N@EGIP@hyperblaster?$AA@ 1005a35c     p_weapon.obj
 0002:0000636c       ??_C@_07BLEE@railgun?$AA@  1005a36c     p_weapon.obj
 0002:00006374       ??_C@_05ONMJ@slugs?$AA@    1005a374     p_weapon.obj
 0002:0000637c       ??_C@_0BH@FNML@Not?5enough?5?$CFs?5for?5?$CFs?4?6?$AA@ 1005a37c     p_weapon.obj
 0002:00006394       ??_C@_0P@NMMO@No?5?$CFs?5for?5?$CFs?4?6?$AA@ 1005a394     p_weapon.obj
 0002:000063a4       ??_C@_0BL@ODCM@Can?8t?5drop?5current?5weapon?6?$AA@ 1005a3a4     p_weapon.obj
 0002:000063c0       ??_C@_0BC@FALO@items?1damage3?4wav?$AA@ 1005a3c0     p_weapon.obj
 0002:000063d8       __real@8@4007c800000000000000 1005a3d8     p_weapon.obj
 0002:000063e0       __real@8@40068555555555555800 1005a3e0     p_weapon.obj
 0002:000063e8       ??_C@_0BF@GIFO@weapons?1hgrena1b?4wav?$AA@ 1005a3e8     p_weapon.obj
 0002:00006400       __real@8@4003a000000000000000 1005a400     p_weapon.obj
 0002:00006408       ??_C@_0BF@IKGA@weapons?1hyprbd1a?4wav?$AA@ 1005a408     p_weapon.obj
 0002:00006420       __real@8@40018000000000000000 1005a420     p_weapon.obj
 0002:00006428       __real@8@c0018000000000000000 1005a428     p_weapon.obj
 0002:00006430       __real@8@4001c000000000000000 1005a430     p_weapon.obj
 0002:00006438       ??_C@_0BF@POMN@weapons?1hyprbl1a?4wav?$AA@ 1005a438     p_weapon.obj
 0002:00006450       __real@8@bfffc000000000000000 1005a450     p_weapon.obj
 0002:00006458       __real@8@3ffdb333333333333000 1005a458     p_weapon.obj
 0002:00006460       __real@8@4001e000000000000000 1005a460     p_weapon.obj
 0002:00006468       ??_C@_0BF@EJEK@weapons?1chngnl1a?4wav?$AA@ 1005a468     p_weapon.obj
 0002:00006480       ??_C@_0BF@DNOH@weapons?1chngnd1a?4wav?$AA@ 1005a480     p_weapon.obj
 0002:00006498       ??_C@_0BF@PKCI@weapons?1chngnu1a?4wav?$AA@ 1005a498     p_weapon.obj
 0002:000064b0       __real@8@3ff98efa351294e9c800 1005a4b0     q_shared.obj
 0002:000064b8       __real@8@4006b60b60b60b60b800 1005a4b8     q_shared.obj
 0002:000064c0       ??_C@_0CD@KCEE@Com_sprintf?3?5overflow?5of?5?$CFi?5in?5?$CF@ 1005a4c0     q_shared.obj
 0002:000064e4       ??_C@_01PCFE@?2?$AA@       1005a4e4     q_shared.obj
 0002:000064e8       ??_C@_01FAJB@?$DL?$AA@     1005a4e8     q_shared.obj
 0002:000064ec       ??_C@_01HMO@?$CC?$AA@      1005a4ec     q_shared.obj
 0002:000064f0       ??_C@_0BN@DPCF@Info?5string?5length?5exceeded?6?$AA@ 1005a4f0     q_shared.obj
 0002:00006510       ??_C@_06GNBE@?2?$CFs?2?$CFs?$AA@ 1005a510     q_shared.obj
 0002:00006518       ??_C@_0CK@EOML@Keys?5and?5values?5must?5be?5?$DM?564?5cha@ 1005a518     q_shared.obj
 0002:00006544       ??_C@_0CD@NLGB@Can?8t?5use?5keys?5or?5values?5with?5a?5@ 1005a544     q_shared.obj
 0002:00006568       ??_C@_0CL@GPCB@Can?8t?5use?5keys?5or?5values?5with?5a?5@ 1005a568     q_shared.obj
 0002:00006594       ??_C@_0CD@MJE@Can?8t?5use?5keys?5or?5values?5with?5a?5@ 1005a594     q_shared.obj
 0002:000065b8       ??_C@_0P@LNLA@format?5?$CB?$DN?5NULL?$AA@ 1005a5b8     LIBCMTD:sprintf.obj
 0002:000065c8       ??_C@_09NEAG@sprintf?4c?$AA@ 1005a5c8     LIBCMTD:sprintf.obj
 0002:000065d4       ??_C@_0P@OOIN@string?5?$CB?$DN?5NULL?$AA@ 1005a5d4     LIBCMTD:sprintf.obj
 0002:000065e4       ??_C@_06DPMO@Client?$AA@   1005a5e4     LIBCMTD:dbgheap.obj
 0002:000065ec       ??_C@_06BAFM@Ignore?$AA@   1005a5ec     LIBCMTD:dbgheap.obj
 0002:000065f4       ??_C@_03DICE@CRT?$AA@      1005a5f4     LIBCMTD:dbgheap.obj
 0002:000065f8       ??_C@_06BILL@Normal?$AA@   1005a5f8     LIBCMTD:dbgheap.obj
 0002:00006600       ??_C@_04NEN@Free?$AA@      1005a600     LIBCMTD:dbgheap.obj
 0002:00006608       ??_C@_0DC@CGID@Error?3?5memory?5allocation?3?5bad?5me@ 1005a608     LIBCMTD:dbgheap.obj
 0002:0000663c       ??_C@_0CE@FMIA@Invalid?5allocation?5size?3?5?$CFu?5byte@ 1005a63c     LIBCMTD:dbgheap.obj
 0002:00006660       ??_C@_0CB@CPBI@Client?5hook?5allocation?5failure?4?6@ 1005a660     LIBCMTD:dbgheap.obj
 0002:00006684       ??_C@_0DF@DKHF@Client?5hook?5allocation?5failure?5a@ 1005a684     LIBCMTD:dbgheap.obj
 0002:000066bc       ??_C@_09IMJC@dbgheap?4c?$AA@ 1005a6bc     LIBCMTD:dbgheap.obj
 0002:000066c8       ??_C@_0BC@EPKL@_CrtCheckMemory?$CI?$CJ?$AA@ 1005a6c8     LIBCMTD:dbgheap.obj
 0002:000066dc       ??_C@_0BK@JDHA@_pFirstBlock?5?$DN?$DN?5pOldBlock?$AA@ 1005a6dc     LIBCMTD:dbgheap.obj
 0002:000066f8       ??_C@_0BJ@NMEF@_pLastBlock?5?$DN?$DN?5pOldBlock?$AA@ 1005a6f8     LIBCMTD:dbgheap.obj
 0002:00006714       ??_C@_0DC@BOCN@fRealloc?5?$HM?$HM?5?$CI?$CBfRealloc?5?$CG?$CG?5pNewBl@ 1005a714     LIBCMTD:dbgheap.obj
 0002:00006748       ??_C@_0DK@DKOM@_BLOCK_TYPE?$CIpOldBlock?9?$DOnBlockUse@ 1005a748     LIBCMTD:dbgheap.obj
 0002:00006784       ??_C@_0EF@EDKM@pOldBlock?9?$DOnLine?5?$DN?$DN?5IGNORE_LINE?5@ 1005a784     LIBCMTD:dbgheap.obj
 0002:000067cc       ??_C@_0CC@GPMO@_CrtIsValidHeapPointer?$CIpUserData@ 1005a7cc     LIBCMTD:dbgheap.obj
 0002:000067f0       ??_C@_0CN@FHGE@Allocation?5too?5large?5or?5negative@ 1005a7f0     LIBCMTD:dbgheap.obj
 0002:00006820       ??_C@_0CE@EAMN@Client?5hook?5re?9allocation?5failur@ 1005a820     LIBCMTD:dbgheap.obj
 0002:00006844       ??_C@_0DI@KKMM@Client?5hook?5re?9allocation?5failur@ 1005a844     LIBCMTD:dbgheap.obj
 0002:0000687c       ??_C@_0BG@JCEC@_pFirstBlock?5?$DN?$DN?5pHead?$AA@ 1005a87c     LIBCMTD:dbgheap.obj
 0002:00006894       ??_C@_0BF@NLNN@_pLastBlock?5?$DN?$DN?5pHead?$AA@ 1005a894     LIBCMTD:dbgheap.obj
 0002:000068ac       ??_C@_0BO@PLHH@pHead?9?$DOnBlockUse?5?$DN?$DN?5nBlockUse?$AA@ 1005a8ac     LIBCMTD:dbgheap.obj
 0002:000068cc       ??_C@_0DN@KKIO@pHead?9?$DOnLine?5?$DN?$DN?5IGNORE_LINE?5?$CG?$CG?5p@ 1005a8cc     LIBCMTD:dbgheap.obj
 0002:0000690c       ??_C@_0CK@OJNB@DAMAGE?3?5after?5?$CFhs?5block?5?$CI?$CD?$CFd?$CJ?5at@ 1005a90c     LIBCMTD:dbgheap.obj
 0002:00006938       ??_C@_0CL@IJIL@DAMAGE?3?5before?5?$CFhs?5block?5?$CI?$CD?$CFd?$CJ?5a@ 1005a938     LIBCMTD:dbgheap.obj
 0002:00006964       ??_C@_0CH@PHOC@_BLOCK_TYPE_IS_VALID?$CIpHead?9?$DOnBlo@ 1005a964     LIBCMTD:dbgheap.obj
 0002:0000698c       ??_C@_0BL@MBNA@Client?5hook?5free?5failure?4?6?$AA@ 1005a98c     LIBCMTD:dbgheap.obj
 0002:000069a8       ??_C@_0DK@EKKL@memory?5check?5error?5at?50x?$CF08X?5?$DN?50@ 1005a9a8     LIBCMTD:dbgheap.obj
 0002:000069e4       ??_C@_0CJ@GCII@?$CFhs?5located?5at?50x?$CF08X?5is?5?$CFu?5byte@ 1005a9e4     LIBCMTD:dbgheap.obj
 0002:00006a10       ??_C@_0CA@EJPI@?$CFhs?5allocated?5at?5file?5?$CFhs?$CI?$CFd?$CJ?4?6?$AA@ 1005aa10     LIBCMTD:dbgheap.obj
 0002:00006a30       ??_C@_0CJ@LHHG@DAMAGE?3?5on?5top?5of?5Free?5block?5at?5@ 1005aa30     LIBCMTD:dbgheap.obj
 0002:00006a5c       ??_C@_07GJHM@DAMAGED?$AA@  1005aa5c     LIBCMTD:dbgheap.obj
 0002:00006a64       ??_C@_0CL@ODIE@_heapchk?5fails?5with?5unknown?5retu@ 1005aa64     LIBCMTD:dbgheap.obj
 0002:00006a90       ??_C@_0CC@EHNC@_heapchk?5fails?5with?5_HEAPBADPTR?4@ 1005aa90     LIBCMTD:dbgheap.obj
 0002:00006ab4       ??_C@_0CC@JNDP@_heapchk?5fails?5with?5_HEAPBADEND?4@ 1005aab4     LIBCMTD:dbgheap.obj
 0002:00006ad8       ??_C@_0CD@DNMG@_heapchk?5fails?5with?5_HEAPBADNODE@ 1005aad8     LIBCMTD:dbgheap.obj
 0002:00006afc       ??_C@_0CE@JMCB@_heapchk?5fails?5with?5_HEAPBADBEGI@ 1005aafc     LIBCMTD:dbgheap.obj
 0002:00006b20       ??_C@_0CD@MEMI@Bad?5memory?5block?5found?5at?50x?$CF08X@ 1005ab20     LIBCMTD:dbgheap.obj
 0002:00006b44       ??_C@_0CI@GMAO@_CrtMemCheckPoint?3?5NULL?5state?5po@ 1005ab44     LIBCMTD:dbgheap.obj
 0002:00006b6c       ??_C@_0CI@MNAE@_CrtMemDifference?3?5NULL?5state?5po@ 1005ab6c     LIBCMTD:dbgheap.obj
 0002:00006b94       ??_C@_0BH@PKIJ@Object?5dump?5complete?4?6?$AA@ 1005ab94     LIBCMTD:dbgheap.obj
 0002:00006bac       ??_C@_0DB@DBPF@crt?5block?5at?50x?$CF08X?0?5subtype?5?$CFx?0@ 1005abac     LIBCMTD:dbgheap.obj
 0002:00006be0       ??_C@_0CI@JLM@normal?5block?5at?50x?$CF08X?0?5?$CFu?5bytes@ 1005abe0     LIBCMTD:dbgheap.obj
 0002:00006c08       ??_C@_0DE@PFEA@client?5block?5at?50x?$CF08X?0?5subtype?5@ 1005ac08     LIBCMTD:dbgheap.obj
 0002:00006c3c       ??_C@_06MBCE@?$HL?$CFld?$HN?5?$AA@ 1005ac3c     LIBCMTD:dbgheap.obj
 0002:00006c44       ??_C@_0L@BLDJ@?$CFhs?$CI?$CFd?$CJ?5?3?5?$AA@ 1005ac44     LIBCMTD:dbgheap.obj
 0002:00006c50       ??_C@_0BE@FEMA@?$CDFile?5Error?$CD?$CI?$CFd?$CJ?5?3?5?$AA@ 1005ac50     LIBCMTD:dbgheap.obj
 0002:00006c64       ??_C@_0BE@FPPM@Dumping?5objects?5?9?$DO?6?$AA@ 1005ac64     LIBCMTD:dbgheap.obj
 0002:00006c78       ??_C@_0BA@POLM@?5Data?3?5?$DM?$CFs?$DO?5?$CFs?6?$AA@ 1005ac78     LIBCMTD:dbgheap.obj
 0002:00006c88       ??_C@_05JLAO@?$CF?42X?5?$AA@ 1005ac88     LIBCMTD:dbgheap.obj
 0002:00006c90       ??_C@_0BI@KONA@Detected?5memory?5leaks?$CB?6?$AA@ 1005ac90     LIBCMTD:dbgheap.obj
 0002:00006ca8       ??_C@_0BP@LCCN@Total?5allocations?3?5?$CFld?5bytes?4?6?$AA@ 1005aca8     LIBCMTD:dbgheap.obj
 0002:00006cc8       ??_C@_0CB@COID@Largest?5number?5used?3?5?$CFld?5bytes?4?6@ 1005acc8     LIBCMTD:dbgheap.obj
 0002:00006cec       ??_C@_0BO@MEJD@?$CFld?5bytes?5in?5?$CFld?5?$CFhs?5Blocks?4?6?$AA@ 1005acec     LIBCMTD:dbgheap.obj
 0002:00006d0c       ??_C@_0L@HE@vsprintf?4c?$AA@ 1005ad0c     LIBCMTD:vsprintf.obj
 0002:00006d18       ??_C@_08PHBD@fclose?4c?$AA@ 1005ad18     LIBCMTD:fclose.obj
 0002:00006d24       ??_C@_0P@FHEA@stream?5?$CB?$DN?5NULL?$AA@ 1005ad24     LIBCMTD:fclose.obj
 0002:00006d34       ??_C@_0M@KJPK@str?5?$CB?$DN?5NULL?$AA@ 1005ad34     LIBCMTD:fclose.obj
 0002:00006d40       ??_C@_0BC@IPFL@?$CKmode?5?$CB?$DN?5_T?$CI?8?20?8?$CJ?$AA@ 1005ad40     LIBCMTD:fopen.obj
 0002:00006d54       ??_C@_0N@BKPP@mode?5?$CB?$DN?5NULL?$AA@ 1005ad54     LIBCMTD:fopen.obj
 0002:00006d64       ??_C@_0BC@GOED@?$CKfile?5?$CB?$DN?5_T?$CI?8?20?8?$CJ?$AA@ 1005ad64     LIBCMTD:fopen.obj
 0002:00006d78       ??_C@_07OMGG@fopen?4c?$AA@ 1005ad78     LIBCMTD:fopen.obj
 0002:00006d80       ??_C@_0N@MCKG@file?5?$CB?$DN?5NULL?$AA@ 1005ad80     LIBCMTD:fopen.obj
 0002:00006d90       ??_C@_08EJDA@sscanf?4c?$AA@ 1005ad90     LIBCMTD:sscanf.obj
 0002:00006d9c       ??_C@_09DLOM@fprintf?4c?$AA@ 1005ad9c     LIBCMTD:fprintf.obj
 0002:00006da8       ??_C@_0BK@JEGK@IsProcessorFeaturePresent?$AA@ 1005ada8     LIBCMTD:testfdiv.obj
 0002:00006dc4       ??_C@_08OBID@KERNEL32?$AA@ 1005adc4     LIBCMTD:testfdiv.obj
 0002:00006dd0       ??_C@_05OFLO@e?$CL000?$AA@ 1005add0     LIBCMTD:cvt.obj
 0002:00006dd8       ??_C@_0L@ENLJ@tidtable?4c?$AA@ 1005add8     LIBCMTD:tidtable.obj
 0002:00006de4       ??_C@_0DP@IHIN@?$CI?$CCinconsistent?5IOB?5fields?$CC?0?5stre@ 1005ade4     LIBCMTD:_flsbuf.obj
 0002:00006e24       ??_C@_09LGEI@_flsbuf?4c?$AA@ 1005ae24     LIBCMTD:_flsbuf.obj
 0002:00006e30       ___lookuptable             1005ae30     LIBCMTD:output.obj
 0002:00006e8c       ??_C@_1O@POHA@?$AA?$CI?$AAn?$AAu?$AAl?$AAl?$AA?$CJ?$AA?$AA@ 1005ae8c     LIBCMTD:output.obj
 0002:00006e9c       ??_C@_06ONKE@?$CInull?$CJ?$AA@ 1005ae9c     LIBCMTD:output.obj
 0002:00006ea4       ??_C@_08MIHI@output?4c?$AA@ 1005aea4     LIBCMTD:output.obj
 0002:00006eb0       ??_C@_0P@PIHB@ch?5?$CB?$DN?5_T?$CI?8?20?8?$CJ?$AA@ 1005aeb0     LIBCMTD:output.obj
 0002:00006ec0       ??_C@_0BB@BLL@Assertion?5Failed?$AA@ 1005aec0     LIBCMTD:dbgrpt.obj
 0002:00006ed4       ??_C@_05CKBG@Error?$AA@    1005aed4     LIBCMTD:dbgrpt.obj
 0002:00006edc       ??_C@_07JCGI@Warning?$AA@  1005aedc     LIBCMTD:dbgrpt.obj
 0002:00006ee4       ??_C@_0M@ODEP@?$CFs?$CI?$CFd?$CJ?5?3?5?$CFs?$AA@ 1005aee4     LIBCMTD:dbgrpt.obj
 0002:00006ef0       ??_C@_01FEHD@?$AN?$AA@     1005aef0     LIBCMTD:dbgrpt.obj
 0002:00006ef4       ??_C@_0BC@OIMC@Assertion?5failed?$CB?$AA@ 1005aef4     LIBCMTD:dbgrpt.obj
 0002:00006f08       ??_C@_0BD@BEAK@Assertion?5failed?3?5?$AA@ 1005af08     LIBCMTD:dbgrpt.obj
 0002:00006f1c       ??_C@_0CL@LCCP@_CrtDbgReport?3?5String?5too?5long?5o@ 1005af1c     LIBCMTD:dbgrpt.obj
 0002:00006f48       ??_C@_0DC@EMDK@Second?5Chance?5Assertion?5Failed?3?5@ 1005af48     LIBCMTD:dbgrpt.obj
 0002:00006f7c       ??_C@_09NJAK@wsprintfA?$AA@ 1005af7c     LIBCMTD:dbgrpt.obj
 0002:00006f88       ??_C@_0L@HKL@user32?4dll?$AA@ 1005af88     LIBCMTD:dbgrpt.obj
 0002:00006f94       ??_C@_0CD@GCMD@Microsoft?5Visual?5C?$CL?$CL?5Debug?5Libra@ 1005af94     LIBCMTD:dbgrpt.obj
 0002:00006fb8       ??_C@_0FD@EBDD@Debug?5?$CFs?$CB?6?6Program?3?5?$CFs?$CFs?$CFs?$CFs?$CFs?$CFs@ 1005afb8     LIBCMTD:dbgrpt.obj
 0002:0000700c       ??_C@_09DCKN@?6Module?3?5?$AA@ 1005b00c     LIBCMTD:dbgrpt.obj
 0002:00007018       ??_C@_07HJII@?6File?3?5?$AA@ 1005b018     LIBCMTD:dbgrpt.obj
 0002:00007020       ??_C@_07LFGN@?6Line?3?5?$AA@ 1005b020     LIBCMTD:dbgrpt.obj
 0002:00007028       ??_C@_02JJJH@?6?6?$AA@     1005b028     LIBCMTD:dbgrpt.obj
 0002:0000702c       ??_C@_0N@NOAB@Expression?3?5?$AA@ 1005b02c     LIBCMTD:dbgrpt.obj
 0002:0000703c       ??_C@_0HD@BHFH@?6?6For?5information?5on?5how?5your?5pr@ 1005b03c     LIBCMTD:dbgrpt.obj
 0002:000070b0       ??_C@_03NAME@?4?4?4?$AA@   1005b0b0     LIBCMTD:dbgrpt.obj
 0002:000070b4       ??_C@_0BH@NNCD@?$DMprogram?5name?5unknown?$DO?$AA@ 1005b0b4     LIBCMTD:dbgrpt.obj
 0002:000070cc       ??_C@_08GFHP@dbgrpt?4c?$AA@ 1005b0cc     LIBCMTD:dbgrpt.obj
 0002:000070d8       ??_C@_0BG@FBEA@szUserMessage?5?$CB?$DN?5NULL?$AA@ 1005b0d8     LIBCMTD:dbgrpt.obj
 0002:000070f0       ??_C@_03GAFO@_yn?$AA@      1005b0f0     LIBCMTD:fpexcept.obj
 0002:000070f4       ??_C@_03GNLD@_y1?$AA@      1005b0f4     LIBCMTD:fpexcept.obj
 0002:000070f8       ??_C@_03MHCE@_y0?$AA@      1005b0f8     LIBCMTD:fpexcept.obj
 0002:000070fc       ??_C@_05PAK@frexp?$AA@     1005b0fc     LIBCMTD:fpexcept.obj
 0002:00007104       ??_C@_04JKCH@fmod?$AA@     1005b104     LIBCMTD:fpexcept.obj
 0002:0000710c       ??_C@_06GGHF@_hypot?$AA@   1005b10c     LIBCMTD:fpexcept.obj
 0002:00007114       ??_C@_05JNMC@_cabs?$AA@    1005b114     LIBCMTD:fpexcept.obj
 0002:0000711c       ??_C@_05MEKH@ldexp?$AA@    1005b11c     LIBCMTD:fpexcept.obj
 0002:00007124       ??_C@_04KAOJ@modf?$AA@     1005b124     LIBCMTD:fpexcept.obj
 0002:0000712c       ??_C@_04EHAJ@fabs?$AA@     1005b12c     LIBCMTD:fpexcept.obj
 0002:00007134       ??_C@_05MFBN@floor?$AA@    1005b134     LIBCMTD:fpexcept.obj
 0002:0000713c       ??_C@_04JJMP@ceil?$AA@     1005b13c     LIBCMTD:fpexcept.obj
 0002:00007144       ??_C@_03JLPI@tan?$AA@      1005b144     LIBCMTD:fpexcept.obj
 0002:00007148       ??_C@_03DLFL@cos?$AA@      1005b148     LIBCMTD:fpexcept.obj
 0002:0000714c       ??_C@_03JAMN@sin?$AA@      1005b14c     LIBCMTD:fpexcept.obj
 0002:00007150       ??_C@_04LMBE@sqrt?$AA@     1005b150     LIBCMTD:fpexcept.obj
 0002:00007158       ??_C@_05BFPO@atan2?$AA@    1005b158     LIBCMTD:fpexcept.obj
 0002:00007160       ??_C@_04EAGN@atan?$AA@     1005b160     LIBCMTD:fpexcept.obj
 0002:00007168       ??_C@_04OAMO@acos?$AA@     1005b168     LIBCMTD:fpexcept.obj
 0002:00007170       ??_C@_04ELFI@asin?$AA@     1005b170     LIBCMTD:fpexcept.obj
 0002:00007178       ??_C@_04LFAD@tanh?$AA@     1005b178     LIBCMTD:fpexcept.obj
 0002:00007180       ??_C@_04PFKD@cosh?$AA@     1005b180     LIBCMTD:fpexcept.obj
 0002:00007188       ??_C@_04NPAI@sinh?$AA@     1005b188     LIBCMTD:fpexcept.obj
 0002:00007190       ??_C@_05IJHH@log10?$AA@    1005b190     LIBCMTD:fpexcept.obj
 0002:00007198       ??_C@_03BGKD@log?$AA@      1005b198     LIBCMTD:fpexcept.obj
 0002:0000719c       ??_C@_03EGFG@pow?$AA@      1005b19c     LIBCMTD:fpexcept.obj
 0002:000071a0       ??_C@_03CDGJ@exp?$AA@      1005b1a0     LIBCMTD:fpexcept.obj
 0002:000071a4       ??_C@_07PDLA@mlock?4c?$AA@ 1005b1a4     LIBCMTD:mlock.obj
 0002:000071b8       __DEFAULT_CW_in_mem        1005b1b8     LIBCMTD:common.obj
 0002:000071ba       __pi_by_2_to_61            1005b1ba     LIBCMTD:common.obj
 0002:000071f4       ___dnames                  1005b1f4     LIBCMTD:timeset.obj
 0002:0000720c       ___mnames                  1005b20c     LIBCMTD:timeset.obj
 0002:00007234       ??_C@_07DEKI@tzset?4c?$AA@ 1005b234     LIBCMTD:tzset.obj
 0002:0000723c       ??_C@_02JHIA@TZ?$AA@       1005b23c     LIBCMTD:tzset.obj
 0002:00007240       ??_C@_08LLGM@gmtime?4c?$AA@ 1005b240     LIBCMTD:gmtime.obj
 0002:0000724c       ??_C@_07HPAH@_file?4c?$AA@ 1005b24c     LIBCMTD:_file.obj
 0002:00007254       ??_C@_09DNOI@_filbuf?4c?$AA@ 1005b254     LIBCMTD:_filbuf.obj
 0002:00007260       ??_C@_0L@JIE@_freebuf?4c?$AA@ 1005b260     LIBCMTD:_freebuf.obj
 0002:0000726c       ??_C@_07INLA@_open?4c?$AA@ 1005b26c     LIBCMTD:_open.obj
 0002:00007274       ??_C@_0BB@COCE@filename?5?$CB?$DN?5NULL?$AA@ 1005b274     LIBCMTD:_open.obj
 0002:00007288       ??_C@_08HJEP@stream?4c?$AA@ 1005b288     LIBCMTD:stream.obj
 0002:00007294       ??_C@_07IEFA@input?4c?$AA@ 1005b294     LIBCMTD:input.obj
 0002:0000729c       ??_C@_09JNND@_sftbuf?4c?$AA@ 1005b29c     LIBCMTD:_sftbuf.obj
 0002:000072a8       ??_C@_0BH@EOPG@flag?5?$DN?$DN?50?5?$HM?$HM?5flag?5?$DN?$DN?51?$AA@ 1005b2a8     LIBCMTD:_sftbuf.obj
 0002:000072f0       ??_C@_07PCLE@LC_TIME?$AA@  1005b2f0     LIBCMTD:setlocal.obj
 0002:000072f8       ??_C@_0L@NKG@LC_NUMERIC?$AA@ 1005b2f8     LIBCMTD:setlocal.obj
 0002:00007304       ??_C@_0M@CBIH@LC_MONETARY?$AA@ 1005b304     LIBCMTD:setlocal.obj
 0002:00007310       ??_C@_08LFGE@LC_CTYPE?$AA@ 1005b310     LIBCMTD:setlocal.obj
 0002:0000731c       ??_C@_0L@CFLC@LC_COLLATE?$AA@ 1005b31c     LIBCMTD:setlocal.obj
 0002:00007328       ??_C@_06GCPK@LC_ALL?$AA@   1005b328     LIBCMTD:setlocal.obj
 0002:00007330       ??_C@_02BGDO@?$DN?$DL?$AA@ 1005b330     LIBCMTD:setlocal.obj
 0002:00007334       ??_C@_0L@MOEE@setlocal?4c?$AA@ 1005b334     LIBCMTD:setlocal.obj
 0002:00007340       ??_C@_01KPOD@?$DN?$AA@     1005b340     LIBCMTD:setlocal.obj
 0002:00007344       ??_C@_03DBOJ@_?4?0?$AA@    1005b344     LIBCMTD:setlocal.obj
 0002:00007348       ??_C@_01PJCK@?4?$AA@       1005b348     LIBCMTD:setlocal.obj
 0002:0000734c       ??_C@_01NON@_?$AA@         1005b34c     LIBCMTD:setlocal.obj
 0002:00007350       ??_C@_08KFDJ@ioinit?4c?$AA@ 1005b350     LIBCMTD:ioinit.obj
 0002:0000735c       ??_C@_09IGKD@stdenvp?4c?$AA@ 1005b35c     LIBCMTD:stdenvp.obj
 0002:00007368       ??_C@_09MPMN@stdargv?4c?$AA@ 1005b368     LIBCMTD:stdargv.obj
 0002:00007374       ??_C@_07BNNE@a_env?4c?$AA@ 1005b374     LIBCMTD:a_env.obj
 0002:0000737c       ??_C@_0P@GGKG@runtime?5error?5?$AA@ 1005b37c     LIBCMTD:crt0msg.obj
 0002:0000738c       ??_C@_02PIMC@?$AN?6?$AA@   1005b38c     LIBCMTD:crt0msg.obj
 0002:00007390       ??_C@_0O@DELO@TLOSS?5error?$AN?6?$AA@ 1005b390     LIBCMTD:crt0msg.obj
 0002:000073a0       ??_C@_0N@OMLL@SING?5error?$AN?6?$AA@ 1005b3a0     LIBCMTD:crt0msg.obj
 0002:000073b0       ??_C@_0P@OJAK@DOMAIN?5error?$AN?6?$AA@ 1005b3b0     LIBCMTD:crt0msg.obj
 0002:000073c0       ??_C@_0CF@EANP@R6028?$AN?6?9?5unable?5to?5initialize?5he@ 1005b3c0     LIBCMTD:crt0msg.obj
 0002:000073e8       ??_C@_0DF@ECGN@R6027?$AN?6?9?5not?5enough?5space?5for?5lo@ 1005b3e8     LIBCMTD:crt0msg.obj
 0002:00007420       ??_C@_0DF@FKAC@R6026?$AN?6?9?5not?5enough?5space?5for?5st@ 1005b420     LIBCMTD:crt0msg.obj
 0002:00007458       ??_C@_0CG@DPMN@R6025?$AN?6?9?5pure?5virtual?5function?5c@ 1005b458     LIBCMTD:crt0msg.obj
 0002:00007480       ??_C@_0DF@CKIP@R6024?$AN?6?9?5not?5enough?5space?5for?5_o@ 1005b480     LIBCMTD:crt0msg.obj
 0002:000074b8       ??_C@_0CJ@GGOE@R6019?$AN?6?9?5unable?5to?5open?5console?5@ 1005b4b8     LIBCMTD:crt0msg.obj
 0002:000074e4       ??_C@_0CB@LBOB@R6018?$AN?6?9?5unexpected?5heap?5error?$AN?6@ 1005b4e4     LIBCMTD:crt0msg.obj
 0002:00007508       ??_C@_0CN@FPEG@R6017?$AN?6?9?5unexpected?5multithread?5@ 1005b508     LIBCMTD:crt0msg.obj
 0002:00007538       ??_C@_0CM@OBIC@R6016?$AN?6?9?5not?5enough?5space?5for?5th@ 1005b538     LIBCMTD:crt0msg.obj
 0002:00007564       ??_C@_0CB@HPAL@?$AN?6abnormal?5program?5termination?$AN?6@ 1005b564     LIBCMTD:crt0msg.obj
 0002:00007588       ??_C@_0CM@JOOB@R6009?$AN?6?9?5not?5enough?5space?5for?5en@ 1005b588     LIBCMTD:crt0msg.obj
 0002:000075b4       ??_C@_0CK@OIBL@R6008?$AN?6?9?5not?5enough?5space?5for?5ar@ 1005b5b4     LIBCMTD:crt0msg.obj
 0002:000075e0       ??_C@_0CF@LKPB@R6002?$AN?6?9?5floating?5point?5not?5load@ 1005b5e0     LIBCMTD:crt0msg.obj
 0002:00007608       ??_C@_0CF@JPDF@Microsoft?5Visual?5C?$CL?$CL?5Runtime?5Lib@ 1005b608     LIBCMTD:crt0msg.obj
 0002:00007630       ??_C@_0BK@DEOK@Runtime?5Error?$CB?6?6Program?3?5?$AA@ 1005b630     LIBCMTD:crt0msg.obj
 0002:0000764c       ??_C@_09EMDO@_getbuf?4c?$AA@ 1005b64c     LIBCMTD:_getbuf.obj
 0002:00007658       ??_C@_08CNMA@winsig?4c?$AA@ 1005b658     LIBCMTD:winsig.obj
 0002:00007664       ??_C@_0BD@NJFP@GetLastActivePopup?$AA@ 1005b664     LIBCMTD:crtmbox.obj
 0002:00007678       ??_C@_0BA@GILI@GetActiveWindow?$AA@ 1005b678     LIBCMTD:crtmbox.obj
 0002:00007688       ??_C@_0M@PKCK@MessageBoxA?$AA@ 1005b688     LIBCMTD:crtmbox.obj
 0002:00007694       ??_C@_01A@?$AA?$AA@        1005b694     LIBCMTD:a_str.obj
 0002:00007698       ??_C@_13A@?$AA?$AA?$AA?$AA@ 1005b698     LIBCMTD:a_str.obj
 0002:000076ac       ??_C@_09LNLM@osfinfo?4c?$AA@ 1005b6ac     LIBCMTD:osfinfo.obj
 0002:000076b8       ??_C@_08MOLN@mbtowc?4c?$AA@ 1005b6b8     LIBCMTD:mbtowc.obj
 0002:000076c4       ??_C@_0CD@NPPL@MB_CUR_MAX?5?$DN?$DN?51?5?$HM?$HM?5MB_CUR_MAX?5?$DN?$DN@ 1005b6c4     LIBCMTD:mbtowc.obj
 0002:000076e8       ??_C@_08JKP@ungetc?4c?$AA@ 1005b6e8     LIBCMTD:ungetc.obj
 0002:000076f4       ??_C@_0L@EEGJ@inittime?4c?$AA@ 1005b6f4     LIBCMTD:inittime.obj
 0002:00007700       ??_C@_09IMJJ@initnum?4c?$AA@ 1005b700     LIBCMTD:initnum.obj
 0002:0000770c       ??_C@_09KPNI@initmon?4c?$AA@ 1005b70c     LIBCMTD:initmon.obj
 0002:00007718       ??_C@_0L@COIL@initctyp?4c?$AA@ 1005b718     LIBCMTD:initctyp.obj
 0002:00007724       ??_C@_08OBJD@Paraguay?$AA@ 1005b724     LIBCMTD:getqloc.obj
 0002:00007730       ??_C@_07GLKH@Uruguay?$AA@  1005b730     LIBCMTD:getqloc.obj
 0002:00007738       ??_C@_05FPFC@Chile?$AA@    1005b738     LIBCMTD:getqloc.obj
 0002:00007740       ??_C@_07IIGF@Ecuador?$AA@  1005b740     LIBCMTD:getqloc.obj
 0002:00007748       ??_C@_09PKAL@Argentina?$AA@ 1005b748     LIBCMTD:getqloc.obj
 0002:00007754       ??_C@_04LKAH@Peru?$AA@     1005b754     LIBCMTD:getqloc.obj
 0002:0000775c       ??_C@_08NEEM@Colombia?$AA@ 1005b75c     LIBCMTD:getqloc.obj
 0002:00007768       ??_C@_09ODEB@Venezuela?$AA@ 1005b768     LIBCMTD:getqloc.obj
 0002:00007774       ??_C@_0BD@CLEL@Dominican?5Republic?$AA@ 1005b774     LIBCMTD:getqloc.obj
 0002:00007788       ??_C@_0N@MDGL@South?5Africa?$AA@ 1005b788     LIBCMTD:getqloc.obj
 0002:00007798       ??_C@_06NKBG@Panama?$AA@   1005b798     LIBCMTD:getqloc.obj
 0002:000077a0       ??_C@_0L@BMHO@Luxembourg?$AA@ 1005b7a0     LIBCMTD:getqloc.obj
 0002:000077ac       ??_C@_0L@IMDK@Costa?5Rica?$AA@ 1005b7ac     LIBCMTD:getqloc.obj
 0002:000077b8       ??_C@_0M@BLJF@Switzerland?$AA@ 1005b7b8     LIBCMTD:getqloc.obj
 0002:000077c4       ??_C@_09KBOL@Guatemala?$AA@ 1005b7c4     LIBCMTD:getqloc.obj
 0002:000077d0       ??_C@_06JNAK@Canada?$AA@   1005b7d0     LIBCMTD:getqloc.obj
 0002:000077d8       ??_C@_0BG@OLLP@Spanish?5?9?5Modern?5Sort?$AA@ 1005b7d8     LIBCMTD:getqloc.obj
 0002:000077f0       ??_C@_09IDKE@Australia?$AA@ 1005b7f0     LIBCMTD:getqloc.obj
 0002:000077fc       ??_C@_07JJJJ@English?$AA@  1005b7fc     LIBCMTD:getqloc.obj
 0002:00007804       ??_C@_07NMDO@Austria?$AA@  1005b804     LIBCMTD:getqloc.obj
 0002:0000780c       ??_C@_06DEFE@German?$AA@   1005b80c     LIBCMTD:getqloc.obj
 0002:00007814       ??_C@_07JAIH@Belgium?$AA@  1005b814     LIBCMTD:getqloc.obj
 0002:0000781c       ??_C@_06BNLJ@Mexico?$AA@   1005b81c     LIBCMTD:getqloc.obj
 0002:00007824       ??_C@_07JHAG@Spanish?$AA@  1005b824     LIBCMTD:getqloc.obj
 0002:0000782c       ??_C@_06DADE@Basque?$AA@   1005b82c     LIBCMTD:getqloc.obj
 0002:00007834       ??_C@_06ENFP@Sweden?$AA@   1005b834     LIBCMTD:getqloc.obj
 0002:0000783c       ??_C@_07JPMH@Swedish?$AA@  1005b83c     LIBCMTD:getqloc.obj
 0002:00007844       ??_C@_07IEKF@Iceland?$AA@  1005b844     LIBCMTD:getqloc.obj
 0002:0000784c       ??_C@_09KNEA@Icelandic?$AA@ 1005b84c     LIBCMTD:getqloc.obj
 0002:00007858       ??_C@_06IJOD@France?$AA@   1005b858     LIBCMTD:getqloc.obj
 0002:00007860       ??_C@_06EINI@French?$AA@   1005b860     LIBCMTD:getqloc.obj
 0002:00007868       ??_C@_07FOOE@Finland?$AA@  1005b868     LIBCMTD:getqloc.obj
 0002:00007870       ??_C@_07OJOM@Finnish?$AA@  1005b870     LIBCMTD:getqloc.obj
 0002:00007878       ??_C@_05FFAC@Spain?$AA@    1005b878     LIBCMTD:getqloc.obj
 0002:00007880       ??_C@_0BL@BIHM@Spanish?5?9?5Traditional?5Sort?$AA@ 1005b880     LIBCMTD:getqloc.obj
 0002:0000789c       ??_C@_0O@GLHB@united?9states?$AA@ 1005b89c     LIBCMTD:getqloc.obj
 0002:000078ac       ??_C@_0P@IIKK@united?9kingdom?$AA@ 1005b8ac     LIBCMTD:getqloc.obj
 0002:000078bc       ??_C@_0BC@FHBO@trinidad?5?$CG?5tobago?$AA@ 1005b8bc     LIBCMTD:getqloc.obj
 0002:000078d0       ??_C@_0M@BDFM@south?9korea?$AA@ 1005b8d0     LIBCMTD:getqloc.obj
 0002:000078dc       ??_C@_0N@CKFA@south?9africa?$AA@ 1005b8dc     LIBCMTD:getqloc.obj
 0002:000078ec       ??_C@_0M@HNHN@south?5korea?$AA@ 1005b8ec     LIBCMTD:getqloc.obj
 0002:000078f8       ??_C@_0N@MKDO@south?5africa?$AA@ 1005b8f8     LIBCMTD:getqloc.obj
 0002:00007908       ??_C@_06KFFJ@slovak?$AA@   1005b908     LIBCMTD:getqloc.obj
 0002:00007910       ??_C@_0M@NMAC@puerto?9rico?$AA@ 1005b910     LIBCMTD:getqloc.obj
 0002:0000791c       ??_C@_08EJOH@pr?9china?$AA@ 1005b91c     LIBCMTD:getqloc.obj
 0002:00007928       ??_C@_08CHMG@pr?5china?$AA@ 1005b928     LIBCMTD:getqloc.obj
 0002:00007934       ??_C@_02OCJK@nz?$AA@       1005b934     LIBCMTD:getqloc.obj
 0002:00007938       ??_C@_0M@MMKA@new?9zealand?$AA@ 1005b938     LIBCMTD:getqloc.obj
 0002:00007944       ??_C@_09MGEH@hong?9kong?$AA@ 1005b944     LIBCMTD:getqloc.obj
 0002:00007950       ??_C@_07CCAK@holland?$AA@  1005b950     LIBCMTD:getqloc.obj
 0002:00007958       ??_C@_0O@MEPL@great?5britain?$AA@ 1005b958     LIBCMTD:getqloc.obj
 0002:00007968       ??_C@_07LGIB@england?$AA@  1005b968     LIBCMTD:getqloc.obj
 0002:00007970       ??_C@_05BMOA@czech?$AA@    1005b970     LIBCMTD:getqloc.obj
 0002:00007978       ??_C@_05NMPB@china?$AA@    1005b978     LIBCMTD:getqloc.obj
 0002:00007980       ??_C@_07GN@britain?$AA@    1005b980     LIBCMTD:getqloc.obj
 0002:00007988       ??_C@_07DLAK@america?$AA@  1005b988     LIBCMTD:getqloc.obj
 0002:00007990       ??_C@_03IPEP@usa?$AA@      1005b990     LIBCMTD:getqloc.obj
 0002:00007994       ??_C@_02PILH@us?$AA@       1005b994     LIBCMTD:getqloc.obj
 0002:00007998       ??_C@_02FHP@uk?$AA@        1005b998     LIBCMTD:getqloc.obj
 0002:0000799c       ??_C@_05DEAI@swiss?$AA@    1005b99c     LIBCMTD:getqloc.obj
 0002:000079a4       ??_C@_0BA@LIAF@swedish?9finland?$AA@ 1005b9a4     LIBCMTD:getqloc.obj
 0002:000079b4       ??_C@_0BC@FMEG@spanish?9venezuela?$AA@ 1005b9b4     LIBCMTD:getqloc.obj
 0002:000079c8       ??_C@_0BA@BNMG@spanish?9uruguay?$AA@ 1005b9c8     LIBCMTD:getqloc.obj
 0002:000079d8       ??_C@_0BE@BKDJ@spanish?9puerto?5rico?$AA@ 1005b9d8     LIBCMTD:getqloc.obj
 0002:000079ec       ??_C@_0N@JIBL@spanish?9peru?$AA@ 1005b9ec     LIBCMTD:getqloc.obj
 0002:000079fc       ??_C@_0BB@OGOF@spanish?9paraguay?$AA@ 1005b9fc     LIBCMTD:getqloc.obj
 0002:00007a10       ??_C@_0P@LLFA@spanish?9panama?$AA@ 1005ba10     LIBCMTD:getqloc.obj
 0002:00007a20       ??_C@_0BC@BBJM@spanish?9nicaragua?$AA@ 1005ba20     LIBCMTD:getqloc.obj
 0002:00007a34       ??_C@_0P@NJBN@spanish?9modern?$AA@ 1005ba34     LIBCMTD:getqloc.obj
 0002:00007a44       ??_C@_0BA@NHDN@spanish?9mexican?$AA@ 1005ba44     LIBCMTD:getqloc.obj
 0002:00007a54       ??_C@_0BB@JHOJ@spanish?9honduras?$AA@ 1005ba54     LIBCMTD:getqloc.obj
 0002:00007a68       ??_C@_0BC@BOOM@spanish?9guatemala?$AA@ 1005ba68     LIBCMTD:getqloc.obj
 0002:00007a7c       ??_C@_0BE@EELI@spanish?9el?5salvador?$AA@ 1005ba7c     LIBCMTD:getqloc.obj
 0002:00007a90       ??_C@_0BA@POAE@spanish?9ecuador?$AA@ 1005ba90     LIBCMTD:getqloc.obj
 0002:00007aa0       ??_C@_0BL@LDKN@spanish?9dominican?5republic?$AA@ 1005baa0     LIBCMTD:getqloc.obj
 0002:00007abc       ??_C@_0BD@HPMH@spanish?9costa?5rica?$AA@ 1005babc     LIBCMTD:getqloc.obj
 0002:00007ad0       ??_C@_0BB@NDDK@spanish?9colombia?$AA@ 1005bad0     LIBCMTD:getqloc.obj
 0002:00007ae4       ??_C@_0O@BJHA@spanish?9chile?$AA@ 1005bae4     LIBCMTD:getqloc.obj
 0002:00007af4       ??_C@_0BA@OBNG@spanish?9bolivia?$AA@ 1005baf4     LIBCMTD:getqloc.obj
 0002:00007b04       ??_C@_0BC@EFAM@spanish?9argentina?$AA@ 1005bb04     LIBCMTD:getqloc.obj
 0002:00007b18       ??_C@_0BF@KMMM@portuguese?9brazilian?$AA@ 1005bb18     LIBCMTD:getqloc.obj
 0002:00007b30       ??_C@_0BC@BAAE@norwegian?9nynorsk?$AA@ 1005bb30     LIBCMTD:getqloc.obj
 0002:00007b44       ??_C@_0BB@PBHK@norwegian?9bokmal?$AA@ 1005bb44     LIBCMTD:getqloc.obj
 0002:00007b58       ??_C@_09EHKL@norwegian?$AA@ 1005bb58     LIBCMTD:getqloc.obj
 0002:00007b64       ??_C@_0O@BEAN@italian?9swiss?$AA@ 1005bb64     LIBCMTD:getqloc.obj
 0002:00007b74       ??_C@_0O@OIFK@irish?9english?$AA@ 1005bb74     LIBCMTD:getqloc.obj
 0002:00007b84       ??_C@_0N@NBPL@german?9swiss?$AA@ 1005bb84     LIBCMTD:getqloc.obj
 0002:00007b94       ??_C@_0BC@ICFJ@german?9luxembourg?$AA@ 1005bb94     LIBCMTD:getqloc.obj
 0002:00007ba8       ??_C@_0BE@GGPC@german?9lichtenstein?$AA@ 1005bba8     LIBCMTD:getqloc.obj
 0002:00007bbc       ??_C@_0BA@MKDC@german?9austrian?$AA@ 1005bbbc     LIBCMTD:getqloc.obj
 0002:00007bcc       ??_C@_0N@ODNB@french?9swiss?$AA@ 1005bbcc     LIBCMTD:getqloc.obj
 0002:00007bdc       ??_C@_0BC@MGCM@french?9luxembourg?$AA@ 1005bbdc     LIBCMTD:getqloc.obj
 0002:00007bf0       ??_C@_0BA@NABK@french?9canadian?$AA@ 1005bbf0     LIBCMTD:getqloc.obj
 0002:00007c00       ??_C@_0P@CJNO@french?9belgian?$AA@ 1005bc00     LIBCMTD:getqloc.obj
 0002:00007c10       ??_C@_0M@LJOL@english?9usa?$AA@ 1005bc10     LIBCMTD:getqloc.obj
 0002:00007c1c       ??_C@_0L@FMNC@english?9us?$AA@ 1005bc1c     LIBCMTD:getqloc.obj
 0002:00007c28       ??_C@_0L@KBBK@english?9uk?$AA@ 1005bc28     LIBCMTD:getqloc.obj
 0002:00007c34       ??_C@_0BK@NDDE@english?9trinidad?5y?5tobago?$AA@ 1005bc34     LIBCMTD:getqloc.obj
 0002:00007c50       ??_C@_0BF@LKML@english?9south?5africa?$AA@ 1005bc50     LIBCMTD:getqloc.obj
 0002:00007c68       ??_C@_0L@EGPP@english?9nz?$AA@ 1005bc68     LIBCMTD:getqloc.obj
 0002:00007c74       ??_C@_0BA@HLH@english?9jamaica?$AA@ 1005bc74     LIBCMTD:getqloc.obj
 0002:00007c84       ??_C@_0M@PMJI@english?9ire?$AA@ 1005bc84     LIBCMTD:getqloc.obj
 0002:00007c90       ??_C@_0BC@HINE@english?9caribbean?$AA@ 1005bc90     LIBCMTD:getqloc.obj
 0002:00007ca4       ??_C@_0M@DCFH@english?9can?$AA@ 1005bca4     LIBCMTD:getqloc.obj
 0002:00007cb0       ??_C@_0P@DGHK@english?9belize?$AA@ 1005bcb0     LIBCMTD:getqloc.obj
 0002:00007cc0       ??_C@_0M@FLHK@english?9aus?$AA@ 1005bcc0     LIBCMTD:getqloc.obj
 0002:00007ccc       ??_C@_0BB@HNCK@english?9american?$AA@ 1005bccc     LIBCMTD:getqloc.obj
 0002:00007ce0       ??_C@_0O@PAMI@dutch?9belgian?$AA@ 1005bce0     LIBCMTD:getqloc.obj
 0002:00007cf0       ??_C@_0BE@FPEJ@chinese?9traditional?$AA@ 1005bcf0     LIBCMTD:getqloc.obj
 0002:00007d04       ??_C@_0BC@CHFL@chinese?9singapore?$AA@ 1005bd04     LIBCMTD:getqloc.obj
 0002:00007d18       ??_C@_0BD@DCMH@chinese?9simplified?$AA@ 1005bd18     LIBCMTD:getqloc.obj
 0002:00007d2c       ??_C@_0BB@JMOE@chinese?9hongkong?$AA@ 1005bd2c     LIBCMTD:getqloc.obj
 0002:00007d40       ??_C@_07NGFN@chinese?$AA@  1005bd40     LIBCMTD:getqloc.obj
 0002:00007d48       ??_C@_03PCOI@chi?$AA@      1005bd48     LIBCMTD:getqloc.obj
 0002:00007d4c       ??_C@_03FIHP@chh?$AA@      1005bd4c     LIBCMTD:getqloc.obj
 0002:00007d50       ??_C@_08HFLO@canadian?$AA@ 1005bd50     LIBCMTD:getqloc.obj
 0002:00007d5c       ??_C@_07INIJ@belgian?$AA@  1005bd5c     LIBCMTD:getqloc.obj
 0002:00007d64       ??_C@_0L@LCCA@australian?$AA@ 1005bd64     LIBCMTD:getqloc.obj
 0002:00007d70       ??_C@_0BB@BJIO@american?9english?$AA@ 1005bd70     LIBCMTD:getqloc.obj
 0002:00007d84       ??_C@_0BB@DAGO@american?5english?$AA@ 1005bd84     LIBCMTD:getqloc.obj
 0002:00007d98       ??_C@_08HENB@american?$AA@ 1005bd98     LIBCMTD:getqloc.obj
 0002:00007da4       ??_C@_03DGJE@OCP?$AA@      1005bda4     LIBCMTD:getqloc.obj
 0002:00007da8       ??_C@_03EKFG@ACP?$AA@      1005bda8     LIBCMTD:getqloc.obj
 0002:00007dc8       ??_C@_06PAPI@1?$CDQNAN?$AA@ 1005bdc8     LIBCMTD:x10fout.obj
 0002:00007dd0       ??_C@_05BGNL@1?$CDINF?$AA@ 1005bdd0     LIBCMTD:x10fout.obj
 0002:00007dd8       ??_C@_05EDPF@1?$CDIND?$AA@ 1005bdd8     LIBCMTD:x10fout.obj
 0002:00007de0       ??_C@_06LKFM@1?$CDSNAN?$AA@ 1005bde0     LIBCMTD:x10fout.obj
 0002:00007de8       ??_C@_0L@EJNO@wtombenv?4c?$AA@ 1005bde8     LIBCMTD:wtombenv.obj
 0002:00007df4       ??_C@_08EIOK@chsize?4c?$AA@ 1005bdf4     LIBCMTD:chsize.obj
 0002:00007e00       ??_C@_09NPGF@size?5?$DO?$DN?50?$AA@ 1005be00     LIBCMTD:chsize.obj
 0002:00007e0c       ??_C@_07CJME@H?3mm?3ss?$AA@ 1005be0c     LIBCMTD:strftime.obj
 0002:00007e14       ??_C@_0BE@MHI@dddd?0?5MMMM?5dd?0?5yyyy?$AA@ 1005be14     LIBCMTD:strftime.obj
 0002:00007e28       ??_C@_06HCAD@M?1d?1yy?$AA@ 1005be28     LIBCMTD:strftime.obj
 0002:00007e30       ??_C@_02DBLP@PM?$AA@       1005be30     LIBCMTD:strftime.obj
 0002:00007e34       ??_C@_02ENLM@AM?$AA@       1005be34     LIBCMTD:strftime.obj
 0002:00007e38       ??_C@_08LIDF@December?$AA@ 1005be38     LIBCMTD:strftime.obj
 0002:00007e44       ??_C@_08NJLI@November?$AA@ 1005be44     LIBCMTD:strftime.obj
 0002:00007e50       ??_C@_07IAMM@October?$AA@  1005be50     LIBCMTD:strftime.obj
 0002:00007e58       ??_C@_09MKGD@September?$AA@ 1005be58     LIBCMTD:strftime.obj
 0002:00007e64       ??_C@_06PADP@August?$AA@   1005be64     LIBCMTD:strftime.obj
 0002:00007e6c       ??_C@_04PIJO@July?$AA@     1005be6c     LIBCMTD:strftime.obj
 0002:00007e74       ??_C@_04ICFP@June?$AA@     1005be74     LIBCMTD:strftime.obj
 0002:00007e7c       ??_C@_05JFGC@April?$AA@    1005be7c     LIBCMTD:strftime.obj
 0002:00007e84       ??_C@_05FGPD@March?$AA@    1005be84     LIBCMTD:strftime.obj
 0002:00007e8c       ??_C@_08PGBA@February?$AA@ 1005be8c     LIBCMTD:strftime.obj
 0002:00007e98       ??_C@_07BPKJ@January?$AA@  1005be98     LIBCMTD:strftime.obj
 0002:00007ea0       ??_C@_03PGJO@Dec?$AA@      1005bea0     LIBCMTD:strftime.obj
 0002:00007ea4       ??_C@_03PDLM@Nov?$AA@      1005bea4     LIBCMTD:strftime.obj
 0002:00007ea8       ??_C@_03BLHK@Oct?$AA@      1005bea8     LIBCMTD:strftime.obj
 0002:00007eac       ??_C@_03DPFM@Sep?$AA@      1005beac     LIBCMTD:strftime.obj
 0002:00007eb0       ??_C@_03CMCH@Aug?$AA@      1005beb0     LIBCMTD:strftime.obj
 0002:00007eb4       ??_C@_03OBKI@Jul?$AA@      1005beb4     LIBCMTD:strftime.obj
 0002:00007eb8       ??_C@_03LEIG@Jun?$AA@      1005beb8     LIBCMTD:strftime.obj
 0002:00007ebc       ??_C@_03MGHB@May?$AA@      1005bebc     LIBCMTD:strftime.obj
 0002:00007ec0       ??_C@_03MJJM@Apr?$AA@      1005bec0     LIBCMTD:strftime.obj
 0002:00007ec4       ??_C@_03GNHA@Mar?$AA@      1005bec4     LIBCMTD:strftime.obj
 0002:00007ec8       ??_C@_03PICE@Feb?$AA@      1005bec8     LIBCMTD:strftime.obj
 0002:00007ecc       ??_C@_03IEIF@Jan?$AA@      1005becc     LIBCMTD:strftime.obj
 0002:00007ed0       ??_C@_08FAKH@Saturday?$AA@ 1005bed0     LIBCMTD:strftime.obj
 0002:00007edc       ??_C@_06ONCK@Friday?$AA@   1005bedc     LIBCMTD:strftime.obj
 0002:00007ee4       ??_C@_08CCFO@Thursday?$AA@ 1005bee4     LIBCMTD:strftime.obj
 0002:00007ef0       ??_C@_09PBIN@Wednesday?$AA@ 1005bef0     LIBCMTD:strftime.obj
 0002:00007efc       ??_C@_07BMBC@Tuesday?$AA@  1005befc     LIBCMTD:strftime.obj
 0002:00007f04       ??_C@_06CHLK@Monday?$AA@   1005bf04     LIBCMTD:strftime.obj
 0002:00007f0c       ??_C@_06OOEM@Sunday?$AA@   1005bf0c     LIBCMTD:strftime.obj
 0002:00007f14       ??_C@_03MPKK@Sat?$AA@      1005bf14     LIBCMTD:strftime.obj
 0002:00007f18       ??_C@_03FINJ@Fri?$AA@      1005bf18     LIBCMTD:strftime.obj
 0002:00007f1c       ??_C@_03HIKC@Thu?$AA@      1005bf1c     LIBCMTD:strftime.obj
 0002:00007f20       ??_C@_03HECK@Wed?$AA@      1005bf20     LIBCMTD:strftime.obj
 0002:00007f24       ??_C@_03ECCP@Tue?$AA@      1005bf24     LIBCMTD:strftime.obj
 0002:00007f28       ??_C@_03PIEP@Mon?$AA@      1005bf28     LIBCMTD:strftime.obj
 0002:00007f2c       ??_C@_03FHEP@Sun?$AA@      1005bf2c     LIBCMTD:strftime.obj
 0002:00007f30       ??_C@_03MKGK@a?1p?$AA@     1005bf30     LIBCMTD:strftime.obj
 0002:00007f34       ??_C@_05BDJK@am?1pm?$AA@   1005bf34     LIBCMTD:strftime.obj
 0002:00007f3c       ??_C@_0L@HKCB@inithelp?4c?$AA@ 1005bf3c     LIBCMTD:inithelp.obj
 0002:00007f60       ??_C@_07FOIK@a_cmp?4c?$AA@ 1005bf60     LIBCMTD:a_cmp.obj
 0002:00007f68       ??_C@_0DN@PPKB@cchCount1?$DN?$DN0?5?$CG?$CG?5cchCount2?$DN?$DN1?5?$HM?$HM?5@ 1005bf68     LIBCMTD:a_cmp.obj
 0002:00007fc0       ??_C@_08FEIK@setenv?4c?$AA@ 1005bfc0     LIBCMTD:setenv.obj
 0002:00007fec       __IMPORT_DESCRIPTOR_KERNEL32 1005bfec     kernel32:KERNEL32.dll
 0002:00008000       __NULL_IMPORT_DESCRIPTOR   1005c000     kernel32:KERNEL32.dll
 0003:00000000       ___xc_a                    1005d000     LIBCMTD:crt0init.obj
 0003:00000004       ___xc_z                    1005d004     LIBCMTD:crt0init.obj
 0003:00000008       ___xi_a                    1005d008     LIBCMTD:crt0init.obj
 0003:00000014       ___xi_z                    1005d014     LIBCMTD:crt0init.obj
 0003:00000018       ___xp_a                    1005d018     LIBCMTD:crt0init.obj
 0003:00000020       ___xp_z                    1005d020     LIBCMTD:crt0init.obj
 0003:00000024       ___xt_a                    1005d024     LIBCMTD:crt0init.obj
 0003:00000028       ___xt_z                    1005d028     LIBCMTD:crt0init.obj
 0003:00000030       _ctf_statusbar             1005d030     g_ctf.obj
 0003:00000060       _loc_names                 1005d060     g_ctf.obj
 0003:00000128       _creditsmenu               1005d128     g_ctf.obj
 0003:00000200       _joinmenu                  1005d200     g_ctf.obj
 0003:000002d8       _nochasemenu               1005d2d8     g_ctf.obj
 0003:00000330       _def_setmenu               1005d330     g_ctf.obj
 0003:000003d0       _adminmenu                 1005d3d0     g_ctf.obj
 0003:00000428       _jacketarmor_info          1005d428     g_items.obj
 0003:00000440       _combatarmor_info          1005d440     g_items.obj
 0003:00000458       _bodyarmor_info            1005d458     g_items.obj
 0003:00000470       _itemlist                  1005d470     g_items.obj
 0003:00001350       _fields                    1005e350     g_save.obj
 0003:00001640       _savefields                1005e640     g_save.obj
 0003:000017f0       _levelfields               1005e7f0     g_save.obj
 0003:00001850       _clientfields              1005e850     g_save.obj
 0003:00001890       _spawns                    1005e890     g_spawn.obj
 0003:00001b40       _single_statusbar          1005eb40     g_spawn.obj
 0003:00001b44       _dm_statusbar              1005eb44     g_spawn.obj
 0003:00001b48       _VEC_UP                    1005eb48     g_utils.obj
 0003:00001b54       _MOVEDIR_UP                1005eb54     g_utils.obj
 0003:00001b60       _VEC_DOWN                  1005eb60     g_utils.obj
 0003:00001b6c       _MOVEDIR_DOWN              1005eb6c     g_utils.obj
 0003:00001cd8       __fltused                  1005ecd8     LIBCMTD:fpinit.obj
 0003:00001cdc       __ldused                   1005ecdc     LIBCMTD:fpinit.obj
 0003:00001ce0       __FPinit                   1005ece0     LIBCMTD:fpinit.obj
 0003:00001ce4       __FPmtinit                 1005ece4     LIBCMTD:fpinit.obj
 0003:00001ce8       __FPmtterm                 1005ece8     LIBCMTD:fpinit.obj
 0003:00001d00       __crtDbgFlag               1005ed00     LIBCMTD:dbgheap.obj
 0003:00001d08       __crtBreakAlloc            1005ed08     LIBCMTD:dbgheap.obj
 0003:00001d60       __aexit_rtn                1005ed60     LIBCMTD:dllcrt0.obj
 0003:00001d64       __cfltcvt_tab              1005ed64     LIBCMTD:cmiscdat.obj
 0003:00001d7c       ___tlsindex                1005ed7c     LIBCMTD:tidtable.obj
 0003:00001d80       ___nullstring              1005ed80     LIBCMTD:output.obj
 0003:00001d84       ___wnullstring             1005ed84     LIBCMTD:output.obj
 0003:00001d88       __crtAssertBusy            1005ed88     LIBCMTD:dbgrpt.obj
 0003:00001d8c       __CrtDbgMode               1005ed8c     LIBCMTD:dbgrpt.obj
 0003:00001d98       __CrtDbgFile               1005ed98     LIBCMTD:dbgrpt.obj
 0003:00001db0       __pctype                   1005edb0     LIBCMTD:ctype.obj
 0003:00001db4       __pwctype                  1005edb4     LIBCMTD:ctype.obj
 0003:00001db8       __ctype                    1005edb8     LIBCMTD:ctype.obj
 0003:00001fbc       ___mb_cur_max              1005efbc     LIBCMTD:nlsdata1.obj
 0003:00001fc0       ___decimal_point           1005efc0     LIBCMTD:nlsdata1.obj
 0003:00001fc4       ___decimal_point_length    1005efc4     LIBCMTD:nlsdata1.obj
 0003:000020a8       __d_inf                    1005f0a8     LIBCMTD:util.obj
 0003:000020b0       __d_ind                    1005f0b0     LIBCMTD:util.obj
 0003:000020b8       __d_max                    1005f0b8     LIBCMTD:util.obj
 0003:000020c0       __d_min                    1005f0c0     LIBCMTD:util.obj
 0003:000020c8       __d_mzero                  1005f0c8     LIBCMTD:util.obj
 0003:000020e8       __locktable                1005f0e8     LIBCMTD:mlock.obj
 0003:000021a8       __pfnAllocHook             1005f1a8     LIBCMTD:dbghook.obj
 0003:000021ac       __amblksiz                 1005f1ac     LIBCMTD:heapinit.obj
 0003:000021b0       ___sbh_threshold           1005f1b0     LIBCMTD:sbheap.obj
 0003:000021c0       __indefinite               1005f1c0     LIBCMTD:87disp.obj
 0003:000021ca       __piby2                    1005f1ca     LIBCMTD:87disp.obj
 0003:000021f0       __timezone                 1005f1f0     LIBCMTD:timeset.obj
 0003:000021f4       __daylight                 1005f1f4     LIBCMTD:timeset.obj
 0003:000021f8       __dstbias                  1005f1f8     LIBCMTD:timeset.obj
 0003:0000227c       __tzname                   1005f27c     LIBCMTD:timeset.obj
 0003:000022a8       __iob                      1005f2a8     LIBCMTD:_file.obj
 0003:00002540       __OP_ATAN2jmptab           1005f540     LIBCMTD:87triga.obj
 0003:000026a0       ___lc_category             1005f6a0     LIBCMTD:setlocal.obj
 0003:000026e8       ___badioinfo               1005f6e8     LIBCMTD:ioinit.obj
 0003:000027d0       __XcptActTab               1005f7d0     LIBCMTD:winxfltr.obj
 0003:00002848       __First_FPE_Indx           1005f848     LIBCMTD:winxfltr.obj
 0003:0000284c       __Num_FPE                  1005f84c     LIBCMTD:winxfltr.obj
 0003:00002850       __XcptActTabSize           1005f850     LIBCMTD:winxfltr.obj
 0003:00002854       __XcptActTabCount          1005f854     LIBCMTD:winxfltr.obj
 0003:000029c8       __matherr_flag             1005f9c8     LIBCMTD:matherr.obj
 0003:000029cc       __lpdays                   1005f9cc     LIBCMTD:days.obj
 0003:00002a00       __days                     1005fa00     LIBCMTD:days.obj
 0003:00002a40       ___rgLocInfo               1005fa40     LIBCMTD:getqloc.obj
 0003:00002ee4       ___rglangidNotDefault      1005fee4     LIBCMTD:getqloc.obj
 0003:00002ef8       ___rg_country              1005fef8     LIBCMTD:getqloc.obj
 0003:00002fb0       ___rg_language             1005ffb0     LIBCMTD:getqloc.obj
 0003:000032b0       __NLG_Destination          100602b0     LIBCMTD:exsup.obj
 0003:000032c0       ___lc_time_curr            100602c0     LIBCMTD:strftime.obj
 0003:000032c8       ___lc_time_c               100602c8     LIBCMTD:strftime.obj
 0003:00003378       ___lconv_static_decimal    10060378     LIBCMTD:lconv.obj
 0003:00003380       ___lconv_c                 10060380     LIBCMTD:lconv.obj
 0003:000033b0       ___lconv                   100603b0     LIBCMTD:lconv.obj
 0003:000033c0       __pow10pos                 100603c0     LIBCMTD:constpow.obj
 0003:00003520       __pow10neg                 10060520     LIBCMTD:constpow.obj
 0003:00003aa0       _trail_active              10060aa0     p_trail.obj
 0003:0000432c       _vec3_origin               1006132c     q_shared.obj
 0003:00004338       ___fastflag                10061338     LIBCMTD:fpinit.obj
 0003:0000433c       __adjust_fdiv              1006133c     LIBCMTD:fpinit.obj
 0003:00004374       __aenvptr                  10061374     LIBCMTD:dllcrt0.obj
 0003:00004378       __wenvptr                  10061378     LIBCMTD:dllcrt0.obj
 0003:0000437c       ___error_mode              1006137c     LIBCMTD:dllcrt0.obj
 0003:00004380       ___app_type                10061380     LIBCMTD:dllcrt0.obj
 0003:00004388       __newmode                  10061388     LIBCMTD:_newmode.obj
 0003:0000438c       ?_pnhHeap@@3P6AHI@ZA       1006138c     LIBCMTD:handler.obj
 0003:000043f0       __umaskval                 100613f0     LIBCMTD:crt0dat.obj
 0003:000043f4       __osver                    100613f4     LIBCMTD:crt0dat.obj
 0003:000043f8       __winver                   100613f8     LIBCMTD:crt0dat.obj
 0003:000043fc       __winmajor                 100613fc     LIBCMTD:crt0dat.obj
 0003:00004400       __winminor                 10061400     LIBCMTD:crt0dat.obj
 0003:00004404       ___argc                    10061404     LIBCMTD:crt0dat.obj
 0003:00004408       ___argv                    10061408     LIBCMTD:crt0dat.obj
 0003:0000440c       ___wargv                   1006140c     LIBCMTD:crt0dat.obj
 0003:00004410       __environ                  10061410     LIBCMTD:crt0dat.obj
 0003:00004414       ___initenv                 10061414     LIBCMTD:crt0dat.obj
 0003:00004418       __wenviron                 10061418     LIBCMTD:crt0dat.obj
 0003:0000441c       ___winitenv                1006141c     LIBCMTD:crt0dat.obj
 0003:00004420       __pgmptr                   10061420     LIBCMTD:crt0dat.obj
 0003:00004424       __wpgmptr                  10061424     LIBCMTD:crt0dat.obj
 0003:00004428       __exitflag                 10061428     LIBCMTD:crt0dat.obj
 0003:0000442c       __C_Termination_Done       1006142c     LIBCMTD:crt0dat.obj
 0003:00004430       __C_Exit_Done              10061430     LIBCMTD:crt0dat.obj
 0003:0000451c       __cflush                   1006151c     LIBCMTD:_file.obj
 0003:00004520       __stdbuf                   10061520     LIBCMTD:_sftbuf.obj
 0003:00004528       ___lc_handle               10061528     LIBCMTD:nlsdata2.obj
 0003:00004540       ___lc_codepage             10061540     LIBCMTD:nlsdata2.obj
 0003:00004544       ___lc_collate_cp           10061544     LIBCMTD:nlsdata2.obj
 0003:0000465c       __adbgmsg                  1006165c     LIBCMTD:crt0msg.obj
 0003:00004684       __commode                  10061684     LIBCMTD:ncommode.obj
 0003:00004688       ___lc_time_intl            10061688     LIBCMTD:inittime.obj
 0003:000046a4       ___lc_id                   100616a4     LIBCMTD:nlsdata3.obj
 0003:000046f4       __fmode                    100616f4     LIBCMTD:txtmode.obj
 0003:00004700       ___lconv_static_null       10061700     LIBCMTD:lconv.obj
 0003:00004720       _corners                   10061720     <common>
 0003:00004738       _i                         10061738     <common>
 0003:0000473c       __LittleFloat              1006173c     <common>
 0003:00004740       __BigFloat                 10061740     <common>
 0003:00004744       __LittleLong               10061744     <common>
 0003:00004748       __LittleShort              10061748     <common>
 0003:0000474c       __BigShort                 1006174c     <common>
 0003:00004750       __BigLong                  10061750     <common>
 0003:00004760       _com_token                 10061760     <common>
 0003:000047e0       _paged_total               100617e0     <common>
 0003:000047e4       _bigendien                 100617e4     <common>
 0003:000047e8       _xyspeed                   100617e8     <common>
 0003:000047ec       _bobmove                   100617ec     <common>
 0003:000047f0       _bobcycle                  100617f0     <common>
 0003:000047f4       _bobfracsin                100617f4     <common>
 0003:00004800       _trail                     10061800     <common>
 0003:00004820       _trail_head                10061820     <common>
 0003:00004824       _pm_passent                10061824     <common>
 0003:00004828       _c_yes                     10061828     <common>
 0003:0000482c       _c_no                      1006182c     <common>
 0003:00004830       _numipfilters              10061830     <common>
 0003:00004840       _ipfilters                 10061840     <common>
 0003:00006840       _pushed_p                  10063840     <common>
 0003:00006860       _pushed                    10063860     <common>
 0003:0000e860       _obstacle                  1006b860     <common>
 0003:0000e864       _meansOfDeath              1006b864     <common>
 0003:0000e868       _dedicated                 1006b868     <common>
 0003:0000e86c       _g_select_empty            1006b86c     <common>
 0003:0000e870       _flood_msgs                1006b870     <common>
 0003:0000e874       _deathmatch                1006b874     <common>
 0003:0000e880       _globals                   1006b880     <common>
 0003:0000e8d0       _sv_maplist                1006b8d0     <common>
 0003:0000e8d4       _sv_rollspeed              1006b8d4     <common>
 0003:0000e8d8       _filterban                 1006b8d8     <common>
 0003:0000e8dc       _run_pitch                 1006b8dc     <common>
 0003:0000e8e0       _fraglimit                 1006b8e0     <common>
 0003:0000e8e4       _sv_maxvelocity            1006b8e4     <common>
 0003:0000e8e8       _flood_persecond           1006b8e8     <common>
 0003:0000e8ec       _gun_x                     1006b8ec     <common>
 0003:0000e8f0       _gun_y                     1006b8f0     <common>
 0003:0000e8f4       _gun_z                     1006b8f4     <common>
 0003:0000e8f8       _bob_pitch                 1006b8f8     <common>
 0003:0000e8fc       _instantweap               1006b8fc     <common>
 0003:0000e900       _bob_roll                  1006b900     <common>
 0003:0000e904       _snd_fry                   1006b904     <common>
 0003:0000e908       _sv_cheats                 1006b908     <common>
 0003:0000e920       _gi                        1006b920     <common>
 0003:0000e9e0       _st                        1006b9e0     <common>
 0003:0000ea24       _g_edicts                  1006ba24     <common>
 0003:0000ea28       _password                  1006ba28     <common>
 0003:0000ea2c       _flood_waitdelay           1006ba2c     <common>
 0003:0000ea30       _maxentities               1006ba30     <common>
 0003:0000ea40       _level                     1006ba40     <common>
 0003:0000ebb0       _dmflags                   1006bbb0     <common>
 0003:0000ebb4       _sm_meat_index             1006bbb4     <common>
 0003:0000ebb8       _skill                     1006bbb8     <common>
 0003:0000ebbc       _sv_gravity                1006bbbc     <common>
 0003:0000ebc0       _run_roll                  1006bbc0     <common>
 0003:0000ebc4       _timelimit                 1006bbc4     <common>
 0003:0000ebc8       _coop                      1006bbc8     <common>
 0003:0000ebcc       _sv_rollangle              1006bbcc     <common>
 0003:0000ebe0       _game                      1006bbe0     <common>
 0003:0000f1fc       _bob_up                    1006c1fc     <common>
 0003:0000f200       _capturelimit              1006c200     <common>
 0003:0000f204       _maxclients                1006c204     <common>
 0003:0000f208       _warn_unbalanced           1006c208     <common>
 0003:0000f20c       _ctf                       1006c20c     <common>
 0003:0000f210       _matchtime                 1006c210     <common>
 0003:0000f214       _warp_list                 1006c214     <common>
 0003:0000f218       _competition               1006c218     <common>
 0003:0000f21c       _matchstarttime            1006c21c     <common>
 0003:0000f220       _imageindex_i_ctf1t        1006c220     <common>
 0003:0000f224       _imageindex_i_ctf2t        1006c224     <common>
 0003:0000f228       _imageindex_i_ctf1d        1006c228     <common>
 0003:0000f22c       _imageindex_i_ctf2d        1006c22c     <common>
 0003:0000f240       _ctfgame                   1006c240     <common>
 0003:00012ba0       _imageindex_sbfctf2        1006fba0     <common>
 0003:00012ba4       _imageindex_sbfctf1        1006fba4     <common>
 0003:00012ba8       _matchlock                 1006fba8     <common>
 0003:00012bac       _imageindex_i_ctf2         1006fbac     <common>
 0003:00012bb0       _imageindex_i_ctf1         1006fbb0     <common>
 0003:00012bb4       _admin_password            1006fbb4     <common>
 0003:00012bb8       _imageindex_i_ctfj         1006fbb8     <common>
 0003:00012bbc       _imageindex_ctfsb2         1006fbbc     <common>
 0003:00012bc0       _imageindex_ctfsb1         1006fbc0     <common>
 0003:00012bc4       _ctf_forcejoin             1006fbc4     <common>
 0003:00012bc8       _electpercentage           1006fbc8     <common>
 0003:00012bcc       _matchsetuptime            1006fbcc     <common>
 0003:00012bd0       _allow_admin               1006fbd0     <common>
 0003:00012bd4       _enemy_vis                 1006fbd4     <common>
 0003:00012bd8       _enemy_yaw                 1006fbd8     <common>
 0003:00012bdc       _enemy_range               1006fbdc     <common>
 0003:00012be0       _enemy_infront             1006fbe0     <common>
 0003:00012be4       ___alternate_form          1006fbe4     <common>
 0003:00012be8       ___no_lead_zeros           1006fbe8     <common>
 0003:00012bec       ___mbcodepage              1006fbec     <common>
 0003:00012bf0       ___mbulinfo                1006fbf0     <common>
 0003:00012bfc       ___ismbcodepage            1006fbfc     <common>
 0003:00012c00       __mbcasemap                1006fc00     <common>
 0003:00012d00       __mbctype                  1006fd00     <common>
 0003:00012e04       ___mblcid                  1006fe04     <common>
 0003:00012e20       ___pioinfo                 1006fe20     <common>
 0003:00012f20       __nhandle                  1006ff20     <common>
 0003:00012f24       ___setlc_active            1006ff24     <common>
 0003:00012f28       ___unguarded_readlc_active 1006ff28     <common>
 0003:00012f2c       ___piob                    1006ff2c     <common>
 0003:00012f40       __bufin                    1006ff40     <common>
 0003:00013f40       __nstream                  10070f40     <common>
 0003:00013f44       ___sbh_sizeHeaderList      10070f44     <common>
 0003:00013f48       ___sbh_indGroupDefer       10070f48     <common>
 0003:00013f4c       ___sbh_pHeaderScan         10070f4c     <common>
 0003:00013f50       ___sbh_pHeaderDefer        10070f50     <common>
 0003:00013f54       ___sbh_cntHeaderList       10070f54     <common>
 0003:00013f58       ___sbh_pHeaderList         10070f58     <common>
 0003:00013f5c       ___env_initialized         10070f5c     <common>
 0003:00013f60       ___mbctype_initialized     10070f60     <common>
 0003:00013f64       ___onexitend               10070f64     <common>
 0003:00013f68       ___onexitbegin             10070f68     <common>
 0003:00013f6c       __crtheap                  10070f6c     <common>
 0003:00013f70       __pfnReportHook            10070f70     <common>
 0003:00013f74       __acmdln                   10070f74     <common>
 0003:00013f78       __pRawDllMain              10070f78     <common>
 0003:00013f7c       __pfnDumpClient            10070f7c     <common>

 entry point at        0001:0003bd80

 Static symbols

 0001:00032c40       _Weapon_Generic2           10033c40 f   p_weapon.obj
 0001:0002a210       _SP_CreateCoopSpots        1002b210 f   p_client.obj
 0001:0002a510       _SP_FixCoopSpots           1002b510 f   p_client.obj
 0001:00026d30       _fire_lead                 10027d30 f   g_weapon.obj
 0001:00027770       _check_dodge               10028770 f   g_weapon.obj
 0001:00027b00       _Grenade_Explode           10028b00 f   g_weapon.obj
 0001:00027de0       _Grenade_Touch             10028de0 f   g_weapon.obj
 0001:00022a00       _StringToFilter            10023a00 f   g_svcmds.obj
 0001:0001d270       _M_FliesOn                 1001e270 f   g_monster.obj
 0001:0001d2e0       _M_FliesOff                1001e2e0 f   g_monster.obj
 0001:00019330       _light_use                 1001a330 f   g_misc.obj
 0001:0001c670       _func_clock_reset          1001d670 f   g_misc.obj
 0001:0001c6f0       _func_clock_format_countdown 1001d6f0 f   g_misc.obj
 0001:000167e0       _drop_temp_touch           100177e0 f   g_items.obj
 0001:00016820       _drop_make_touchable       10017820 f   g_items.obj
 0001:00006920       _loc_CanSee                10007920 f   g_ctf.obj
 0001:00006a30       _loc_buildboxpoints        10007a30 f   g_ctf.obj
 0001:000073c0       _CTFDropFlagTouch          100083c0 f   g_ctf.obj
 0001:00007420       _CTFDropFlagThink          10008420 f   g_ctf.obj
 0001:00007720       _CTFFlagThink              10008720 f   g_ctf.obj
 0001:00008010       _CTFSetIDView              10009010 f   g_ctf.obj
 0001:0000a000       _TechThink                 1000b000 f   g_ctf.obj
 0001:0000a070       _FindTechSpawn             1000b070 f   g_ctf.obj
 0001:0000a220       _SpawnTech                 1000b220 f   g_ctf.obj
 0001:0000a480       _SpawnTechs                1000b480 f   g_ctf.obj
 0001:0000b0d0       _CTFSay_Team_Location      1000c0d0 f   g_ctf.obj
 0001:0000b570       _loc_findradius            1000c570 f   g_ctf.obj
 0001:0000b650       _CTFSay_Team_Armor         1000c650 f   g_ctf.obj
 0001:0000b780       _CTFSay_Team_Health        1000c780 f   g_ctf.obj
 0001:0000b7d0       _CTFSay_Team_Tech          1000c7d0 f   g_ctf.obj
 0001:0000b870       _CTFSay_Team_Weapon        1000c870 f   g_ctf.obj
 0001:0000b8c0       _CTFSay_Team_Sight         1000c8c0 f   g_ctf.obj
 0001:0000bb20       _misc_ctf_banner_think     1000cb20 f   g_ctf.obj
 0001:0000cf00       _SetLevelName              1000df00 f   g_ctf.obj
 0001:0000ddc0       _old_teleporter_touch      1000edc0 f   g_ctf.obj
 0001:00005590       _CheckPowerArmor           10006590 f   g_combat.obj
 0001:000057c0       _CheckArmor                100067c0 f   g_combat.obj
 0001:000521d0       _findenv                   100531d0 f   LIBCMTD:setenv.obj
 0001:00052250       _copy_environ              10053250 f   LIBCMTD:setenv.obj
 0001:00051ea0       _strncnt                   10052ea0 f   LIBCMTD:a_cmp.obj
 0001:000519bc       lupe                       100529bc f   LIBCMTD:strnicmp.obj
 0001:000519d4       skip1                      100529d4 f   LIBCMTD:strnicmp.obj
 0001:000519de       skip2                      100529de f   LIBCMTD:strnicmp.obj
 0001:000519e5       eject                      100529e5 f   LIBCMTD:strnicmp.obj
 0001:000519ef       differ                     100529ef f   LIBCMTD:strnicmp.obj
 0001:00051a01       notclocale                 10052a01 f   LIBCMTD:strnicmp.obj
 0001:00051a15       do_lock                    10052a15 f   LIBCMTD:strnicmp.obj
 0001:00051a2e       end_lock                   10052a2e f   LIBCMTD:strnicmp.obj
 0001:00051a34       lupe2                      10052a34 f   LIBCMTD:strnicmp.obj
 0001:00051a5f       eject2                     10052a5f f   LIBCMTD:strnicmp.obj
 0001:00051a65       differ2                    10052a65 f   LIBCMTD:strnicmp.obj
 0001:00051a6e       toend2                     10052a6e f   LIBCMTD:strnicmp.obj
 0001:00051a7c       do_unlock                  10052a7c f   LIBCMTD:strnicmp.obj
 0001:00051a8a       end_unlock                 10052a8a f   LIBCMTD:strnicmp.obj
 0001:00051a8a       toend                      10052a8a f   LIBCMTD:strnicmp.obj
 0001:00050790       __expandtime               10051790 f   LIBCMTD:strftime.obj
 0001:00050db0       __store_str                10051db0 f   LIBCMTD:strftime.obj
 0001:00050e00       __store_num                10051e00 f   LIBCMTD:strftime.obj
 0001:00050eb0       __store_number             10051eb0 f   LIBCMTD:strftime.obj
 0001:00050f60       __store_winword            10051f60 f   LIBCMTD:strftime.obj
 0001:0004f590       _gu_return                 10050590 f   LIBCMTD:exsup.obj
 0001:0004f598       __unwind_handler           10050598 f   LIBCMTD:exsup.obj
 0001:0004e8a0       _getSystemCP               1004f8a0 f   LIBCMTD:mbctype.obj
 0001:0004e900       _CPtoLCID                  1004f900 f   LIBCMTD:mbctype.obj
 0001:0004e980       _setSBCS                   1004f980 f   LIBCMTD:mbctype.obj
 0001:0004ea00       _setSBUpLow                1004fa00 f   LIBCMTD:mbctype.obj
 0001:0004e500       _strncnt                   1004f500 f   LIBCMTD:a_map.obj
 0001:0004d650       _TranslateName             1004e650 f   LIBCMTD:getqloc.obj
 0001:0004d6e0       _GetLcidFromLangCountry    1004e6e0 f   LIBCMTD:getqloc.obj
 0001:0004d7a0       _LangCountryEnumProc@4     1004e7a0 f   LIBCMTD:getqloc.obj
 0001:0004dad0       _GetLcidFromLanguage       1004ead0 f   LIBCMTD:getqloc.obj
 0001:0004db50       _LanguageEnumProc@4        1004eb50 f   LIBCMTD:getqloc.obj
 0001:0004dc70       _GetLcidFromCountry        1004ec70 f   LIBCMTD:getqloc.obj
 0001:0004dcc0       _CountryEnumProc@4         1004ecc0 f   LIBCMTD:getqloc.obj
 0001:0004dd70       _GetLcidFromDefault        1004ed70 f   LIBCMTD:getqloc.obj
 0001:0004dda0       _ProcessCodePage           1004eda0 f   LIBCMTD:getqloc.obj
 0001:0004de40       _TestDefaultCountry        1004ee40 f   LIBCMTD:getqloc.obj
 0001:0004de90       _TestDefaultLanguage       1004ee90 f   LIBCMTD:getqloc.obj
 0001:0004df20       _IsThisWindowsNT           1004ef20 f   LIBCMTD:getqloc.obj
 0001:0004df70       _crtGetLocaleInfoA@16      1004ef70 f   LIBCMTD:getqloc.obj
 0001:0004e100       _LcidFromHexString         1004f100 f   LIBCMTD:getqloc.obj
 0001:0004e180       _GetPrimaryLen             1004f180 f   LIBCMTD:getqloc.obj
 0001:0004d424       listnext                   1004e424 f   LIBCMTD:strpbrk.obj
 0001:0004d431       listdone                   1004e431 f   LIBCMTD:strpbrk.obj
 0001:0004d434       dstnext                    1004e434 f   LIBCMTD:strpbrk.obj
 0001:0004d444       dstdone                    1004e444 f   LIBCMTD:strpbrk.obj
 0001:0004d3e4       listnext                   1004e3e4 f   LIBCMTD:strcspn.obj
 0001:0004d3f1       listdone                   1004e3f1 f   LIBCMTD:strcspn.obj
 0001:0004d3f8       dstnext                    1004e3f8 f   LIBCMTD:strcspn.obj
 0001:0004d406       dstdone                    1004e406 f   LIBCMTD:strcspn.obj
 0001:0004ccf0       __get_lc_lconv             1004dcf0 f   LIBCMTD:initmon.obj
 0001:0004cf00       _fix_grouping              1004df00 f   LIBCMTD:initmon.obj
 0001:0004cf80       __free_lc_lconv            1004df80 f   LIBCMTD:initmon.obj
 0001:0004cb40       _fix_grouping              1004db40 f   LIBCMTD:initnum.obj
 0001:0004bff0       __get_lc_time              1004cff0 f   LIBCMTD:inittime.obj
 0001:0004c580       __free_lc_time             1004d580 f   LIBCMTD:inittime.obj
 0001:0004bd50       MORE32                     1004cd50 f   LIBCMTD:llshl.obj
 0001:0004bd5a       RETZERO                    1004cd5a f   LIBCMTD:llshl.obj
 0001:00049590       _ctrlevent_capture@4       1004a590 f   LIBCMTD:winsig.obj
 0001:00049870       _siglookup                 1004a870 f   LIBCMTD:winsig.obj
 0001:00048ec0       _xtoa                      10049ec0 f   LIBCMTD:xtoa.obj
 0001:00049040       _x64toa@20                 1004a040 f   LIBCMTD:xtoa.obj
 0001:00048e11       L1                         10049e11 f   LIBCMTD:ullrem.obj
 0001:00048e1f       L3                         10049e1f f   LIBCMTD:ullrem.obj
 0001:00048e4a       L4                         10049e4a f   LIBCMTD:ullrem.obj
 0001:00048e52       L5                         10049e52 f   LIBCMTD:ullrem.obj
 0001:00048e61       L2                         10049e61 f   LIBCMTD:ullrem.obj
 0001:00048da2       L1                         10049da2 f   LIBCMTD:ulldiv.obj
 0001:00048db0       L3                         10049db0 f   LIBCMTD:ulldiv.obj
 0001:00048dde       L4                         10049dde f   LIBCMTD:ulldiv.obj
 0001:00048ddf       L5                         10049ddf f   LIBCMTD:ulldiv.obj
 0001:00048de3       L2                         10049de3 f   LIBCMTD:ulldiv.obj
 0001:000489a0       _xcptlookup                100499a0 f   LIBCMTD:winxfltr.obj
 0001:00048500       LeadUp1                    10049500 f   LIBCMTD:memmove.obj
 0001:0004852c       LeadUp2                    1004952c f   LIBCMTD:memmove.obj
 0001:00048550       LeadUp3                    10049550 f   LIBCMTD:memmove.obj
 0001:000485cf       UnwindUp0                  100495cf f   LIBCMTD:memmove.obj
 0001:000485bc       UnwindUp1                  100495bc f   LIBCMTD:memmove.obj
 0001:000485b4       UnwindUp2                  100495b4 f   LIBCMTD:memmove.obj
 0001:000485ac       UnwindUp3                  100495ac f   LIBCMTD:memmove.obj
 0001:000485a4       UnwindUp4                  100495a4 f   LIBCMTD:memmove.obj
 0001:0004859c       UnwindUp5                  1004959c f   LIBCMTD:memmove.obj
 0001:00048594       UnwindUp6                  10049594 f   LIBCMTD:memmove.obj
 0001:0004858c       UnwindUp7                  1004958c f   LIBCMTD:memmove.obj
 0001:000485e8       TrailUp0                   100495e8 f   LIBCMTD:memmove.obj
 0001:000485f0       TrailUp1                   100495f0 f   LIBCMTD:memmove.obj
 0001:000485fc       TrailUp2                   100495fc f   LIBCMTD:memmove.obj
 0001:00048610       TrailUp3                   10049610 f   LIBCMTD:memmove.obj
 0001:00048688       LeadDown1                  10049688 f   LIBCMTD:memmove.obj
 0001:000486a8       LeadDown2                  100496a8 f   LIBCMTD:memmove.obj
 0001:000486d0       LeadDown3                  100496d0 f   LIBCMTD:memmove.obj
 0001:00048724       UnwindDown7                10049724 f   LIBCMTD:memmove.obj
 0001:0004872c       UnwindDown6                1004972c f   LIBCMTD:memmove.obj
 0001:00048734       UnwindDown5                10049734 f   LIBCMTD:memmove.obj
 0001:0004873c       UnwindDown4                1004973c f   LIBCMTD:memmove.obj
 0001:00048744       UnwindDown3                10049744 f   LIBCMTD:memmove.obj
 0001:0004874c       UnwindDown2                1004974c f   LIBCMTD:memmove.obj
 0001:00048754       UnwindDown1                10049754 f   LIBCMTD:memmove.obj
 0001:00048767       UnwindDown0                10049767 f   LIBCMTD:memmove.obj
 0001:00048780       TrailDown0                 10049780 f   LIBCMTD:memmove.obj
 0001:00048788       TrailDown1                 10049788 f   LIBCMTD:memmove.obj
 0001:00048798       TrailDown2                 10049798 f   LIBCMTD:memmove.obj
 0001:000487ac       TrailDown3                 100497ac f   LIBCMTD:memmove.obj
 0001:000484b0       CopyUp                     100494b0 f   LIBCMTD:memmove.obj
 0001:000484cc       CopyLeadUp                 100494cc f   LIBCMTD:memmove.obj
 0001:000484e4       ByteCopyUp                 100494e4 f   LIBCMTD:memmove.obj
 0001:000484ec       CopyUnwindUp               100494ec f   LIBCMTD:memmove.obj
 0001:00048628       CopyDown                   10049628 f   LIBCMTD:memmove.obj
 0001:00048650       CopyUnwindDown             10049650 f   LIBCMTD:memmove.obj
 0001:0004865c       CopyLeadDown               1004965c f   LIBCMTD:memmove.obj
 0001:00048674       ByteCopyDown               10049674 f   LIBCMTD:memmove.obj
 0001:00047630       __abstract_cw              10048630 f   LIBCMTD:ieee87.obj
 0001:000477b0       __hw_cw                    100487b0 f   LIBCMTD:ieee87.obj
 0001:00047910       __abstract_sw              10048910 f   LIBCMTD:ieee87.obj
 0001:00046c60       _parse_cmdline             10047c60 f   LIBCMTD:stdargv.obj
 0001:00045e20       __setlocale_set_cat        10046e20 f   LIBCMTD:setlocal.obj
 0001:00045fc0       __setlocale_get_all        10046fc0 f   LIBCMTD:setlocal.obj
 0001:0004572c       fFATN2                     1004672c f   LIBCMTD:87triga.obj
 0001:000457a2       _rtforatnby0               100467a2 f   LIBCMTD:87triga.obj
 0001:00045785       _rtforatn20                10046785 f   LIBCMTD:87triga.obj
 0001:000453f0       __hextodec                 100463f0 f   LIBCMTD:input.obj
 0001:00045450       __inc                      10046450 f   LIBCMTD:input.obj
 0001:000454b0       __un_inc                   100464b0 f   LIBCMTD:input.obj
 0001:000454d0       __whiteout                 100464d0 f   LIBCMTD:input.obj
 0001:00043060       _flsall                    10044060 f   LIBCMTD:fflush.obj
 0001:00041de0       __tzset_lk                 10042de0 f   LIBCMTD:tzset.obj
 0001:000421c0       __isindst_lk               100431c0 f   LIBCMTD:tzset.obj
 0001:000424c0       _cvtdate                   100434c0 f   LIBCMTD:tzset.obj
 0001:0003fbe0       _doexit                    10040be0 f   LIBCMTD:crt0dat.obj
 0001:0003fcf0       __initterm                 10040cf0 f   LIBCMTD:crt0dat.obj
 0001:0003eef0       __get_fname                1003fef0 f   LIBCMTD:fpexcept.obj
 0001:0003e319       hard                       1003f319 f   LIBCMTD:llmul.obj
 0001:0003df30       _CrtMessageWindow          1003ef30 f   LIBCMTD:dbgrpt.obj
 0001:0003d920       _write_char                1003e920 f   LIBCMTD:output.obj
 0001:0003d9a0       _write_multi_char          1003e9a0 f   LIBCMTD:output.obj
 0001:0003d9e0       _write_string              1003e9e0 f   LIBCMTD:output.obj
 0001:0003da30       _get_int_arg               1003ea30 f   LIBCMTD:output.obj
 0001:0003da50       _get_int64_arg             1003ea50 f   LIBCMTD:output.obj
 0001:0003da70       _get_short_arg             1003ea70 f   LIBCMTD:output.obj
 0001:0003c220       __cftoe2                   1003d220 f   LIBCMTD:cvt.obj
 0001:0003c400       __cftof2                   1003d400 f   LIBCMTD:cvt.obj
 0001:0003c690       __shift                    1003d690 f   LIBCMTD:cvt.obj
 0001:0003bb8c       chk_null                   1003cb8c f   LIBCMTD:stricmp.obj
 0001:0003bbbe       done                       1003cbbe f   LIBCMTD:stricmp.obj
 0001:0003bbc3       notclocale                 1003cbc3 f   LIBCMTD:stricmp.obj
 0001:0003bbd7       do_lock                    1003cbd7 f   LIBCMTD:stricmp.obj
 0001:0003bbec       end_lock                   1003cbec f   LIBCMTD:stricmp.obj
 0001:0003bbf4       chk_null2                  1003cbf4 f   LIBCMTD:stricmp.obj
 0001:0003bc1f       done2                      1003cc1f f   LIBCMTD:stricmp.obj
 0001:0003bc2f       do_unlock                  1003cc2f f   LIBCMTD:stricmp.obj
 0001:0003bc39       end_unlock                 1003cc39 f   LIBCMTD:stricmp.obj
 0001:0003bc3b       doret                      1003cc3b f   LIBCMTD:stricmp.obj
 0001:0003baed       main_loop                  1003caed f   LIBCMTD:memcmp.obj
 0001:0003bb0a       done                       1003cb0a f   LIBCMTD:memcmp.obj
 0001:0003bb0c       retnull                    1003cb0c f   LIBCMTD:memcmp.obj
 0001:0003bb0d       dwords                     1003cb0d f   LIBCMTD:memcmp.obj
 0001:0003bb35       difference_in_tail         1003cb35 f   LIBCMTD:memcmp.obj
 0001:0003bb3a       not_equal                  1003cb3a f   LIBCMTD:memcmp.obj
 0001:0003bb42       tail_loop_start            1003cb42 f   LIBCMTD:memcmp.obj
 0001:0003bb69       tail_done                  1003cb69 f   LIBCMTD:memcmp.obj
 0001:0003b90a       okay                       1003c90a f   LIBCMTD:strncmp.obj
 0001:0003b91d       firstbig                   1003c91d f   LIBCMTD:strncmp.obj
 0001:0003b91f       lastbig                    1003c91f f   LIBCMTD:strncmp.obj
 0001:0003b921       toend                      1003c921 f   LIBCMTD:strncmp.obj
 0001:0003b868       findnext                   1003c868 f   LIBCMTD:strstr.obj
 0001:0003b879       loop_start                 1003c879 f   LIBCMTD:strstr.obj
 0001:0003b87c       in_loop                    1003c87c f   LIBCMTD:strstr.obj
 0001:0003b884       not_found                  1003c884 f   LIBCMTD:strstr.obj
 0001:0003b88a       first_char_found           1003c88a f   LIBCMTD:strstr.obj
 0001:0003b891       two_first_chars_equal      1003c891 f   LIBCMTD:strstr.obj
 0001:0003b894       compare_loop               1003c894 f   LIBCMTD:strstr.obj
 0001:0003b8b7       strchr_call                1003c8b7 f   LIBCMTD:strstr.obj
 0001:0003b8c3       match                      1003c8c3 f   LIBCMTD:strstr.obj
 0001:0003b8ca       empty_str2                 1003c8ca f   LIBCMTD:strstr.obj
 0001:00038c80       _realloc_help              10039c80 f   LIBCMTD:dbgheap.obj
 0001:000398c0       _CheckBytes                1003a8c0 f   LIBCMTD:dbgheap.obj
 0001:0003a4b0       __printMemBlockData        1003b4b0 f   LIBCMTD:dbgheap.obj
 0001:000384c0       LeadUp1                    100394c0 f   LIBCMTD:memcpy.obj
 0001:000384ec       LeadUp2                    100394ec f   LIBCMTD:memcpy.obj
 0001:00038510       LeadUp3                    10039510 f   LIBCMTD:memcpy.obj
 0001:0003858f       UnwindUp0                  1003958f f   LIBCMTD:memcpy.obj
 0001:0003857c       UnwindUp1                  1003957c f   LIBCMTD:memcpy.obj
 0001:00038574       UnwindUp2                  10039574 f   LIBCMTD:memcpy.obj
 0001:0003856c       UnwindUp3                  1003956c f   LIBCMTD:memcpy.obj
 0001:00038564       UnwindUp4                  10039564 f   LIBCMTD:memcpy.obj
 0001:0003855c       UnwindUp5                  1003955c f   LIBCMTD:memcpy.obj
 0001:00038554       UnwindUp6                  10039554 f   LIBCMTD:memcpy.obj
 0001:0003854c       UnwindUp7                  1003954c f   LIBCMTD:memcpy.obj
 0001:000385a8       TrailUp0                   100395a8 f   LIBCMTD:memcpy.obj
 0001:000385b0       TrailUp1                   100395b0 f   LIBCMTD:memcpy.obj
 0001:000385bc       TrailUp2                   100395bc f   LIBCMTD:memcpy.obj
 0001:000385d0       TrailUp3                   100395d0 f   LIBCMTD:memcpy.obj
 0001:00038648       LeadDown1                  10039648 f   LIBCMTD:memcpy.obj
 0001:00038668       LeadDown2                  10039668 f   LIBCMTD:memcpy.obj
 0001:00038690       LeadDown3                  10039690 f   LIBCMTD:memcpy.obj
 0001:000386e4       UnwindDown7                100396e4 f   LIBCMTD:memcpy.obj
 0001:000386ec       UnwindDown6                100396ec f   LIBCMTD:memcpy.obj
 0001:000386f4       UnwindDown5                100396f4 f   LIBCMTD:memcpy.obj
 0001:000386fc       UnwindDown4                100396fc f   LIBCMTD:memcpy.obj
 0001:00038704       UnwindDown3                10039704 f   LIBCMTD:memcpy.obj
 0001:0003870c       UnwindDown2                1003970c f   LIBCMTD:memcpy.obj
 0001:00038714       UnwindDown1                10039714 f   LIBCMTD:memcpy.obj
 0001:00038727       UnwindDown0                10039727 f   LIBCMTD:memcpy.obj
 0001:00038740       TrailDown0                 10039740 f   LIBCMTD:memcpy.obj
 0001:00038748       TrailDown1                 10039748 f   LIBCMTD:memcpy.obj
 0001:00038758       TrailDown2                 10039758 f   LIBCMTD:memcpy.obj
 0001:0003876c       TrailDown3                 1003976c f   LIBCMTD:memcpy.obj
 0001:00038470       CopyUp                     10039470 f   LIBCMTD:memcpy.obj
 0001:0003848c       CopyLeadUp                 1003948c f   LIBCMTD:memcpy.obj
 0001:000384a4       ByteCopyUp                 100394a4 f   LIBCMTD:memcpy.obj
 0001:000384ac       CopyUnwindUp               100394ac f   LIBCMTD:memcpy.obj
 0001:000385e8       CopyDown                   100395e8 f   LIBCMTD:memcpy.obj
 0001:00038610       CopyUnwindDown             10039610 f   LIBCMTD:memcpy.obj
 0001:0003861c       CopyLeadDown               1003961c f   LIBCMTD:memcpy.obj
 0001:00038634       ByteCopyDown               10039634 f   LIBCMTD:memcpy.obj
 0001:00038374       src_misaligned             10039374 f   LIBCMTD:strncpy.obj
 0001:00038390       tail_loop_start            10039390 f   LIBCMTD:strncpy.obj
 0001:00038395       copy_tail_loop             10039395 f   LIBCMTD:strncpy.obj
 0001:000383a2       fill_tail_end1             100393a2 f   LIBCMTD:strncpy.obj
 0001:000383aa       align_dest                 100393aa f   LIBCMTD:strncpy.obj
 0001:000383b2       dest_align_loop            100393b2 f   LIBCMTD:strncpy.obj
 0001:000383c4       dest_align_loop_end        100393c4 f   LIBCMTD:strncpy.obj
 0001:000383cb       finish_loop                100393cb f   LIBCMTD:strncpy.obj
 0001:000383ce       fill_tail_zero_bytes       100393ce f   LIBCMTD:strncpy.obj
 0001:000383d3       finish                     100393d3 f   LIBCMTD:strncpy.obj
 0001:000383d9       main_loop                  100393d9 f   LIBCMTD:strncpy.obj
 0001:000383e1       main_loop_entrance         100393e1 f   LIBCMTD:strncpy.obj
 0001:00038417       byte_2                     10039417 f   LIBCMTD:strncpy.obj
 0001:00038421       byte_1                     10039421 f   LIBCMTD:strncpy.obj
 0001:0003842b       byte_0                     1003942b f   LIBCMTD:strncpy.obj
 0001:0003842f       fill_with_EOS_dwords       1003942f f   LIBCMTD:strncpy.obj
 0001:00038437       fill_dwords_with_EOS       10039437 f   LIBCMTD:strncpy.obj
 0001:00038439       fill_with_EOS_loop         10039439 f   LIBCMTD:strncpy.obj
 0001:00038441       fill_tail                  10039441 f   LIBCMTD:strncpy.obj
 0001:00038446       fill_tail_end              10039446 f   LIBCMTD:strncpy.obj
 0001:00038220       _$$$00001                  10039220 f   LIBCMTD:chkstk.obj
 0001:0003822c       probepages                 1003922c f   LIBCMTD:chkstk.obj
 0001:00038240       lastpage                   10039240 f   LIBCMTD:chkstk.obj
 0001:000381e3       adjust_loop                100391e3 f   LIBCMTD:memset.obj
 0001:000381e9       dwords                     100391e9 f   LIBCMTD:memset.obj
 0001:00038203       main_loop_tail             10039203 f   LIBCMTD:memset.obj
 0001:00038207       tail                       10039207 f   LIBCMTD:memset.obj
 0001:0003820d       finish                     1003920d f   LIBCMTD:memset.obj
 0001:00038213       toend                      10039213 f   LIBCMTD:memset.obj
 0001:00037fc0       _shortsort                 10038fc0 f   LIBCMTD:qsort.obj
 0001:00038030       _swap                      10039030 f   LIBCMTD:qsort.obj
 0001:00037d0c       str_misaligned             10038d0c f   LIBCMTD:strlen.obj
 0001:00037d20       main_loop                  10038d20 f   LIBCMTD:strlen.obj
 0001:00037d53       byte_3                     10038d53 f   LIBCMTD:strlen.obj
 0001:00037d5d       byte_2                     10038d5d f   LIBCMTD:strlen.obj
 0001:00037d67       byte_1                     10038d67 f   LIBCMTD:strlen.obj
 0001:00037d71       byte_0                     10038d71 f   LIBCMTD:strlen.obj
 0001:000379dd       dest_misaligned            100389dd f   LIBCMTD:strcat.obj
 0001:000379ec       find_end_of_dest_string_loop 100389ec f   LIBCMTD:strcat.obj
 0001:00037a1f       start_byte_3               10038a1f f   LIBCMTD:strcat.obj
 0001:00037a24       start_byte_2               10038a24 f   LIBCMTD:strcat.obj
 0001:00037a29       start_byte_1               10038a29 f   LIBCMTD:strcat.obj
 0001:00037a2e       start_byte_0               10038a2e f   LIBCMTD:strcat.obj
 0001:00037a3d       src_misaligned             10038a3d f   LIBCMTD:strcat.obj
 0001:00037a51       main_loop                  10038a51 f   LIBCMTD:strcat.obj
 0001:00037a56       main_loop_entrance         10038a56 f   LIBCMTD:strcat.obj
 0001:00037a8a       byte_3                     10038a8a f   LIBCMTD:strcat.obj
 0001:00037a92       byte_2                     10038a92 f   LIBCMTD:strcat.obj
 0001:00037a9f       byte_1                     10038a9f f   LIBCMTD:strcat.obj
 0001:00037aa8       byte_0                     10038aa8 f   LIBCMTD:strcat.obj
 0001:00037a31       copy_start                 10038a31 f   LIBCMTD:strcat.obj
 0001:000378f0       _$$$00001                  100388f0 f   LIBCMTD:strchr.obj
 0001:00037918       str_misaligned             10038918 f   LIBCMTD:strchr.obj
 0001:0003792b       main_loop_start            1003892b f   LIBCMTD:strchr.obj
 0001:00037936       main_loop                  10038936 f   LIBCMTD:strchr.obj
 0001:00037972       retnull                    10038972 f   LIBCMTD:strchr.obj
 0001:00037974       retnull_bx                 10038974 f   LIBCMTD:strchr.obj
 0001:00037978       chr_is_found               10038978 f   LIBCMTD:strchr.obj
 0001:000379a0       byte_3                     100389a0 f   LIBCMTD:strchr.obj
 0001:000379a7       byte_2                     100389a7 f   LIBCMTD:strchr.obj
 0001:000379ae       byte_1                     100389ae f   LIBCMTD:strchr.obj
 0001:000379b5       byte_0                     100389b5 f   LIBCMTD:strchr.obj
 0001:000378f0       found_bx                   100388f0 f   LIBCMTD:strchr.obj
 0001:00037770       dodwords                   10038770 f   LIBCMTD:strcmp.obj
 0001:000377a0       doneeq                     100387a0 f   LIBCMTD:strcmp.obj
 0001:000377a4       donene                     100387a4 f   LIBCMTD:strcmp.obj
 0001:000377ac       dopartial                  100387ac f   LIBCMTD:strcmp.obj
 0001:000377c8       doword                     100387c8 f   LIBCMTD:strcmp.obj
