 gamex86

 Timestamp is 53d9717b (Thu Jul 31 00:28:11 2014)

 Preferred load address is 20000000

 Start         Length     Name                   Class
 0001:00000000 0005a6f7H .text                   CODE
 0002:00000000 00000140H .idata$5                DATA
 0002:00000140 00007c2cH .rdata                  DATA
 0002:00007d6c 00000014H .idata$2                DATA
 0002:00007d80 00000014H .idata$3                DATA
 0002:00007d94 00000140H .idata$4                DATA
 0002:00007ed4 0000058cH .idata$6                DATA
 0002:00008460 00000049H .edata                  DATA
 0003:00000000 00000004H .CRT$XCA                DATA
 0003:00000004 00000004H .CRT$XCZ                DATA
 0003:00000008 00000004H .CRT$XIA                DATA
 0003:0000000c 00000008H .CRT$XIC                DATA
 0003:00000014 00000004H .CRT$XIZ                DATA
 0003:00000018 00000004H .CRT$XPA                DATA
 0003:0000001c 00000004H .CRT$XPX                DATA
 0003:00000020 00000004H .CRT$XPZ                DATA
 0003:00000024 00000004H .CRT$XTA                DATA
 0003:00000028 00000004H .CRT$XTZ                DATA
 0003:00000030 0001297cH .data                   DATA
 0003:000129b0 0000d170H .bss                    DATA

  Address         Publics by Value              Rva+Base     Lib:Object

 0001:00000000       _AI_SetSightClient         20001000 f   g_ai.obj
 0001:000000c0       _ai_move                   200010c0 f   g_ai.obj
 0001:000000f0       _ai_stand                  200010f0 f   g_ai.obj
 0001:00000320       _ai_walk                   20001320 f   g_ai.obj
 0001:00000410       _ai_charge                 20001410 f   g_ai.obj
 0001:000004b0       _ai_turn                   200014b0 f   g_ai.obj
 0001:00000510       _range                     20001510 f   g_ai.obj
 0001:000005a0       _visible                   200015a0 f   g_ai.obj
 0001:00000660       _infront                   20001660 f   g_ai.obj
 0001:00000700       _HuntTarget                20001700 f   g_ai.obj
 0001:000007d0       _FoundTarget               200017d0 f   g_ai.obj
 0001:00000990       _FindTarget                20001990 f   g_ai.obj
 0001:00000e50       _FacingIdeal               20001e50 f   g_ai.obj
 0001:00000eb0       _M_CheckAttack             20001eb0 f   g_ai.obj
 0001:00001190       _ai_run_melee              20002190 f   g_ai.obj
 0001:000011f0       _ai_run_missile            200021f0 f   g_ai.obj
 0001:00001250       _ai_run_slide              20002250 f   g_ai.obj
 0001:00001300       _ai_checkattack            20002300 f   g_ai.obj
 0001:00001710       _ai_run                    20002710 f   g_ai.obj
 0001:00002100       _UpdateChaseCam            20003100 f   g_chase.obj
 0001:000025c0       _ChaseNext                 200035c0 f   g_chase.obj
 0001:00002690       _ChasePrev                 20003690 f   g_chase.obj
 0001:00002750       _GetChaseTarget            20003750 f   g_chase.obj
 0001:00002800       _ClientTeam                20003800 f   g_cmds.obj
 0001:000028a0       _OnSameTeam                200038a0 f   g_cmds.obj
 0001:00002930       _SelectNextItem            20003930 f   g_cmds.obj
 0001:00002a00       _SelectPrevItem            20003a00 f   g_cmds.obj
 0001:00002ad0       _ValidateSelectedItem      20003ad0 f   g_cmds.obj
 0001:00002b10       _Cmd_Give_f                20003b10 f   g_cmds.obj
 0001:00003000       _Cmd_God_f                 20004000 f   g_cmds.obj
 0001:000030a0       _Cmd_Notarget_f            200040a0 f   g_cmds.obj
 0001:00003140       _Cmd_Noclip_f              20004140 f   g_cmds.obj
 0001:000031e0       _Cmd_Use_f                 200041e0 f   g_cmds.obj
 0001:000032a0       _Cmd_Drop_f                200042a0 f   g_cmds.obj
 0001:00003360       _Cmd_Inven_f               20004360 f   g_cmds.obj
 0001:00003410       _Cmd_InvUse_f              20004410 f   g_cmds.obj
 0001:000034a0       _Cmd_WeapPrev_f            200044a0 f   g_cmds.obj
 0001:00003580       _Cmd_WeapNext_f            20004580 f   g_cmds.obj
 0001:00003660       _Cmd_WeapLast_f            20004660 f   g_cmds.obj
 0001:00003700       _Cmd_InvDrop_f             20004700 f   g_cmds.obj
 0001:00003790       _Cmd_Kill_f                20004790 f   g_cmds.obj
 0001:00003810       _Cmd_PutAway_f             20004810 f   g_cmds.obj
 0001:00003850       _PlayerSort                20004850 f   g_cmds.obj
 0001:000038d0       _Cmd_Players_f             200048d0 f   g_cmds.obj
 0001:00003a50       _Cmd_Wave_f                20004a50 f   g_cmds.obj
 0001:00003bd0       _Cmd_Say_f                 20004bd0 f   g_cmds.obj
 0001:00003f50       _Cmd_PlayerList_f          20004f50 f   g_cmds.obj
 0001:00004120       _ClientCommand             20005120 f   g_cmds.obj
 0001:00004580       _CanDamage                 20005580 f   g_combat.obj
 0001:000048d0       _Killed                    200058d0 f   g_combat.obj
 0001:00004a50       _SpawnDamage               20005a50 f   g_combat.obj
 0001:00004ac0       _M_ReactToDamage           20005ac0 f   g_combat.obj
 0001:00004de0       _CheckTeamDamage           20005de0 f   g_combat.obj
 0001:00004e00       _T_Damage                  20005e00 f   g_combat.obj
 0001:000057a0       _T_RadiusDamage            200067a0 f   g_combat.obj
 0001:00005940       _Move_Done                 20006940 f   g_func.obj
 0001:00005990       _Move_Final                20006990 f   g_func.obj
 0001:00005a20       _Move_Begin                20006a20 f   g_func.obj
 0001:00005b00       _Move_Calc                 20006b00 f   g_func.obj
 0001:00005c60       _AngleMove_Done            20006c60 f   g_func.obj
 0001:00005cb0       _AngleMove_Final           20006cb0 f   g_func.obj
 0001:00005da0       _AngleMove_Begin           20006da0 f   g_func.obj
 0001:00005ed0       _AngleMove_Calc            20006ed0 f   g_func.obj
 0001:00005f80       _plat_CalcAcceleratedMove  20006f80 f   g_func.obj
 0001:000060b0       _plat_Accelerate           200070b0 f   g_func.obj
 0001:000062b0       _Think_AccelMove           200072b0 f   g_func.obj
 0001:00006390       _plat_hit_top              20007390 f   g_func.obj
 0001:00006420       _plat_hit_bottom           20007420 f   g_func.obj
 0001:00006490       _plat_go_down              20007490 f   g_func.obj
 0001:00006520       _plat_go_up                20007520 f   g_func.obj
 0001:000065b0       _plat_blocked              200075b0 f   g_func.obj
 0001:00006690       _Use_Plat                  20007690 f   g_func.obj
 0001:000066c0       _Touch_Plat_Center         200076c0 f   g_func.obj
 0001:00006730       _plat_spawn_inside_trigger 20007730 f   g_func.obj
 0001:000068e0       _SP_func_plat              200078e0 f   g_func.obj
 0001:00006cb0       _rotating_blocked          20007cb0 f   g_func.obj
 0001:00006d00       _rotating_touch            20007d00 f   g_func.obj
 0001:00006d90       _rotating_use              20007d90 f   g_func.obj
 0001:00006e50       _SP_func_rotating          20007e50 f   g_func.obj
 0001:00007050       _button_done               20008050 f   g_func.obj
 0001:00007090       _button_return             20008090 f   g_func.obj
 0001:000070f0       _button_wait               200080f0 f   g_func.obj
 0001:00007190       _button_fire               20008190 f   g_func.obj
 0001:00007230       _button_use                20008230 f   g_func.obj
 0001:00007260       _button_touch              20008260 f   g_func.obj
 0001:000072b0       _button_killed             200082b0 f   g_func.obj
 0001:00007300       _SP_func_button            20008300 f   g_func.obj
 0001:00007690       _door_use_areaportals      20008690 f   g_func.obj
 0001:00007710       _door_hit_top              20008710 f   g_func.obj
 0001:000077d0       _door_hit_bottom           200087d0 f   g_func.obj
 0001:00007850       _door_go_down              20008850 f   g_func.obj
 0001:00007950       _door_go_up                20008950 f   g_func.obj
 0001:00007aa0       _door_use                  20008aa0 f   g_func.obj
 0001:00007b80       _Touch_DoorTrigger         20008b80 f   g_func.obj
 0001:00007c30       _Think_CalcMoveSpeed       20008c30 f   g_func.obj
 0001:00007da0       _Think_SpawnDoorTrigger    20008da0 f   g_func.obj
 0001:00007f50       _door_blocked              20008f50 f   g_func.obj
 0001:000080a0       _door_killed               200090a0 f   g_func.obj
 0001:00008110       _door_touch                20009110 f   g_func.obj
 0001:000081a0       _SP_func_door              200091a0 f   g_func.obj
 0001:00008710       _SP_func_door_rotating     20009710 f   g_func.obj
 0001:00008ce0       _SP_func_water             20009ce0 f   g_func.obj
 0001:000090f0       _train_blocked             2000a0f0 f   g_func.obj
 0001:000091d0       _train_wait                2000a1d0 f   g_func.obj
 0001:00009370       _train_next                2000a370 f   g_func.obj
 0001:000095e0       _train_resume              2000a5e0 f   g_func.obj
 0001:000096c0       _func_train_find           2000a6c0 f   g_func.obj
 0001:000097f0       _train_use                 2000a7f0 f   g_func.obj
 0001:000098a0       _SP_func_train             2000a8a0 f   g_func.obj
 0001:00009a30       _trigger_elevator_use      2000aa30 f   g_func.obj
 0001:00009ae0       _trigger_elevator_init     2000aae0 f   g_func.obj
 0001:00009bb0       _SP_trigger_elevator       2000abb0 f   g_func.obj
 0001:00009bf0       _func_timer_think          2000abf0 f   g_func.obj
 0001:00009c60       _func_timer_use            2000ac60 f   g_func.obj
 0001:00009ce0       _SP_func_timer             2000ace0 f   g_func.obj
 0001:00009e00       _func_conveyor_use         2000ae00 f   g_func.obj
 0001:00009e90       _SP_func_conveyor          2000ae90 f   g_func.obj
 0001:00009f40       _door_secret_use           2000af40 f   g_func.obj
 0001:00009fa0       _door_secret_move1         2000afa0 f   g_func.obj
 0001:00009fe0       _door_secret_move2         2000afe0 f   g_func.obj
 0001:0000a010       _door_secret_move3         2000b010 f   g_func.obj
 0001:0000a060       _door_secret_move4         2000b060 f   g_func.obj
 0001:0000a090       _door_secret_move5         2000b090 f   g_func.obj
 0001:0000a0d0       _door_secret_move6         2000b0d0 f   g_func.obj
 0001:0000a100       _door_secret_done          2000b100 f   g_func.obj
 0001:0000a160       _door_secret_blocked       2000b160 f   g_func.obj
 0001:0000a230       _door_secret_die           2000b230 f   g_func.obj
 0001:0000a270       _SP_func_door_secret       2000b270 f   g_func.obj
 0001:0000a5e0       _use_killbox               2000b5e0 f   g_func.obj
 0001:0000a600       _SP_func_killbox           2000b600 f   g_func.obj
 0001:0000a650       _GetItemByIndex            2000b650 f   g_items.obj
 0001:0000a680       _FindItemByClassname       2000b680 f   g_items.obj
 0001:0000a6f0       _FindItem                  2000b6f0 f   g_items.obj
 0001:0000a760       _DoRespawn                 2000b760 f   g_items.obj
 0001:0000a830       _SetRespawn                2000b830 f   g_items.obj
 0001:0000a8b0       _Pickup_Powerup            2000b8b0 f   g_items.obj
 0001:0000aa90       _Drop_General              2000ba90 f   g_items.obj
 0001:0000ab00       _Pickup_Adrenaline         2000bb00 f   g_items.obj
 0001:0000abb0       _Pickup_AncientHead        2000bbb0 f   g_items.obj
 0001:0000ac20       _Pickup_Bandolier          2000bc20 f   g_items.obj
 0001:0000ae20       _Pickup_Pack               2000be20 f   g_items.obj
 0001:0000b280       _Use_Quad                  2000c280 f   g_items.obj
 0001:0000b380       _Use_Breather              2000c380 f   g_items.obj
 0001:0000b430       _Use_Envirosuit            2000c430 f   g_items.obj
 0001:0000b4e0       _Use_Invulnerability       2000c4e0 f   g_items.obj
 0001:0000b5c0       _Use_Silencer              2000c5c0 f   g_items.obj
 0001:0000b640       _Pickup_Key                2000c640 f   g_items.obj
 0001:0000b7d0       _Add_Ammo                  2000c7d0 f   g_items.obj
 0001:0000b910       _Pickup_Ammo               2000c910 f   g_items.obj
 0001:0000ba80       _Drop_Ammo                 2000ca80 f   g_items.obj
 0001:0000bba0       _MegaHealth_think          2000cba0 f   g_items.obj
 0001:0000bc50       _Pickup_Health             2000cc50 f   g_items.obj
 0001:0000bda0       _ArmorIndex                2000cda0 f   g_items.obj
 0001:0000be20       _Pickup_Armor              2000ce20 f   g_items.obj
 0001:0000c060       _PowerArmorType            2000d060 f   g_items.obj
 0001:0000c0d0       _Use_PowerArmor            2000d0d0 f   g_items.obj
 0001:0000c1c0       _Pickup_PowerArmor         2000d1c0 f   g_items.obj
 0001:0000c2b0       _Drop_PowerArmor           2000d2b0 f   g_items.obj
 0001:0000c320       _Touch_Item                2000d320 f   g_items.obj
 0001:0000c630       _Drop_Item                 2000d630 f   g_items.obj
 0001:0000c920       _Use_Item                  2000d920 f   g_items.obj
 0001:0000c9b0       _droptofloor               2000d9b0 f   g_items.obj
 0001:0000ccc0       _PrecacheItem              2000dcc0 f   g_items.obj
 0001:0000ced0       _SpawnItem                 2000ded0 f   g_items.obj
 0001:0000d160       _SP_item_health            2000e160 f   g_items.obj
 0001:0000d1f0       _SP_item_health_small      2000e1f0 f   g_items.obj
 0001:0000d290       _SP_item_health_large      2000e290 f   g_items.obj
 0001:0000d320       _SP_item_health_mega       2000e320 f   g_items.obj
 0001:0000d3c0       _InitItems                 2000e3c0 f   g_items.obj
 0001:0000d3e0       _SetItemNames              2000e3e0 f   g_items.obj
 0001:0000d4e0       _ShutdownGame              2000e4e0 f   g_main.obj
 0001:0000d520       _GetGameAPI                2000e520 f   g_main.obj
 0001:0000d5f0       _Sys_Error                 2000e5f0 f   g_main.obj
 0001:0000d640       _Com_Printf                2000e640 f   g_main.obj
 0001:0000d690       _ClientEndServerFrames     2000e690 f   g_main.obj
 0001:0000d700       _CreateTargetChangeLevel   2000e700 f   g_main.obj
 0001:0000d750       _EndDMLevel                2000e750 f   g_main.obj
 0001:0000d900       _CheckNeedPass             2000e900 f   g_main.obj
 0001:0000d9e0       _CheckDMRules              2000e9e0 f   g_main.obj
 0001:0000db10       _ExitLevel                 2000eb10 f   g_main.obj
 0001:0000dbf0       _G_RunFrame                2000ebf0 f   g_main.obj
 0001:0000dd50       _Use_Areaportal            2000ed50 f   g_misc.obj
 0001:0000dda0       _SP_func_areaportal        2000eda0 f   g_misc.obj
 0001:0000ddd0       _VelocityForDamage         2000edd0 f   g_misc.obj
 0001:0000de90       _ClipGibVelocity           2000ee90 f   g_misc.obj
 0001:0000df80       _gib_think                 2000ef80 f   g_misc.obj
 0001:0000e010       _gib_touch                 2000f010 f   g_misc.obj
 0001:0000e0f0       _gib_die                   2000f0f0 f   g_misc.obj
 0001:0000e110       _ThrowGib                  2000f110 f   g_misc.obj
 0001:0000e3a0       _ThrowHead                 2000f3a0 f   g_misc.obj
 0001:0000e5b0       _ThrowClientHead           2000f5b0 f   g_misc.obj
 0001:0000e760       _debris_die                2000f760 f   g_misc.obj
 0001:0000e780       _ThrowDebris               2000f780 f   g_misc.obj
 0001:0000e990       _BecomeExplosion1          2000f990 f   g_misc.obj
 0001:0000e9f0       _BecomeExplosion2          2000f9f0 f   g_misc.obj
 0001:0000ea50       _path_corner_touch         2000fa50 f   g_misc.obj
 0001:0000ec70       _SP_path_corner            2000fc70 f   g_misc.obj
 0001:0000ed50       _point_combat_touch        2000fd50 f   g_misc.obj
 0001:0000ef90       _SP_point_combat           2000ff90 f   g_misc.obj
 0001:0000f050       _TH_viewthing              20010050 f   g_misc.obj
 0001:0000f090       _SP_viewthing              20010090 f   g_misc.obj
 0001:0000f170       _SP_info_null              20010170 f   g_misc.obj
 0001:0000f190       _SP_info_notnull           20010190 f   g_misc.obj
 0001:0000f200       _SP_light                  20010200 f   g_misc.obj
 0001:0000f340       _func_wall_use             20010340 f   g_misc.obj
 0001:0000f3e0       _SP_func_wall              200103e0 f   g_misc.obj
 0001:0000f550       _func_object_touch         20010550 f   g_misc.obj
 0001:0000f5c0       _func_object_release       200105c0 f   g_misc.obj
 0001:0000f5f0       _func_object_use           200105f0 f   g_misc.obj
 0001:0000f650       _SP_func_object            20010650 f   g_misc.obj
 0001:0000f800       _func_explosive_explode    20010800 f   g_misc.obj
 0001:0000fb60       _func_explosive_use        20010b60 f   g_misc.obj
 0001:0000fba0       _func_explosive_spawn      20010ba0 f   g_misc.obj
 0001:0000fc00       _SP_func_explosive         20010c00 f   g_misc.obj
 0001:0000fd70       _barrel_touch              20010d70 f   g_misc.obj
 0001:0000fe10       _barrel_explode            20010e10 f   g_misc.obj
 0001:000108c0       _barrel_delay              200118c0 f   g_misc.obj
 0001:00010910       _SP_misc_explobox          20011910 f   g_misc.obj
 0001:00010ab0       _misc_blackhole_use        20011ab0 f   g_misc.obj
 0001:00010ad0       _misc_blackhole_think      20011ad0 f   g_misc.obj
 0001:00010b30       _SP_misc_blackhole         20011b30 f   g_misc.obj
 0001:00010c10       _misc_eastertank_think     20011c10 f   g_misc.obj
 0001:00010c80       _SP_misc_eastertank        20011c80 f   g_misc.obj
 0001:00010d50       _misc_easterchick_think    20011d50 f   g_misc.obj
 0001:00010dc0       _SP_misc_easterchick       20011dc0 f   g_misc.obj
 0001:00010e90       _misc_easterchick2_think   20011e90 f   g_misc.obj
 0001:00010f00       _SP_misc_easterchick2      20011f00 f   g_misc.obj
 0001:00010fd0       _commander_body_think      20011fd0 f   g_misc.obj
 0001:00011050       _commander_body_use        20012050 f   g_misc.obj
 0001:000110b0       _commander_body_drop       200120b0 f   g_misc.obj
 0001:000110e0       _SP_monster_commander_body 200120e0 f   g_misc.obj
 0001:00011200       _misc_banner_think         20012200 f   g_misc.obj
 0001:00011250       _SP_misc_banner            20012250 f   g_misc.obj
 0001:000112e0       _misc_deadsoldier_die      200122e0 f   g_misc.obj
 0001:00011370       _SP_misc_deadsoldier       20012370 f   g_misc.obj
 0001:00011520       _misc_viper_use            20012520 f   g_misc.obj
 0001:00011570       _SP_misc_viper             20012570 f   g_misc.obj
 0001:000116f0       _SP_misc_bigviper          200126f0 f   g_misc.obj
 0001:00011790       _misc_viper_bomb_touch     20012790 f   g_misc.obj
 0001:00011810       _misc_viper_bomb_prethink  20012810 f   g_misc.obj
 0001:000118b0       _misc_viper_bomb_use       200128b0 f   g_misc.obj
 0001:000119c0       _SP_misc_viper_bomb        200129c0 f   g_misc.obj
 0001:00011aa0       _misc_strogg_ship_use      20012aa0 f   g_misc.obj
 0001:00011af0       _SP_misc_strogg_ship       20012af0 f   g_misc.obj
 0001:00011c70       _misc_satellite_dish_think 20012c70 f   g_misc.obj
 0001:00011cb0       _misc_satellite_dish_use   20012cb0 f   g_misc.obj
 0001:00011cf0       _SP_misc_satellite_dish    20012cf0 f   g_misc.obj
 0001:00011da0       _SP_light_mine1            20012da0 f   g_misc.obj
 0001:00011df0       _SP_light_mine2            20012df0 f   g_misc.obj
 0001:00011e40       _SP_misc_gib_arm           20012e40 f   g_misc.obj
 0001:00011f70       _SP_misc_gib_leg           20012f70 f   g_misc.obj
 0001:000120a0       _SP_misc_gib_head          200130a0 f   g_misc.obj
 0001:000121d0       _SP_target_character       200131d0 f   g_misc.obj
 0001:00012230       _target_string_use         20013230 f   g_misc.obj
 0001:00012320       _SP_target_string          20013320 f   g_misc.obj
 0001:00012360       _func_clock_think          20013360 f   g_misc.obj
 0001:000127e0       _func_clock_use            200137e0 f   g_misc.obj
 0001:00012840       _SP_func_clock             20013840 f   g_misc.obj
 0001:00012980       _teleporter_touch          20013980 f   g_misc.obj
 0001:00012b80       _SP_misc_teleporter        20013b80 f   g_misc.obj
 0001:00012d20       _SP_misc_teleporter_dest   20013d20 f   g_misc.obj
 0001:00012dc0       _monster_fire_bullet       20013dc0 f   g_monster.obj
 0001:00012e40       _monster_fire_shotgun      20013e40 f   g_monster.obj
 0001:00012ec0       _monster_fire_blaster      20013ec0 f   g_monster.obj
 0001:00012f40       _monster_fire_grenade      20013f40 f   g_monster.obj
 0001:00012fd0       _monster_fire_rocket       20013fd0 f   g_monster.obj
 0001:00013060       _monster_fire_railgun      20014060 f   g_monster.obj
 0001:000130d0       _monster_fire_bfg          200140d0 f   g_monster.obj
 0001:00013150       _M_FlyCheck                20014150 f   g_monster.obj
 0001:00013280       _AttackFinished            20014280 f   g_monster.obj
 0001:000132b0       _M_CheckGround             200142b0 f   g_monster.obj
 0001:000133e0       _M_CatagorizePosition      200143e0 f   g_monster.obj
 0001:000134e0       _M_WorldEffects            200144e0 f   g_monster.obj
 0001:000139a0       _M_droptofloor             200149a0 f   g_monster.obj
 0001:00013a80       _M_SetEffects              20014a80 f   g_monster.obj
 0001:00013b50       _M_MoveFrame               20014b50 f   g_monster.obj
 0001:00013d40       _monster_think             20014d40 f   g_monster.obj
 0001:00013db0       _monster_use               20014db0 f   g_monster.obj
 0001:00013e30       _monster_triggered_spawn   20014e30 f   g_monster.obj
 0001:00013f10       _monster_triggered_spawn_use 20014f10 f   g_monster.obj
 0001:00013f70       _monster_triggered_start   20014f70 f   g_monster.obj
 0001:00013fd0       _monster_death_use         20014fd0 f   g_monster.obj
 0001:00014080       _monster_start             20015080 f   g_monster.obj
 0001:000142c0       _monster_start_go          200152c0 f   g_monster.obj
 0001:00014650       _walkmonster_start_go      20015650 f   g_monster.obj
 0001:00014730       _walkmonster_start         20015730 f   g_monster.obj
 0001:00014760       _flymonster_start_go       20015760 f   g_monster.obj
 0001:00014810       _flymonster_start          20015810 f   g_monster.obj
 0001:00014850       _swimmonster_start_go      20015850 f   g_monster.obj
 0001:000148c0       _swimmonster_start         200158c0 f   g_monster.obj
 0001:00014900       _SV_TestEntityPosition     20015900 f   g_phys.obj
 0001:00014990       _SV_CheckVelocity          20015990 f   g_phys.obj
 0001:00014a30       _SV_RunThink               20015a30 f   g_phys.obj
 0001:00014ac0       _SV_Impact                 20015ac0 f   g_phys.obj
 0001:00014b50       _ClipVelocity              20015b50 f   g_phys.obj
 0001:00014c50       _SV_FlyMove                20015c50 f   g_phys.obj
 0001:000151b0       _SV_AddGravity             200161b0 f   g_phys.obj
 0001:000151f0       _SV_PushEntity             200161f0 f   g_phys.obj
 0001:00015350       _SV_Push                   20016350 f   g_phys.obj
 0001:000159e0       _SV_Physics_Pusher         200169e0 f   g_phys.obj
 0001:00015bd0       _SV_Physics_None           20016bd0 f   g_phys.obj
 0001:00015bf0       _SV_Physics_Noclip         20016bf0 f   g_phys.obj
 0001:00015c70       _SV_Physics_Toss           20016c70 f   g_phys.obj
 0001:00015ff0       _SV_AddRotationalFriction  20016ff0 f   g_phys.obj
 0001:00016100       _SV_Physics_Step           20017100 f   g_phys.obj
 0001:00016580       _G_RunEntity               20017580 f   g_phys.obj
 0001:00016650       _InitGame                  20017650 f   g_save.obj
 0001:00016aa0       _WriteField1               20017aa0 f   g_save.obj
 0001:00016c50       _WriteField2               20017c50 f   g_save.obj
 0001:00016cc0       _ReadField                 20017cc0 f   g_save.obj
 0001:00016e80       _WriteClient               20017e80 f   g_save.obj
 0001:00016f20       _ReadClient                20017f20 f   g_save.obj
 0001:00016f80       _WriteGame                 20017f80 f   g_save.obj
 0001:00017070       _ReadGame                  20018070 f   g_save.obj
 0001:000171b0       _WriteEdict                200181b0 f   g_save.obj
 0001:00017250       _WriteLevelLocals          20018250 f   g_save.obj
 0001:00017300       _ReadEdict                 20018300 f   g_save.obj
 0001:00017360       _ReadLevelLocals           20018360 f   g_save.obj
 0001:000173c0       _WriteLevel                200183c0 f   g_save.obj
 0001:000174d0       _ReadLevel                 200184d0 f   g_save.obj
 0001:00017760       _ED_CallSpawn              20018760 f   g_spawn.obj
 0001:00017860       _ED_NewString              20018860 f   g_spawn.obj
 0001:00017930       _ED_ParseField             20018930 f   g_spawn.obj
 0001:00017ae0       _ED_ParseEdict             20018ae0 f   g_spawn.obj
 0001:00017c10       _G_FindTeams               20018c10 f   g_spawn.obj
 0001:00017db0       _SpawnEntities             20018db0 f   g_spawn.obj
 0001:00018110       _SP_worldspawn             20019110 f   g_spawn.obj
 0001:000187a0       _Svcmd_Test_f              200197a0 f   g_svcmds.obj
 0001:000187d0       _SV_FilterPacket           200197d0 f   g_svcmds.obj
 0001:000188f0       _SVCmd_AddIP_f             200198f0 f   g_svcmds.obj
 0001:00018b40       _SVCmd_RemoveIP_f          20019b40 f   g_svcmds.obj
 0001:00018c60       _SVCmd_ListIP_f            20019c60 f   g_svcmds.obj
 0001:00018cf0       _SVCmd_WriteIP_f           20019cf0 f   g_svcmds.obj
 0001:00018e70       _ServerCommand             20019e70 f   g_svcmds.obj
 0001:00018f40       _Use_Target_Tent           20019f40 f   g_target.obj
 0001:00018f90       _SP_target_temp_entity     20019f90 f   g_target.obj
 0001:00018fb0       _Use_Target_Speaker        20019fb0 f   g_target.obj
 0001:00019050       _SP_target_speaker         2001a050 f   g_target.obj
 0001:000191a0       _Use_Target_Help           2001a1a0 f   g_target.obj
 0001:00019210       _SP_target_help            2001a210 f   g_target.obj
 0001:000192a0       _use_target_secret         2001a2a0 f   g_target.obj
 0001:00019300       _SP_target_secret          2001a300 f   g_target.obj
 0001:000193f0       _use_target_goal           2001a3f0 f   g_target.obj
 0001:00019470       _SP_target_goal            2001a470 f   g_target.obj
 0001:00019500       _target_explosion_explode  2001a500 f   g_target.obj
 0001:000195c0       _use_target_explosion      2001a5c0 f   g_target.obj
 0001:00019630       _SP_target_explosion       2001a630 f   g_target.obj
 0001:00019660       _use_target_changelevel    2001a660 f   g_target.obj
 0001:000197b0       _SP_target_changelevel     2001a7b0 f   g_target.obj
 0001:00019850       _use_target_splash         2001a850 f   g_target.obj
 0001:00019920       _SP_target_splash          2001a920 f   g_target.obj
 0001:00019980       _use_target_spawner        2001a980 f   g_target.obj
 0001:00019a70       _SP_target_spawner         2001aa70 f   g_target.obj
 0001:00019af0       _use_target_blaster        2001aaf0 f   g_target.obj
 0001:00019ba0       _SP_target_blaster         2001aba0 f   g_target.obj
 0001:00019c40       _trigger_crosslevel_trigger_use 2001ac40 f   g_target.obj
 0001:00019c80       _SP_target_crosslevel_trigger 2001ac80 f   g_target.obj
 0001:00019cb0       _target_crosslevel_target_think 2001acb0 f   g_target.obj
 0001:00019d00       _SP_target_crosslevel_target 2001ad00 f   g_target.obj
 0001:00019d70       _target_laser_think        2001ad70 f   g_target.obj
 0001:0001a060       _target_laser_on           2001b060 f   g_target.obj
 0001:0001a0d0       _target_laser_off          2001b0d0 f   g_target.obj
 0001:0001a120       _target_laser_use          2001b120 f   g_target.obj
 0001:0001a170       _target_laser_start        2001b170 f   g_target.obj
 0001:0001a3b0       _SP_target_laser           2001b3b0 f   g_target.obj
 0001:0001a3f0       _target_lightramp_think    2001b3f0 f   g_target.obj
 0001:0001a500       _target_lightramp_use      2001b500 f   g_target.obj
 0001:0001a650       _SP_target_lightramp       2001b650 f   g_target.obj
 0001:0001a830       _target_earthquake_think   2001b830 f   g_target.obj
 0001:0001a9d0       _target_earthquake_use     2001b9d0 f   g_target.obj
 0001:0001aa30       _SP_target_earthquake      2001ba30 f   g_target.obj
 0001:0001ab00       _InitTrigger               2001bb00 f   g_trigger.obj
 0001:0001ab80       _multi_wait                2001bb80 f   g_trigger.obj
 0001:0001aba0       _multi_trigger             2001bba0 f   g_trigger.obj
 0001:0001ac50       _Use_Multi                 2001bc50 f   g_trigger.obj
 0001:0001ac80       _Touch_Multi               2001bc80 f   g_trigger.obj
 0001:0001ad50       _trigger_enable            2001bd50 f   g_trigger.obj
 0001:0001ad90       _SP_trigger_multiple       2001bd90 f   g_trigger.obj
 0001:0001af00       _SP_trigger_once           2001bf00 f   g_trigger.obj
 0001:0001afb0       _trigger_relay_use         2001bfb0 f   g_trigger.obj
 0001:0001afd0       _SP_trigger_relay          2001bfd0 f   g_trigger.obj
 0001:0001aff0       _trigger_key_use           2001bff0 f   g_trigger.obj
 0001:0001b2c0       _SP_trigger_key            2001c2c0 f   g_trigger.obj
 0001:0001b3b0       _trigger_counter_use       2001c3b0 f   g_trigger.obj
 0001:0001b4b0       _SP_trigger_counter        2001c4b0 f   g_trigger.obj
 0001:0001b500       _SP_trigger_always         2001c500 f   g_trigger.obj
 0001:0001b550       _trigger_push_touch        2001c550 f   g_trigger.obj
 0001:0001b6b0       _SP_trigger_push           2001c6b0 f   g_trigger.obj
 0001:0001b720       _hurt_use                  2001c720 f   g_trigger.obj
 0001:0001b790       _hurt_touch                2001c790 f   g_trigger.obj
 0001:0001b8b0       _SP_trigger_hurt           2001c8b0 f   g_trigger.obj
 0001:0001b960       _trigger_gravity_touch     2001c960 f   g_trigger.obj
 0001:0001b990       _SP_trigger_gravity        2001c990 f   g_trigger.obj
 0001:0001ba10       _trigger_monsterjump_touch 2001ca10 f   g_trigger.obj
 0001:0001bac0       _SP_trigger_monsterjump    2001cac0 f   g_trigger.obj
 0001:0001bb50       _AnglesNormalize           2001cb50 f   g_turret.obj
 0001:0001bc00       _SnapToEights              2001cc00 f   g_turret.obj
 0001:0001bc60       _turret_blocked            2001cc60 f   g_turret.obj
 0001:0001bcf0       _turret_breach_fire        2001ccf0 f   g_turret.obj
 0001:0001be20       _turret_breach_think       2001ce20 f   g_turret.obj
 0001:0001c430       _turret_breach_finish_init 2001d430 f   g_turret.obj
 0001:0001c530       _SP_turret_breach          2001d530 f   g_turret.obj
 0001:0001c6b0       _SP_turret_base            2001d6b0 f   g_turret.obj
 0001:0001c710       _turret_driver_die         2001d710 f   g_turret.obj
 0001:0001c7e0       _turret_driver_think       2001d7e0 f   g_turret.obj
 0001:0001ca10       _turret_driver_link        2001da10 f   g_turret.obj
 0001:0001cbf0       _SP_turret_driver          2001dbf0 f   g_turret.obj
 0001:0001ce30       _G_ProjectSource           2001de30 f   g_utils.obj
 0001:0001cec0       _G_Find                    2001dec0 f   g_utils.obj
 0001:0001cf50       _findradius                2001df50 f   g_utils.obj
 0001:0001d040       _G_PickTarget              2001e040 f   g_utils.obj
 0001:0001d0f0       _Think_Delay               2001e0f0 f   g_utils.obj
 0001:0001d130       _G_UseTargets              2001e130 f   g_utils.obj
 0001:0001d3e0       _tv                        2001e3e0 f   g_utils.obj
 0001:0001d430       _vtos                      2001e430 f   g_utils.obj
 0001:0001d4a0       _G_SetMovedir              2001e4a0 f   g_utils.obj
 0001:0001d560       _vectoyaw                  2001e560 f   g_utils.obj
 0001:0001d620       _vectoangles               2001e620 f   g_utils.obj
 0001:0001d7b0       _G_CopyString              2001e7b0 f   g_utils.obj
 0001:0001d800       _G_InitEdict               2001e800 f   g_utils.obj
 0001:0001d850       _G_Spawn                   2001e850 f   g_utils.obj
 0001:0001d940       _G_FreeEdict               2001e940 f   g_utils.obj
 0001:0001d9d0       _G_TouchTriggers           2001e9d0 f   g_utils.obj
 0001:0001dab0       _G_TouchSolids             2001eab0 f   g_utils.obj
 0001:0001db70       _KillBox                   2001eb70 f   g_utils.obj
 0001:0001dc30       _fire_hit                  2001ec30 f   g_weapon.obj
 0001:0001df90       _fire_bullet               2001ef90 f   g_weapon.obj
 0001:0001e5f0       _fire_shotgun              2001f5f0 f   g_weapon.obj
 0001:0001e650       _blaster_touch             2001f650 f   g_weapon.obj
 0001:0001e7a0       _fire_blaster              2001f7a0 f   g_weapon.obj
 0001:0001eb50       _fire_grenade              2001fb50 f   g_weapon.obj
 0001:0001f1b0       _fire_grenade2             200201b0 f   g_weapon.obj
 0001:0001f480       _rocket_touch              20020480 f   g_weapon.obj
 0001:0001f670       _fire_rocket               20020670 f   g_weapon.obj
 0001:0001f860       _fire_rail                 20020860 f   g_weapon.obj
 0001:0001fa40       _bfg_explode               20020a40 f   g_weapon.obj
 0001:0001fc70       _bfg_touch                 20020c70 f   g_weapon.obj
 0001:0001fe80       _bfg_think                 20020e80 f   g_weapon.obj
 0001:00020170       _fire_bfg                  20021170 f   g_weapon.obj
 0001:00020390       _actor_stand               20021390 f   m_actor.obj
 0001:00020400       _actor_walk                20021400 f   m_actor.obj
 0001:00020420       _actor_run                 20021420 f   m_actor.obj
 0001:000204b0       _actor_pain                200214b0 f   m_actor.obj
 0001:00020670       _actorMachineGun           20021670 f   m_actor.obj
 0001:000207e0       _actor_dead                200217e0 f   m_actor.obj
 0001:00020880       _actor_die                 20021880 f   m_actor.obj
 0001:00020990       _actor_fire                20021990 f   m_actor.obj
 0001:000209f0       _actor_attack              200219f0 f   m_actor.obj
 0001:00020a40       _actor_use                 20021a40 f   m_actor.obj
 0001:00020b90       _SP_misc_actor             20021b90 f   m_actor.obj
 0001:00020db0       _target_actor_touch        20021db0 f   m_actor.obj
 0001:00021130       _SP_target_actor           20022130 f   m_actor.obj
 0001:00021290       _berserk_sight             20022290 f   m_berserk.obj
 0001:000212d0       _berserk_search            200222d0 f   m_berserk.obj
 0001:00021310       _berserk_stand             20022310 f   m_berserk.obj
 0001:00021330       _berserk_fidget            20022330 f   m_berserk.obj
 0001:000213b0       _berserk_walk              200223b0 f   m_berserk.obj
 0001:000213d0       _berserk_run               200223d0 f   m_berserk.obj
 0001:00021410       _berserk_attack_spike      20022410 f   m_berserk.obj
 0001:00021450       _berserk_swing             20022450 f   m_berserk.obj
 0001:00021490       _berserk_attack_club       20022490 f   m_berserk.obj
 0001:000214e0       _berserk_strike            200224e0 f   m_berserk.obj
 0001:000214f0       _berserk_melee             200224f0 f   m_berserk.obj
 0001:00021540       _berserk_pain              20022540 f   m_berserk.obj
 0001:00021630       _berserk_dead              20022630 f   m_berserk.obj
 0001:000216d0       _berserk_die               200226d0 f   m_berserk.obj
 0001:00021820       _SP_monster_berserk        20022820 f   m_berserk.obj
 0001:00021a20       _boss2_search              20022a20 f   m_boss2.obj
 0001:00021a80       _Boss2Rocket               20022a80 f   m_boss2.obj
 0001:00021d50       _boss2_firebullet_right    20022d50 f   m_boss2.obj
 0001:00021e30       _boss2_firebullet_left     20022e30 f   m_boss2.obj
 0001:00021f10       _Boss2MachineGun           20022f10 f   m_boss2.obj
 0001:00021f40       _boss2_stand               20022f40 f   m_boss2.obj
 0001:00021f60       _boss2_run                 20022f60 f   m_boss2.obj
 0001:00021fa0       _boss2_walk                20022fa0 f   m_boss2.obj
 0001:00021fc0       _boss2_attack              20022fc0 f   m_boss2.obj
 0001:00022080       _boss2_attack_mg           20023080 f   m_boss2.obj
 0001:000220a0       _boss2_reattack_mg         200230a0 f   m_boss2.obj
 0001:00022120       _boss2_pain                20023120 f   m_boss2.obj
 0001:00022220       _boss2_dead                20023220 f   m_boss2.obj
 0001:000222c0       _boss2_die                 200232c0 f   m_boss2.obj
 0001:00022330       _Boss2_CheckAttack         20023330 f   m_boss2.obj
 0001:00022620       _SP_monster_boss2          20023620 f   m_boss2.obj
 0001:00022820       _Use_Boss3                 20023820 f   m_boss3.obj
 0001:00022880       _Think_Boss3Stand          20023880 f   m_boss3.obj
 0001:000228d0       _SP_monster_boss3_stand    200238d0 f   m_boss3.obj
 0001:000229f0       _jorg_search               200239f0 f   m_boss31.obj
 0001:00022aa0       _jorg_idle                 20023aa0 f   m_boss31.obj
 0001:00022ae0       _jorg_death_hit            20023ae0 f   m_boss31.obj
 0001:00022b20       _jorg_step_left            20023b20 f   m_boss31.obj
 0001:00022b60       _jorg_step_right           20023b60 f   m_boss31.obj
 0001:00022ba0       _jorg_stand                20023ba0 f   m_boss31.obj
 0001:00022bc0       _jorg_walk                 20023bc0 f   m_boss31.obj
 0001:00022be0       _jorg_run                  20023be0 f   m_boss31.obj
 0001:00022c20       _jorg_reattack1            20023c20 f   m_boss31.obj
 0001:00022cb0       _jorg_attack1              20023cb0 f   m_boss31.obj
 0001:00022cd0       _jorg_pain                 20023cd0 f   m_boss31.obj
 0001:00022f00       _jorgBFG                   20023f00 f   m_boss31.obj
 0001:00023000       _jorg_firebullet_right     20024000 f   m_boss31.obj
 0001:000230e0       _jorg_firebullet_left      200240e0 f   m_boss31.obj
 0001:000231c0       _jorg_firebullet           200241c0 f   m_boss31.obj
 0001:000231f0       _jorg_attack               200241f0 f   m_boss31.obj
 0001:000232f0       _jorg_dead                 200242f0 f   m_boss31.obj
 0001:00023300       _jorg_die                  20024300 f   m_boss31.obj
 0001:00023370       _Jorg_CheckAttack          20024370 f   m_boss31.obj
 0001:00023660       _SP_monster_jorg           20024660 f   m_boss31.obj
 0001:00023920       _makron_taunt              20024920 f   m_boss32.obj
 0001:000239d0       _makron_stand              200249d0 f   m_boss32.obj
 0001:000239f0       _makron_hit                200249f0 f   m_boss32.obj
 0001:00023a20       _makron_popup              20024a20 f   m_boss32.obj
 0001:00023a50       _makron_step_left          20024a50 f   m_boss32.obj
 0001:00023a90       _makron_step_right         20024a90 f   m_boss32.obj
 0001:00023ad0       _makron_brainsplorch       20024ad0 f   m_boss32.obj
 0001:00023b10       _makron_prerailgun         20024b10 f   m_boss32.obj
 0001:00023b50       _makron_walk               20024b50 f   m_boss32.obj
 0001:00023b70       _makron_run                20024b70 f   m_boss32.obj
 0001:00023bb0       _makronBFG                 20024bb0 f   m_boss32.obj
 0001:00023cb0       _MakronSaveloc             20024cb0 f   m_boss32.obj
 0001:00023d20       _MakronRailgun             20024d20 f   m_boss32.obj
 0001:00023dc0       _MakronHyperblaster        20024dc0 f   m_boss32.obj
 0001:00023f30       _makron_pain               20024f30 f   m_boss32.obj
 0001:00024100       _makron_sight              20025100 f   m_boss32.obj
 0001:00024120       _makron_attack             20025120 f   m_boss32.obj
 0001:000241f0       _makron_torso_think        200251f0 f   m_boss32.obj
 0001:00024260       _makron_torso              20025260 f   m_boss32.obj
 0001:00024340       _makron_dead               20025340 f   m_boss32.obj
 0001:000243e0       _makron_die                200253e0 f   m_boss32.obj
 0001:00024590       _Makron_CheckAttack        20025590 f   m_boss32.obj
 0001:00024880       _MakronPrecache            20025880 f   m_boss32.obj
 0001:000249b0       _SP_monster_makron         200259b0 f   m_boss32.obj
 0001:00024b50       _MakronSpawn               20025b50 f   m_boss32.obj
 0001:00024c10       _MakronToss                20025c10 f   m_boss32.obj
 0001:00024c80       _brain_sight               20025c80 f   m_brain.obj
 0001:00024cc0       _brain_search              20025cc0 f   m_brain.obj
 0001:00024d00       _brain_stand               20025d00 f   m_brain.obj
 0001:00024d20       _brain_idle                20025d20 f   m_brain.obj
 0001:00024d60       _brain_walk                20025d60 f   m_brain.obj
 0001:00024d80       _brain_duck_down           20025d80 f   m_brain.obj
 0001:00024df0       _brain_duck_hold           20025df0 f   m_brain.obj
 0001:00024e50       _brain_duck_up             20025e50 f   m_brain.obj
 0001:00024eb0       _brain_dodge               20025eb0 f   m_brain.obj
 0001:00024f30       _brain_swing_right         20025f30 f   m_brain.obj
 0001:00024f70       _brain_hit_right           20025f70 f   m_brain.obj
 0001:00024ff0       _brain_swing_left          20025ff0 f   m_brain.obj
 0001:00025030       _brain_hit_left            20026030 f   m_brain.obj
 0001:000250b0       _brain_chest_open          200260b0 f   m_brain.obj
 0001:00025110       _brain_tentacle_attack     20026110 f   m_brain.obj
 0001:000251b0       _brain_chest_closed        200261b0 f   m_brain.obj
 0001:00025210       _brain_melee               20026210 f   m_brain.obj
 0001:00025260       _brain_run                 20026260 f   m_brain.obj
 0001:000252b0       _brain_pain                200262b0 f   m_brain.obj
 0001:00025400       _brain_dead                20026400 f   m_brain.obj
 0001:000254a0       _brain_die                 200264a0 f   m_brain.obj
 0001:00025620       _SP_monster_brain          20026620 f   m_brain.obj
 0001:000258e0       _ChickMoan                 200268e0 f   m_chick.obj
 0001:00025960       _chick_fidget              20026960 f   m_chick.obj
 0001:000259c0       _chick_stand               200269c0 f   m_chick.obj
 0001:000259e0       _chick_walk                200269e0 f   m_chick.obj
 0001:00025a00       _chick_run                 20026a00 f   m_chick.obj
 0001:00025a70       _chick_pain                20026a70 f   m_chick.obj
 0001:00025bd0       _chick_dead                20026bd0 f   m_chick.obj
 0001:00025c70       _chick_die                 20026c70 f   m_chick.obj
 0001:00025e00       _chick_duck_down           20026e00 f   m_chick.obj
 0001:00025e90       _chick_duck_hold           20026e90 f   m_chick.obj
 0001:00025ef0       _chick_duck_up             20026ef0 f   m_chick.obj
 0001:00025f50       _chick_dodge               20026f50 f   m_chick.obj
 0001:00025fb0       _ChickSlash                20026fb0 f   m_chick.obj
 0001:00026020       _ChickRocket               20027020 f   m_chick.obj
 0001:00026100       _Chick_PreAttack1          20027100 f   m_chick.obj
 0001:00026140       _ChickReload               20027140 f   m_chick.obj
 0001:00026180       _chick_rerocket            20027180 f   m_chick.obj
 0001:00026220       _chick_attack1             20027220 f   m_chick.obj
 0001:00026240       _chick_reslash             20027240 f   m_chick.obj
 0001:000262d0       _chick_slash               200272d0 f   m_chick.obj
 0001:000262f0       _chick_melee               200272f0 f   m_chick.obj
 0001:00026310       _chick_attack              20027310 f   m_chick.obj
 0001:00026330       _chick_sight               20027330 f   m_chick.obj
 0001:00026370       _SP_monster_chick          20027370 f   m_chick.obj
 0001:00026610       _flipper_stand             20027610 f   m_flipper.obj
 0001:00026630       _flipper_run_loop          20027630 f   m_flipper.obj
 0001:00026650       _flipper_run               20027650 f   m_flipper.obj
 0001:00026670       _flipper_walk              20027670 f   m_flipper.obj
 0001:00026690       _flipper_start_run         20027690 f   m_flipper.obj
 0001:000266b0       _flipper_bite              200276b0 f   m_flipper.obj
 0001:000266f0       _flipper_preattack         200276f0 f   m_flipper.obj
 0001:00026730       _flipper_melee             20027730 f   m_flipper.obj
 0001:00026750       _flipper_pain              20027750 f   m_flipper.obj
 0001:00026850       _flipper_dead              20027850 f   m_flipper.obj
 0001:000268f0       _flipper_sight             200278f0 f   m_flipper.obj
 0001:00026930       _flipper_die               20027930 f   m_flipper.obj
 0001:00026a70       _SP_monster_flipper        20027a70 f   m_flipper.obj
 0001:00026c70       _floater_sight             20027c70 f   m_float.obj
 0001:00026cb0       _floater_idle              20027cb0 f   m_float.obj
 0001:00026cf0       _floater_fire_blaster      20027cf0 f   m_float.obj
 0001:00026de0       _floater_stand             20027de0 f   m_float.obj
 0001:00026e30       _floater_run               20027e30 f   m_float.obj
 0001:00026e70       _floater_walk              20027e70 f   m_float.obj
 0001:00026e90       _floater_wham              20027e90 f   m_float.obj
 0001:00026ef0       _floater_zap               20027ef0 f   m_float.obj
 0001:00027050       _floater_attack            20028050 f   m_float.obj
 0001:00027070       _floater_melee             20028070 f   m_float.obj
 0001:000270c0       _floater_pain              200280c0 f   m_float.obj
 0001:000271c0       _floater_dead              200281c0 f   m_float.obj
 0001:00027260       _floater_die               20028260 f   m_float.obj
 0001:000272a0       _SP_monster_floater        200282a0 f   m_float.obj
 0001:00027500       _flyer_sight               20028500 f   m_flyer.obj
 0001:00027540       _flyer_idle                20028540 f   m_flyer.obj
 0001:00027580       _flyer_pop_blades          20028580 f   m_flyer.obj
 0001:000275c0       _flyer_run                 200285c0 f   m_flyer.obj
 0001:00027600       _flyer_walk                20028600 f   m_flyer.obj
 0001:00027620       _flyer_stand               20028620 f   m_flyer.obj
 0001:00027640       _flyer_stop                20028640 f   m_flyer.obj
 0001:00027660       _flyer_start               20028660 f   m_flyer.obj
 0001:00027680       _flyer_fire                20028680 f   m_flyer.obj
 0001:00027780       _flyer_fireleft            20028780 f   m_flyer.obj
 0001:000277a0       _flyer_fireright           200287a0 f   m_flyer.obj
 0001:000277c0       _flyer_slash_left          200287c0 f   m_flyer.obj
 0001:00027820       _flyer_slash_right         20028820 f   m_flyer.obj
 0001:00027880       _flyer_loop_melee          20028880 f   m_flyer.obj
 0001:000278a0       _flyer_attack              200288a0 f   m_flyer.obj
 0001:000278c0       _flyer_setstart            200288c0 f   m_flyer.obj
 0001:000278f0       _flyer_nextmove            200288f0 f   m_flyer.obj
 0001:00027950       _flyer_melee               20028950 f   m_flyer.obj
 0001:00027970       _flyer_check_melee         20028970 f   m_flyer.obj
 0001:000279f0       _flyer_pain                200289f0 f   m_flyer.obj
 0001:00027b20       _flyer_die                 20028b20 f   m_flyer.obj
 0001:00027b60       _SP_monster_flyer          20028b60 f   m_flyer.obj
 0001:00027dd0       _gladiator_idle            20028dd0 f   m_gladiator.obj
 0001:00027e10       _gladiator_sight           20028e10 f   m_gladiator.obj
 0001:00027e50       _gladiator_search          20028e50 f   m_gladiator.obj
 0001:00027e90       _gladiator_cleaver_swing   20028e90 f   m_gladiator.obj
 0001:00027ed0       _gladiator_stand           20028ed0 f   m_gladiator.obj
 0001:00027ef0       _gladiator_walk            20028ef0 f   m_gladiator.obj
 0001:00027f10       _gladiator_run             20028f10 f   m_gladiator.obj
 0001:00027f50       _GaldiatorMelee            20028f50 f   m_gladiator.obj
 0001:00027ff0       _gladiator_melee           20028ff0 f   m_gladiator.obj
 0001:00028010       _GladiatorGun              20029010 f   m_gladiator.obj
 0001:000280b0       _gladiator_attack          200290b0 f   m_gladiator.obj
 0001:000281b0       _gladiator_pain            200291b0 f   m_gladiator.obj
 0001:00028300       _gladiator_dead            20029300 f   m_gladiator.obj
 0001:000283a0       _gladiator_die             200293a0 f   m_gladiator.obj
 0001:000284e0       _SP_monster_gladiator      200294e0 f   m_gladiator.obj
 0001:00028740       _gunner_idlesound          20029740 f   m_gunner.obj
 0001:00028780       _gunner_sight              20029780 f   m_gunner.obj
 0001:000287c0       _gunner_search             200297c0 f   m_gunner.obj
 0001:00028800       _gunner_fidget             20029800 f   m_gunner.obj
 0001:00028860       _gunner_stand              20029860 f   m_gunner.obj
 0001:00028880       _gunner_walk               20029880 f   m_gunner.obj
 0001:000288a0       _gunner_run                200298a0 f   m_gunner.obj
 0001:000288e0       _gunner_runandshoot        200298e0 f   m_gunner.obj
 0001:00028900       _gunner_pain               20029900 f   m_gunner.obj
 0001:00028a10       _gunner_dead               20029a10 f   m_gunner.obj
 0001:00028ab0       _gunner_die                20029ab0 f   m_gunner.obj
 0001:00028bf0       _gunner_duck_down          20029bf0 f   m_gunner.obj
 0001:00028cc0       _gunner_duck_hold          20029cc0 f   m_gunner.obj
 0001:00028d20       _gunner_duck_up            20029d20 f   m_gunner.obj
 0001:00028d80       _gunner_dodge              20029d80 f   m_gunner.obj
 0001:00028de0       _gunner_opengun            20029de0 f   m_gunner.obj
 0001:00028e20       _GunnerFire                20029e20 f   m_gunner.obj
 0001:00028f40       _GunnerGrenade             20029f40 f   m_gunner.obj
 0001:00029000       _gunner_attack             2002a000 f   m_gunner.obj
 0001:00029080       _gunner_fire_chain         2002a080 f   m_gunner.obj
 0001:000290a0       _gunner_refire_chain       2002a0a0 f   m_gunner.obj
 0001:00029120       _SP_monster_gunner         2002a120 f   m_gunner.obj
 0001:00029350       _hover_sight               2002a350 f   m_hover.obj
 0001:00029390       _hover_search              2002a390 f   m_hover.obj
 0001:00029410       _hover_reattack            2002a410 f   m_hover.obj
 0001:00029490       _hover_fire_blaster        2002a490 f   m_hover.obj
 0001:00029580       _hover_stand               2002a580 f   m_hover.obj
 0001:000295a0       _hover_run                 2002a5a0 f   m_hover.obj
 0001:000295e0       _hover_walk                2002a5e0 f   m_hover.obj
 0001:00029600       _hover_start_attack        2002a600 f   m_hover.obj
 0001:00029620       _hover_attack              2002a620 f   m_hover.obj
 0001:00029640       _hover_pain                2002a640 f   m_hover.obj
 0001:00029780       _hover_deadthink           2002a780 f   m_hover.obj
 0001:000297e0       _hover_dead                2002a7e0 f   m_hover.obj
 0001:00029890       _hover_die                 2002a890 f   m_hover.obj
 0001:00029a10       _SP_monster_hover          2002aa10 f   m_hover.obj
 0001:00029c30       _infantry_stand            2002ac30 f   m_infantry.obj
 0001:00029c50       _infantry_fidget           2002ac50 f   m_infantry.obj
 0001:00029c90       _infantry_walk             2002ac90 f   m_infantry.obj
 0001:00029cb0       _infantry_run              2002acb0 f   m_infantry.obj
 0001:00029cf0       _infantry_pain             2002acf0 f   m_infantry.obj
 0001:00029df0       _InfantryMachineGun        2002adf0 f   m_infantry.obj
 0001:00029fd0       _infantry_sight            2002afd0 f   m_infantry.obj
 0001:0002a010       _infantry_dead             2002b010 f   m_infantry.obj
 0001:0002a0b0       _infantry_die              2002b0b0 f   m_infantry.obj
 0001:0002a270       _infantry_duck_down        2002b270 f   m_infantry.obj
 0001:0002a300       _infantry_duck_hold        2002b300 f   m_infantry.obj
 0001:0002a360       _infantry_duck_up          2002b360 f   m_infantry.obj
 0001:0002a3c0       _infantry_dodge            2002b3c0 f   m_infantry.obj
 0001:0002a420       _infantry_cock_gun         2002b420 f   m_infantry.obj
 0001:0002a480       _infantry_fire             2002b480 f   m_infantry.obj
 0001:0002a4e0       _infantry_swing            2002b4e0 f   m_infantry.obj
 0001:0002a520       _infantry_smack            2002b520 f   m_infantry.obj
 0001:0002a590       _infantry_attack           2002b590 f   m_infantry.obj
 0001:0002a5e0       _SP_monster_infantry       2002b5e0 f   m_infantry.obj
 0001:0002a840       _insane_fist               2002b840 f   m_insane.obj
 0001:0002a880       _insane_shake              2002b880 f   m_insane.obj
 0001:0002a8c0       _insane_moan               2002b8c0 f   m_insane.obj
 0001:0002a900       _insane_scream             2002b900 f   m_insane.obj
 0001:0002a950       _insane_cross              2002b950 f   m_insane.obj
 0001:0002a9a0       _insane_walk               2002b9a0 f   m_insane.obj
 0001:0002aa40       _insane_run                2002ba40 f   m_insane.obj
 0001:0002aae0       _insane_pain               2002bae0 f   m_insane.obj
 0001:0002ac30       _insane_onground           2002bc30 f   m_insane.obj
 0001:0002ac50       _insane_checkdown          2002bc50 f   m_insane.obj
 0001:0002ace0       _insane_checkup            2002bce0 f   m_insane.obj
 0001:0002ad50       _insane_stand              2002bd50 f   m_insane.obj
 0001:0002ae10       _insane_dead               2002be10 f   m_insane.obj
 0001:0002aed0       _insane_die                2002bed0 f   m_insane.obj
 0001:0002b090       _SP_misc_insane            2002c090 f   m_insane.obj
 0001:0002b3b0       _medic_FindDeadMonster     2002c3b0 f   m_medic.obj
 0001:0002b4b0       _medic_idle                2002c4b0 f   m_medic.obj
 0001:0002b540       _medic_search              2002c540 f   m_medic.obj
 0001:0002b5f0       _medic_sight               2002c5f0 f   m_medic.obj
 0001:0002b630       _medic_stand               2002c630 f   m_medic.obj
 0001:0002b650       _medic_walk                2002c650 f   m_medic.obj
 0001:0002b670       _medic_run                 2002c670 f   m_medic.obj
 0001:0002b730       _medic_pain                2002c730 f   m_medic.obj
 0001:0002b840       _medic_fire_blaster        2002c840 f   m_medic.obj
 0001:0002b970       _medic_dead                2002c970 f   m_medic.obj
 0001:0002ba10       _medic_die                 2002ca10 f   m_medic.obj
 0001:0002bb80       _medic_duck_down           2002cb80 f   m_medic.obj
 0001:0002bc10       _medic_duck_hold           2002cc10 f   m_medic.obj
 0001:0002bc70       _medic_duck_up             2002cc70 f   m_medic.obj
 0001:0002bcd0       _medic_dodge               2002ccd0 f   m_medic.obj
 0001:0002bd30       _medic_continue            2002cd30 f   m_medic.obj
 0001:0002bd90       _medic_hook_launch         2002cd90 f   m_medic.obj
 0001:0002bdd0       _medic_cable_attack        2002cdd0 f   m_medic.obj
 0001:0002c240       _medic_hook_retract        2002d240 f   m_medic.obj
 0001:0002c2a0       _medic_attack              2002d2a0 f   m_medic.obj
 0001:0002c2e0       _medic_checkattack         2002d2e0 f   m_medic.obj
 0001:0002c330       _SP_monster_medic          2002d330 f   m_medic.obj
 0001:0002c5b0       _M_CheckBottom             2002d5b0 f   m_move.obj
 0001:0002c8c0       _SV_movestep               2002d8c0 f   m_move.obj
 0001:0002cec0       _M_ChangeYaw               2002dec0 f   m_move.obj
 0001:0002cfb0       _SV_StepDirection          2002dfb0 f   m_move.obj
 0001:0002d0e0       _SV_FixCheckBottom         2002e0e0 f   m_move.obj
 0001:0002d110       _SV_NewChaseDir            2002e110 f   m_move.obj
 0001:0002d460       _SV_CloseEnough            2002e460 f   m_move.obj
 0001:0002d4e0       _M_MoveToGoal              2002e4e0 f   m_move.obj
 0001:0002d590       _M_walkmove                2002e590 f   m_move.obj
 0001:0002d620       _mutant_step               2002e620 f   m_mutant.obj
 0001:0002d6c0       _mutant_sight              2002e6c0 f   m_mutant.obj
 0001:0002d700       _mutant_search             2002e700 f   m_mutant.obj
 0001:0002d740       _mutant_swing              2002e740 f   m_mutant.obj
 0001:0002d780       _mutant_stand              2002e780 f   m_mutant.obj
 0001:0002d7a0       _mutant_idle_loop          2002e7a0 f   m_mutant.obj
 0001:0002d7e0       _mutant_idle               2002e7e0 f   m_mutant.obj
 0001:0002d820       _mutant_walk_loop          2002e820 f   m_mutant.obj
 0001:0002d840       _mutant_walk               2002e840 f   m_mutant.obj
 0001:0002d860       _mutant_run                2002e860 f   m_mutant.obj
 0001:0002d8a0       _mutant_hit_left           2002e8a0 f   m_mutant.obj
 0001:0002d940       _mutant_hit_right          2002e940 f   m_mutant.obj
 0001:0002d9e0       _mutant_check_refire       2002e9e0 f   m_mutant.obj
 0001:0002da80       _mutant_melee              2002ea80 f   m_mutant.obj
 0001:0002daa0       _mutant_jump_touch         2002eaa0 f   m_mutant.obj
 0001:0002dc00       _mutant_jump_takeoff       2002ec00 f   m_mutant.obj
 0001:0002dcd0       _mutant_check_landing      2002ecd0 f   m_mutant.obj
 0001:0002dd70       _mutant_jump               2002ed70 f   m_mutant.obj
 0001:0002dd90       _mutant_check_melee        2002ed90 f   m_mutant.obj
 0001:0002ddd0       _mutant_check_jump         2002edd0 f   m_mutant.obj
 0001:0002def0       _mutant_checkattack        2002eef0 f   m_mutant.obj
 0001:0002df70       _mutant_pain               2002ef70 f   m_mutant.obj
 0001:0002e0c0       _mutant_dead               2002f0c0 f   m_mutant.obj
 0001:0002e160       _mutant_die                2002f160 f   m_mutant.obj
 0001:0002e2e0       _SP_monster_mutant         2002f2e0 f   m_mutant.obj
 0001:0002e580       _parasite_launch           2002f580 f   m_parasite.obj
 0001:0002e5c0       _parasite_reel_in          2002f5c0 f   m_parasite.obj
 0001:0002e600       _parasite_sight            2002f600 f   m_parasite.obj
 0001:0002e640       _parasite_tap              2002f640 f   m_parasite.obj
 0001:0002e680       _parasite_scratch          2002f680 f   m_parasite.obj
 0001:0002e6c0       _parasite_search           2002f6c0 f   m_parasite.obj
 0001:0002e700       _parasite_end_fidget       2002f700 f   m_parasite.obj
 0001:0002e720       _parasite_do_fidget        2002f720 f   m_parasite.obj
 0001:0002e740       _parasite_refidget         2002f740 f   m_parasite.obj
 0001:0002e790       _parasite_idle             2002f790 f   m_parasite.obj
 0001:0002e7b0       _parasite_stand            2002f7b0 f   m_parasite.obj
 0001:0002e7d0       _parasite_start_run        2002f7d0 f   m_parasite.obj
 0001:0002e810       _parasite_run              2002f810 f   m_parasite.obj
 0001:0002e850       _parasite_start_walk       2002f850 f   m_parasite.obj
 0001:0002e870       _parasite_walk             2002f870 f   m_parasite.obj
 0001:0002e890       _parasite_pain             2002f890 f   m_parasite.obj
 0001:0002e980       _parasite_drain_attack     2002f980 f   m_parasite.obj
 0001:0002ece0       _parasite_attack           2002fce0 f   m_parasite.obj
 0001:0002ed00       _parasite_dead             2002fd00 f   m_parasite.obj
 0001:0002eda0       _parasite_die              2002fda0 f   m_parasite.obj
 0001:0002eee0       _SP_monster_parasite       2002fee0 f   m_parasite.obj
 0001:0002f130       _soldier_idle              20030130 f   m_soldier.obj
 0001:0002f190       _soldier_cock              20030190 f   m_soldier.obj
 0001:0002f200       _soldier_stand             20030200 f   m_soldier.obj
 0001:0002f260       _soldier_walk1_random      20030260 f   m_soldier.obj
 0001:0002f2a0       _soldier_walk              200302a0 f   m_soldier.obj
 0001:0002f2f0       _soldier_run               200302f0 f   m_soldier.obj
 0001:0002f370       _soldier_pain              20030370 f   m_soldier.obj
 0001:0002f550       _soldier_fire              20030550 f   m_soldier.obj
 0001:0002f860       _soldier_fire1             20030860 f   m_soldier.obj
 0001:0002f880       _soldier_attack1_refire1   20030880 f   m_soldier.obj
 0001:0002f920       _soldier_attack1_refire2   20030920 f   m_soldier.obj
 0001:0002f9b0       _soldier_fire2             200309b0 f   m_soldier.obj
 0001:0002f9d0       _soldier_attack2_refire1   200309d0 f   m_soldier.obj
 0001:0002fa70       _soldier_attack2_refire2   20030a70 f   m_soldier.obj
 0001:0002fb00       _soldier_duck_down         20030b00 f   m_soldier.obj
 0001:0002fb90       _soldier_duck_up           20030b90 f   m_soldier.obj
 0001:0002fbf0       _soldier_fire3             20030bf0 f   m_soldier.obj
 0001:0002fc20       _soldier_attack3_refire    20030c20 f   m_soldier.obj
 0001:0002fc60       _soldier_fire4             20030c60 f   m_soldier.obj
 0001:0002fc80       _soldier_fire8             20030c80 f   m_soldier.obj
 0001:0002fca0       _soldier_attack6_refire    20030ca0 f   m_soldier.obj
 0001:0002fd10       _soldier_attack            20030d10 f   m_soldier.obj
 0001:0002fd80       _soldier_sight             20030d80 f   m_soldier.obj
 0001:0002fe60       _soldier_duck_hold         20030e60 f   m_soldier.obj
 0001:0002fec0       _soldier_dodge             20030ec0 f   m_soldier.obj
 0001:00030000       _soldier_fire6             20031000 f   m_soldier.obj
 0001:00030020       _soldier_fire7             20031020 f   m_soldier.obj
 0001:00030040       _soldier_dead              20031040 f   m_soldier.obj
 0001:000300e0       _soldier_die               200310e0 f   m_soldier.obj
 0001:00030310       _SP_monster_soldier_x      20031310 f   m_soldier.obj
 0001:000304a0       _SP_monster_soldier_light  200314a0 f   m_soldier.obj
 0001:00030560       _SP_monster_soldier        20031560 f   m_soldier.obj
 0001:00030600       _SP_monster_soldier_ss     20031600 f   m_soldier.obj
 0001:000306a0       _TreadSound                200316a0 f   m_supertank.obj
 0001:000306e0       _supertank_search          200316e0 f   m_supertank.obj
 0001:00030760       _supertank_stand           20031760 f   m_supertank.obj
 0001:00030780       _supertank_forward         20031780 f   m_supertank.obj
 0001:000307a0       _supertank_walk            200317a0 f   m_supertank.obj
 0001:000307c0       _supertank_run             200317c0 f   m_supertank.obj
 0001:00030800       _supertank_reattack1       20031800 f   m_supertank.obj
 0001:00030880       _supertank_pain            20031880 f   m_supertank.obj
 0001:00030a00       _supertankRocket           20031a00 f   m_supertank.obj
 0001:00030b10       _supertankMachineGun       20031b10 f   m_supertank.obj
 0001:00030c50       _supertank_attack          20031c50 f   m_supertank.obj
 0001:00030d10       _supertank_dead            20031d10 f   m_supertank.obj
 0001:00030db0       _BossExplode               20031db0 f   m_supertank.obj
 0001:00031040       _supertank_die             20032040 f   m_supertank.obj
 0001:000310b0       _SP_monster_supertank      200320b0 f   m_supertank.obj
 0001:000312d0       _tank_sight                200322d0 f   m_tank.obj
 0001:00031310       _tank_footstep             20032310 f   m_tank.obj
 0001:00031350       _tank_thud                 20032350 f   m_tank.obj
 0001:00031390       _tank_windup               20032390 f   m_tank.obj
 0001:000313d0       _tank_idle                 200323d0 f   m_tank.obj
 0001:00031410       _tank_stand                20032410 f   m_tank.obj
 0001:00031430       _tank_walk                 20032430 f   m_tank.obj
 0001:00031450       _tank_run                  20032450 f   m_tank.obj
 0001:00031500       _tank_pain                 20032500 f   m_tank.obj
 0001:00031660       _TankBlaster               20032660 f   m_tank.obj
 0001:00031760       _TankStrike                20032760 f   m_tank.obj
 0001:000317a0       _TankRocket                200327a0 f   m_tank.obj
 0001:000318b0       _TankMachineGun            200328b0 f   m_tank.obj
 0001:00031a30       _tank_reattack_blaster     20032a30 f   m_tank.obj
 0001:00031ac0       _tank_poststrike           20032ac0 f   m_tank.obj
 0001:00031af0       _tank_refire_rocket        20032af0 f   m_tank.obj
 0001:00031b80       _tank_doattack_rocket      20032b80 f   m_tank.obj
 0001:00031ba0       _tank_attack               20032ba0 f   m_tank.obj
 0001:00031d30       _tank_dead                 20032d30 f   m_tank.obj
 0001:00031dd0       _tank_die                  20032dd0 f   m_tank.obj
 0001:00031f20       _SP_monster_tank           20032f20 f   m_tank.obj
 0001:00032210       _SP_info_player_start      20033210 f   p_client.obj
 0001:00032380       _SP_info_player_deathmatch 20033380 f   p_client.obj
 0001:000323c0       _SP_info_player_coop       200333c0 f   p_client.obj
 0001:00032660       _SP_info_player_intermission 20033660 f   p_client.obj
 0001:00032670       _player_pain               20033670 f   p_client.obj
 0001:00032680       _IsFemale                  20033680 f   p_client.obj
 0001:000326e0       _IsNeutral                 200336e0 f   p_client.obj
 0001:00032750       _ClientObituary            20033750 f   p_client.obj
 0001:00032ce0       _TossClientWeapon          20033ce0 f   p_client.obj
 0001:00032ef0       _LookAtKiller              20033ef0 f   p_client.obj
 0001:00033070       _player_die                20034070 f   p_client.obj
 0001:00033440       _InitClientPersistant      20034440 f   p_client.obj
 0001:00033530       _InitClientResp            20034530 f   p_client.obj
 0001:00033580       _SaveClientData            20034580 f   p_client.obj
 0001:00033670       _FetchClientEntData        20034670 f   p_client.obj
 0001:00033700       _PlayersRangeFromSpot      20034700 f   p_client.obj
 0001:000337c0       _SelectRandomDeathmatchSpawnPoint 200347c0 f   p_client.obj
 0001:000338f0       _SelectFarthestDeathmatchSpawnPoint 200348f0 f   p_client.obj
 0001:00033980       _SelectDeathmatchSpawnPoint 20034980 f   p_client.obj
 0001:000339c0       _SelectCoopSpawnPoint      200349c0 f   p_client.obj
 0001:00033a80       _SelectSpawnPoint          20034a80 f   p_client.obj
 0001:00033bf0       _InitBodyQue               20034bf0 f   p_client.obj
 0001:00033c40       _body_die                  20034c40 f   p_client.obj
 0001:00033cf0       _CopyToBodyQue             20034cf0 f   p_client.obj
 0001:00033f10       _respawn                   20034f10 f   p_client.obj
 0001:00033fd0       _spectator_respawn         20034fd0 f   p_client.obj
 0001:00034330       _PutClientInServer         20035330 f   p_client.obj
 0001:00034a00       _ClientBeginDeathmatch     20035a00 f   p_client.obj
 0001:00034ad0       _ClientBegin               20035ad0 f   p_client.obj
 0001:00034c50       _ClientUserinfoChanged     20035c50 f   p_client.obj
 0001:00034e80       _ClientConnect             20035e80 f   p_client.obj
 0001:00035160       _ClientDisconnect          20036160 f   p_client.obj
 0001:00035260       _PM_trace                  20036260 f   p_client.obj
 0001:00035300       _CheckBlock                20036300 f   p_client.obj
 0001:00035350       _PrintPmove                20036350 f   p_client.obj
 0001:000353b0       _ClientThink               200363b0 f   p_client.obj
 0001:00035ac0       _ClientBeginServerFrame    20036ac0 f   p_client.obj
 0001:00035c70       _MoveClientToIntermission  20036c70 f   p_hud.obj
 0001:00035ea0       _BeginIntermission         20036ea0 f   p_hud.obj
 0001:00036190       _DeathmatchScoreboardMessage 20037190 f   p_hud.obj
 0001:000365c0       _DeathmatchScoreboard      200375c0 f   p_hud.obj
 0001:00036600       _Cmd_Score_f               20037600 f   p_hud.obj
 0001:000366a0       _HelpComputer              200376a0 f   p_hud.obj
 0001:000367b0       _Cmd_Help_f                200377b0 f   p_hud.obj
 0001:00036870       _G_SetStats                20037870 f   p_hud.obj
 0001:00036eb0       _G_CheckChaseStats         20037eb0 f   p_hud.obj
 0001:00036f60       _G_SetSpectatorStats       20037f60 f   p_hud.obj
 0001:00037070       _PlayerTrail_Init          20038070 f   p_trail.obj
 0001:000370f0       _PlayerTrail_Add           200380f0 f   p_trail.obj
 0001:000371f0       _PlayerTrail_New           200381f0 f   p_trail.obj
 0001:00037220       _PlayerTrail_PickFirst     20038220 f   p_trail.obj
 0001:00037300       _PlayerTrail_PickNext      20038300 f   p_trail.obj
 0001:00037380       _PlayerTrail_LastSpot      20038380 f   p_trail.obj
 0001:000373b0       _SV_CalcRoll               200383b0 f   p_view.obj
 0001:00037460       _P_DamageFeedback          20038460 f   p_view.obj
 0001:000379e0       _SV_CalcViewOffset         200389e0 f   p_view.obj
 0001:00037e20       _SV_CalcGunOffset          20038e20 f   p_view.obj
 0001:00038080       _SV_AddBlend               20039080 f   p_view.obj
 0001:00038130       _SV_CalcBlend              20039130 f   p_view.obj
 0001:00038620       _P_FallingDamage           20039620 f   p_view.obj
 0001:000388a0       _P_WorldEffects            200398a0 f   p_view.obj
 0001:00039090       _G_SetClientEffects        2003a090 f   p_view.obj
 0001:00039210       _G_SetClientEvent          2003a210 f   p_view.obj
 0001:00039280       _G_SetClientSound          2003a280 f   p_view.obj
 0001:00039410       _G_SetClientFrame          2003a410 f   p_view.obj
 0001:00039660       _ClientEndServerFrame      2003a660 f   p_view.obj
 0001:00039ad0       _PlayerNoise               2003aad0 f   p_weapon.obj
 0001:00039d80       _Pickup_Weapon             2003ad80 f   p_weapon.obj
 0001:00039fb0       _ChangeWeapon              2003afb0 f   p_weapon.obj
 0001:0003a1e0       _NoAmmoWeaponChange        2003b1e0 f   p_weapon.obj
 0001:0003a4c0       _Think_Weapon              2003b4c0 f   p_weapon.obj
 0001:0003a580       _Use_Weapon                2003b580 f   p_weapon.obj
 0001:0003a690       _Drop_Weapon               2003b690 f   p_weapon.obj
 0001:0003a750       _Weapon_Generic            2003b750 f   p_weapon.obj
 0001:0003ac10       _weapon_grenade_fire       2003bc10 f   p_weapon.obj
 0001:0003ae80       _Weapon_Grenade            2003be80 f   p_weapon.obj
 0001:0003b260       _weapon_grenadelauncher_fire 2003c260 f   p_weapon.obj
 0001:0003b420       _Weapon_GrenadeLauncher    2003c420 f   p_weapon.obj
 0001:0003b460       _Weapon_RocketLauncher_Fire 2003c460 f   p_weapon.obj
 0001:0003b640       _Weapon_RocketLauncher     2003c640 f   p_weapon.obj
 0001:0003b680       _Blaster_Fire              2003c680 f   p_weapon.obj
 0001:0003b800       _Weapon_Blaster_Fire       2003c800 f   p_weapon.obj
 0001:0003b870       _Weapon_Blaster            2003c870 f   p_weapon.obj
 0001:0003b8b0       _Weapon_HyperBlaster_Fire  2003c8b0 f   p_weapon.obj
 0001:0003bb80       _Weapon_HyperBlaster       2003cb80 f   p_weapon.obj
 0001:0003bbc0       _Machinegun_Fire           2003cbc0 f   p_weapon.obj
 0001:0003c040       _Weapon_Machinegun         2003d040 f   p_weapon.obj
 0001:0003c080       _Chaingun_Fire             2003d080 f   p_weapon.obj
 0001:0003c5c0       _Weapon_Chaingun           2003d5c0 f   p_weapon.obj
 0001:0003c600       _weapon_shotgun_fire       2003d600 f   p_weapon.obj
 0001:0003c820       _Weapon_Shotgun            2003d820 f   p_weapon.obj
 0001:0003c860       _weapon_supershotgun_fire  2003d860 f   p_weapon.obj
 0001:0003cac0       _Weapon_SuperShotgun       2003dac0 f   p_weapon.obj
 0001:0003cb00       _weapon_railgun_fire       2003db00 f   p_weapon.obj
 0001:0003ccd0       _Weapon_Railgun            2003dcd0 f   p_weapon.obj
 0001:0003cd10       _weapon_bfg_fire           2003dd10 f   p_weapon.obj
 0001:0003cf90       _Weapon_BFG                2003df90 f   p_weapon.obj
 0001:0003cfd0       _RotatePointAroundVector   2003dfd0 f   q_shared.obj
 0001:0003d210       _AngleVectors              2003e210 f   q_shared.obj
 0001:0003d400       _ProjectPointOnPlane       2003e400 f   q_shared.obj
 0001:0003d4d0       _PerpendicularVector       2003e4d0 f   q_shared.obj
 0001:0003d590       _R_ConcatRotations         2003e590 f   q_shared.obj
 0001:0003d740       _R_ConcatTransforms        2003e740 f   q_shared.obj
 0001:0003d990       _Q_fabs                    2003e990 f   q_shared.obj
 0001:0003d9c0       _Q_ftol                    2003e9c0 f   q_shared.obj
 0001:0003d9d0       _LerpAngle                 2003e9d0 f   q_shared.obj
 0001:0003da30       _anglemod                  2003ea30 f   q_shared.obj
 0001:0003da70       _BoxOnPlaneSide2           2003ea70 f   q_shared.obj
 0001:0003db80       _BoxOnPlaneSide            2003eb80 f   q_shared.obj
 0001:0003de00       _ClearBounds               2003ee00 f   q_shared.obj
 0001:0003de50       _AddPointToBounds          2003ee50 f   q_shared.obj
 0001:0003ded0       _VectorCompare             2003eed0 f   q_shared.obj
 0001:0003df20       _VectorNormalize           2003ef20 f   q_shared.obj
 0001:0003dfc0       _VectorNormalize2          2003efc0 f   q_shared.obj
 0001:0003e060       _VectorMA                  2003f060 f   q_shared.obj
 0001:0003e0b0       __DotProduct               2003f0b0 f   q_shared.obj
 0001:0003e0f0       __VectorSubtract           2003f0f0 f   q_shared.obj
 0001:0003e140       __VectorAdd                2003f140 f   q_shared.obj
 0001:0003e190       __VectorCopy               2003f190 f   q_shared.obj
 0001:0003e1d0       _CrossProduct              2003f1d0 f   q_shared.obj
 0001:0003e240       _VectorLength              2003f240 f   q_shared.obj
 0001:0003e2a0       _VectorInverse             2003f2a0 f   q_shared.obj
 0001:0003e2e0       _VectorScale               2003f2e0 f   q_shared.obj
 0001:0003e320       _Q_log2                    2003f320 f   q_shared.obj
 0001:0003e360       _COM_SkipPath              2003f360 f   q_shared.obj
 0001:0003e3b0       _COM_StripExtension        2003f3b0 f   q_shared.obj
 0001:0003e400       _COM_FileExtension         2003f400 f   q_shared.obj
 0001:0003e4a0       _COM_FileBase              2003f4a0 f   q_shared.obj
 0001:0003e550       _COM_FilePath              2003f550 f   q_shared.obj
 0001:0003e5c0       _COM_DefaultExtension      2003f5c0 f   q_shared.obj
 0001:0003e630       _BigShort                  2003f630 f   q_shared.obj
 0001:0003e650       _LittleShort               2003f650 f   q_shared.obj
 0001:0003e670       _BigLong                   2003f670 f   q_shared.obj
 0001:0003e690       _LittleLong                2003f690 f   q_shared.obj
 0001:0003e6b0       _BigFloat                  2003f6b0 f   q_shared.obj
 0001:0003e6d0       _LittleFloat               2003f6d0 f   q_shared.obj
 0001:0003e6f0       _ShortSwap                 2003f6f0 f   q_shared.obj
 0001:0003e740       _ShortNoSwap               2003f740 f   q_shared.obj
 0001:0003e760       _LongSwap                  2003f760 f   q_shared.obj
 0001:0003e7e0       _LongNoSwap                2003f7e0 f   q_shared.obj
 0001:0003e800       _FloatSwap                 2003f800 f   q_shared.obj
 0001:0003e840       _FloatNoSwap               2003f840 f   q_shared.obj
 0001:0003e860       _Swap_Init                 2003f860 f   q_shared.obj
 0001:0003e910       _va                        2003f910 f   q_shared.obj
 0001:0003e950       _COM_Parse                 2003f950 f   q_shared.obj
 0001:0003ead0       _Com_PageInMemory          2003fad0 f   q_shared.obj
 0001:0003eb20       _Q_stricmp                 2003fb20 f   q_shared.obj
 0001:0003eb40       _Q_strncasecmp             2003fb40 f   q_shared.obj
 0001:0003ebd0       _Q_strcasecmp              2003fbd0 f   q_shared.obj
 0001:0003ec00       _Com_sprintf               2003fc00 f   q_shared.obj
 0001:0003ec80       _Info_ValueForKey          2003fc80 f   q_shared.obj
 0001:0003ede0       _Info_RemoveKey            2003fde0 f   q_shared.obj
 0001:0003ef30       _Info_Validate             2003ff30 f   q_shared.obj
 0001:0003ef80       _Info_SetValueForKey       2003ff80 f   q_shared.obj
 0001:0003f180       __fpmath                   20040180 f   LIBCMTD:fpinit.obj
 0001:0003f1b0       __fpclear                  200401b0 f   LIBCMTD:fpinit.obj
 0001:0003f1c0       __cfltcvt_init             200401c0 f   LIBCMTD:fpinit.obj
 0001:0003f210       ___setfflag                20040210 f   LIBCMTD:fpinit.obj
 0001:0003f230       _srand                     20040230 f   LIBCMTD:rand.obj
 0001:0003f240       _rand                      20040240 f   LIBCMTD:rand.obj
 0001:0003f278       __ftol                     20040278 f   LIBCMTD:ftol.obj
 0001:0003f2a0       _strcmp                    200402a0 f   LIBCMTD:strcmp.obj
 0001:0003f340       _strchr                    20040340 f   LIBCMTD:strchr.obj
 0001:0003f346       ___from_strstr_to_strchr   20040346 f   LIBCMTD:strchr.obj
 0001:0003f400       _strcpy                    20040400 f   LIBCMTD:strcat.obj
 0001:0003f410       _strcat                    20040410 f   LIBCMTD:strcat.obj
 0001:0003f4f0       _atol                      200404f0 f   LIBCMTD:atox.obj
 0001:0003f5f0       _atoi                      200405f0 f   LIBCMTD:atox.obj
 0001:0003f610       __atoi64                   20040610 f   LIBCMTD:atox.obj
 0001:0003f740       _strlen                    20040740 f   LIBCMTD:strlen.obj
 0001:0003f7c0       _qsort                     200407c0 f   LIBCMTD:qsort.obj
 0001:0003fac0       _sprintf                   20040ac0 f   LIBCMTD:sprintf.obj
 0001:0003fbc0       _ceil                      20040bc0 f   LIBCMTD:ceil.obj
 0001:0003fd00       _floor                     20040d00 f   LIBCMTD:floor.obj
 0001:0003fe40       __CIsqrt                   20040e40 f   LIBCMTD:sqrt.obj
 0001:0003fe54       _sqrt                      20040e54 f   LIBCMTD:sqrt.obj
 0001:0003ff00       _fabs                      20040f00 f   LIBCMTD:fabs.obj
 0001:00040000       _memcpy                    20041000 f   LIBCMTD:memcpy.obj
 0001:00040340       _vsprintf                  20041340 f   LIBCMTD:vsprintf.obj
 0001:00040440       _malloc                    20041440 f   LIBCMTD:dbgheap.obj
 0001:00040460       __malloc_dbg               20041460 f   LIBCMTD:dbgheap.obj
 0001:00040490       __nh_malloc                20041490 f   LIBCMTD:dbgheap.obj
 0001:000404b0       __nh_malloc_dbg            200414b0 f   LIBCMTD:dbgheap.obj
 0001:00040510       __heap_alloc               20041510 f   LIBCMTD:dbgheap.obj
 0001:00040530       __heap_alloc_dbg           20041530 f   LIBCMTD:dbgheap.obj
 0001:00040850       _calloc                    20041850 f   LIBCMTD:dbgheap.obj
 0001:00040870       __calloc_dbg               20041870 f   LIBCMTD:dbgheap.obj
 0001:000408d0       _realloc                   200418d0 f   LIBCMTD:dbgheap.obj
 0001:000408f0       __realloc_dbg              200418f0 f   LIBCMTD:dbgheap.obj
 0001:00040e50       __expand                   20041e50 f   LIBCMTD:dbgheap.obj
 0001:00040e70       __expand_dbg               20041e70 f   LIBCMTD:dbgheap.obj
 0001:00040eb0       _free                      20041eb0 f   LIBCMTD:dbgheap.obj
 0001:00040ed0       __free_lk                  20041ed0 f   LIBCMTD:dbgheap.obj
 0001:00040ef0       __free_dbg                 20041ef0 f   LIBCMTD:dbgheap.obj
 0001:00040f20       __free_dbg_lk              20041f20 f   LIBCMTD:dbgheap.obj
 0001:00041310       __msize                    20042310 f   LIBCMTD:dbgheap.obj
 0001:00041330       __msize_dbg                20042330 f   LIBCMTD:dbgheap.obj
 0001:00041490       __CrtSetBreakAlloc         20042490 f   LIBCMTD:dbgheap.obj
 0001:000414b0       __CrtSetDbgBlockType       200424b0 f   LIBCMTD:dbgheap.obj
 0001:00041550       __CrtSetAllocHook          20042550 f   LIBCMTD:dbgheap.obj
 0001:00041600       __CrtCheckMemory           20042600 f   LIBCMTD:dbgheap.obj
 0001:00041970       __CrtSetDbgFlag            20042970 f   LIBCMTD:dbgheap.obj
 0001:000419a0       __CrtDoForAllClientObjects 200429a0 f   LIBCMTD:dbgheap.obj
 0001:00041a10       __CrtIsValidPointer        20042a10 f   LIBCMTD:dbgheap.obj
 0001:00041a60       __CrtIsValidHeapPointer    20042a60 f   LIBCMTD:dbgheap.obj
 0001:00041af0       __CrtIsMemoryBlock         20042af0 f   LIBCMTD:dbgheap.obj
 0001:00041be0       __CrtSetDumpClient         20042be0 f   LIBCMTD:dbgheap.obj
 0001:00041c00       __CrtMemCheckpoint         20042c00 f   LIBCMTD:dbgheap.obj
 0001:00041d70       __CrtMemDifference         20042d70 f   LIBCMTD:dbgheap.obj
 0001:00041ea0       __CrtMemDumpAllObjectsSince 20042ea0 f   LIBCMTD:dbgheap.obj
 0001:00042280       __CrtDumpMemoryLeaks       20043280 f   LIBCMTD:dbgheap.obj
 0001:00042300       __CrtMemDumpStatistics     20043300 f   LIBCMTD:dbgheap.obj
 0001:000423d0       _strtok                    200433d0 f   LIBCMTD:strtok.obj
 0001:00042520       _localtime                 20043520 f   LIBCMTD:localtim.obj
 0001:00042780       _time                      20043780 f   LIBCMTD:time.obj
 0001:00042910       _fwrite                    20043910 f   LIBCMTD:fwrite.obj
 0001:00042950       __fwrite_lk                20043950 f   LIBCMTD:fwrite.obj
 0001:00042b70       _fread                     20043b70 f   LIBCMTD:fread.obj
 0001:00042bb0       __fread_lk                 20043bb0 f   LIBCMTD:fread.obj
 0001:00042d80       _fclose                    20043d80 f   LIBCMTD:fclose.obj
 0001:00042e10       __fclose_lk                20043e10 f   LIBCMTD:fclose.obj
 0001:00042ed0       _memset                    20043ed0 f   LIBCMTD:memset.obj
 0001:00042f30       __fsopen                   20043f30 f   LIBCMTD:fopen.obj
 0001:00043030       _fopen                     20044030 f   LIBCMTD:fopen.obj
 0001:00043050       _atof                      20044050 f   LIBCMTD:atof.obj
 0001:000430d0       _sscanf                    200440d0 f   LIBCMTD:sscanf.obj
 0001:00043190       _strncpy                   20044190 f   LIBCMTD:strncpy.obj
 0001:00043290       _fprintf                   20044290 f   LIBCMTD:fprintf.obj
 0001:00043360       _strstr                    20044360 f   LIBCMTD:strstr.obj
 0001:000433e0       __CItan                    200443e0 f   LIBCMTD:tan.obj
 0001:000433f4       _tan                       200443f4 f   LIBCMTD:tan.obj
 0001:000434a0       __CIsin                    200444a0 f   LIBCMTD:sin.obj
 0001:000434b4       _sin                       200444b4 f   LIBCMTD:sin.obj
 0001:00043550       __CIcos                    20044550 f   LIBCMTD:cos.obj
 0001:00043564       _cos                       20044564 f   LIBCMTD:cos.obj
 0001:00043600       _atan2                     20044600 f   LIBCMTD:87ctriga.obj
 0001:0004360a       __CIatan2                  2004460a f   LIBCMTD:87ctriga.obj
 0001:00043620       __alloca_probe             20044620 f   LIBCMTD:chkstk.obj
 0001:00043620       __chkstk                   20044620 f   LIBCMTD:chkstk.obj
 0001:00043650       _strncmp                   20044650 f   LIBCMTD:strncmp.obj
 0001:00043690       _abs                       20044690 f   LIBCMTD:abs.obj
 0001:000436c0       _memcmp                    200446c0 f   LIBCMTD:memcmp.obj
 0001:00043770       __stricmp                  20044770 f   LIBCMTD:stricmp.obj
 0001:00043770       __strcmpi                  20044770 f   LIBCMTD:stricmp.obj
 0001:00043840       __CRT_INIT@12              20044840 f   LIBCMTD:dllcrt0.obj
 0001:00043980       __DllMainCRTStartup@12     20044980 f   LIBCMTD:dllcrt0.obj
 0001:00043a80       __amsg_exit                20044a80 f   LIBCMTD:dllcrt0.obj
 0001:00043ac0       __setdefaultprecision      20044ac0 f   LIBCMTD:fp8.obj
 0001:00043ae0       __ms_p5_test_fdiv          20044ae0 f   LIBCMTD:testfdiv.obj
 0001:00043b40       __ms_p5_mp_test_fdiv       20044b40 f   LIBCMTD:testfdiv.obj
 0001:00043b90       __forcdecpt                20044b90 f   LIBCMTD:cvt.obj
 0001:00043c40       __cropzeros                20044c40 f   LIBCMTD:cvt.obj
 0001:00043d20       __positive                 20044d20 f   LIBCMTD:cvt.obj
 0001:00043d50       __fassign                  20044d50 f   LIBCMTD:cvt.obj
 0001:00043da0       __cftoe                    20044da0 f   LIBCMTD:cvt.obj
 0001:00043f90       __cftof                    20044f90 f   LIBCMTD:cvt.obj
 0001:00044140       __cftog                    20045140 f   LIBCMTD:cvt.obj
 0001:00044230       __cfltcvt                  20045230 f   LIBCMTD:cvt.obj
 0001:000442c0       __mtinit                   200452c0 f   LIBCMTD:tidtable.obj
 0001:00044350       __mtterm                   20045350 f   LIBCMTD:tidtable.obj
 0001:00044380       __initptd                  20045380 f   LIBCMTD:tidtable.obj
 0001:000443a0       __getptd                   200453a0 f   LIBCMTD:tidtable.obj
 0001:00044440       __freeptd                  20045440 f   LIBCMTD:tidtable.obj
 0001:00044550       ___threadid                20045550 f   LIBCMTD:tidtable.obj
 0001:00044560       ___threadhandle            20045560 f   LIBCMTD:tidtable.obj
 0001:00044570       __isctype                  20045570 f   LIBCMTD:isctype.obj
 0001:00044630       __allmul                   20045630 f   LIBCMTD:llmul.obj
 0001:00044670       __flsbuf                   20045670 f   LIBCMTD:_flsbuf.obj
 0001:000448f0       __output                   200458f0 f   LIBCMTD:output.obj
 0001:00045790       __CrtDbgBreak              20046790 f   LIBCMTD:dbgrpt.obj
 0001:000457a0       __CrtSetReportMode         200467a0 f   LIBCMTD:dbgrpt.obj
 0001:00045800       __CrtSetReportFile         20046800 f   LIBCMTD:dbgrpt.obj
 0001:00045880       __CrtSetReportHook         20046880 f   LIBCMTD:dbgrpt.obj
 0001:000458a0       __CrtDbgReport             200468a0 f   LIBCMTD:dbgrpt.obj
 0001:00045f40       __frnd                     20046f40 f   LIBCMTD:frnd.obj
 0001:00045f60       __handle_qnan1             20046f60 f   LIBCMTD:fpexcept.obj
 0001:00045fc0       __handle_qnan2             20046fc0 f   LIBCMTD:fpexcept.obj
 0001:00046030       __except1                  20047030 f   LIBCMTD:fpexcept.obj
 0001:000460f0       __except2                  200470f0 f   LIBCMTD:fpexcept.obj
 0001:000461c0       __raise_exc                200471c0 f   LIBCMTD:fpexcept.obj
 0001:00046690       __handle_exc               20047690 f   LIBCMTD:fpexcept.obj
 0001:00046a10       __umatherr                 20047a10 f   LIBCMTD:fpexcept.obj
 0001:00046ab0       __set_errno                20047ab0 f   LIBCMTD:fpexcept.obj
 0001:00046b30       __errcode                  20047b30 f   LIBCMTD:fpexcept.obj
 0001:00046bb0       __set_exp                  20047bb0 f   LIBCMTD:util.obj
 0001:00046bf0       __get_exp                  20047bf0 f   LIBCMTD:util.obj
 0001:00046c20       __add_exp                  20047c20 f   LIBCMTD:util.obj
 0001:00046c60       __set_bexp                 20047c60 f   LIBCMTD:util.obj
 0001:00046ca0       __sptype                   20047ca0 f   LIBCMTD:util.obj
 0001:00046d20       __decomp                   20047d20 f   LIBCMTD:util.obj
 0001:00046e60       __statfp                   20047e60 f   LIBCMTD:fpctrl.obj
 0001:00046e80       __clrfp                    20047e80 f   LIBCMTD:fpctrl.obj
 0001:00046ea0       __ctrlfp                   20047ea0 f   LIBCMTD:fpctrl.obj
 0001:00046ee0       __set_statfp               20047ee0 f   LIBCMTD:fpctrl.obj
 0001:00046f60       __trandisp1                20047f60 f   LIBCMTD:87disp.obj
 0001:00046fc7       __trandisp2                20047fc7 f   LIBCMTD:87disp.obj
 0001:00047053       __rttospopde               20048053 f   LIBCMTD:87disp.obj
 0001:00047058       __rttospop                 20048058 f   LIBCMTD:87disp.obj
 0001:0004705a       __rtnospop                 2004805a f   LIBCMTD:87disp.obj
 0001:0004705c       __rttosnpop                2004805c f   LIBCMTD:87disp.obj
 0001:0004705d       __rtnospopde               2004805d f   LIBCMTD:87disp.obj
 0001:00047064       __rtzeropop                20048064 f   LIBCMTD:87disp.obj
 0001:00047066       __rtzeronpop               20048066 f   LIBCMTD:87disp.obj
 0001:0004706b       __rtonepop                 2004806b f   LIBCMTD:87disp.obj
 0001:0004706d       __rtonenpop                2004806d f   LIBCMTD:87disp.obj
 0001:00047072       __tosnan1                  20048072 f   LIBCMTD:87disp.obj
 0001:0004709d       __nosnan2                  2004809d f   LIBCMTD:87disp.obj
 0001:0004709f       __tosnan2                  2004809f f   LIBCMTD:87disp.obj
 0001:000470c7       __nan2                     200480c7 f   LIBCMTD:87disp.obj
 0001:00047106       __rtindfpop                20048106 f   LIBCMTD:87disp.obj
 0001:00047108       __rtindfnpop               20048108 f   LIBCMTD:87disp.obj
 0001:00047119       __rttosnpopde              20048119 f   LIBCMTD:87disp.obj
 0001:00047123       __rtchsifneg               20048123 f   LIBCMTD:87disp.obj
 0001:00047130       __startTwoArgErrorHandling 20048130 f   LIBCMTD:genexcep.obj
 0001:00047147       __startOneArgErrorHandling 20048147 f   LIBCMTD:genexcep.obj
 0001:00047190       __twoToTOS                 20048190 f   LIBCMTD:common.obj
 0001:000471a5       __load_CW                  200481a5 f   LIBCMTD:common.obj
 0001:000471bc       __convertTOStoQNaN         200481bc f   LIBCMTD:common.obj
 0001:000471d5       __fload_withFB             200481d5 f   LIBCMTD:common.obj
 0001:00047218       __checkTOS_withFB          20048218 f   LIBCMTD:common.obj
 0001:0004722e       __fast_exit                2004822e f   LIBCMTD:common.obj
 0001:0004723b       __math_exit                2004823b f   LIBCMTD:common.obj
 0001:00047265       __check_overflow_exit      20048265 f   LIBCMTD:common.obj
 0001:00047279       __check_range_exit         20048279 f   LIBCMTD:common.obj
 0001:00047320       ?_set_new_handler@@YAP6AHI@ZP6AHI@Z@Z 20048320 f   LIBCMTD:handler.obj
 0001:00047350       ?_query_new_handler@@YAP6AHI@ZXZ 20048350 f   LIBCMTD:handler.obj
 0001:00047360       __callnewh                 20048360 f   LIBCMTD:handler.obj
 0001:00047390       __mtinitlocks              20048390 f   LIBCMTD:mlock.obj
 0001:000473d0       __mtdeletelocks            200483d0 f   LIBCMTD:mlock.obj
 0001:00047470       __lock                     20048470 f   LIBCMTD:mlock.obj
 0001:00047510       __unlock                   20048510 f   LIBCMTD:mlock.obj
 0001:00047530       __lockerr_exit             20048530 f   LIBCMTD:mlock.obj
 0001:00047550       __malloc_base              20048550 f   LIBCMTD:malloc.obj
 0001:00047570       __nh_malloc_base           20048570 f   LIBCMTD:malloc.obj
 0001:000475d0       __heap_alloc_base          200485d0 f   LIBCMTD:malloc.obj
 0001:00047640       __CrtDefaultAllocHook      20048640 f   LIBCMTD:dbghook.obj
 0001:00047650       __expand_base              20048650 f   LIBCMTD:expand.obj
 0001:00047700       __realloc_base             20048700 f   LIBCMTD:realloc.obj
 0001:000478f0       __free_base                200488f0 f   LIBCMTD:free.obj
 0001:00047960       __heapchk                  20048960 f   LIBCMTD:heapchk.obj
 0001:000479e0       __heapset                  200489e0 f   LIBCMTD:heapchk.obj
 0001:000479f0       __heap_init                200489f0 f   LIBCMTD:heapinit.obj
 0001:00047a40       __heap_term                20048a40 f   LIBCMTD:heapinit.obj
 0001:00047ae0       __cinit                    20048ae0 f   LIBCMTD:crt0dat.obj
 0001:00047b20       _exit                      20048b20 f   LIBCMTD:crt0dat.obj
 0001:00047b40       __exit                     20048b40 f   LIBCMTD:crt0dat.obj
 0001:00047b60       __cexit                    20048b60 f   LIBCMTD:crt0dat.obj
 0001:00047b80       __c_exit                   20048b80 f   LIBCMTD:crt0dat.obj
 0001:00047c90       __lockexit                 20048c90 f   LIBCMTD:crt0dat.obj
 0001:00047ca0       __unlockexit               20048ca0 f   LIBCMTD:crt0dat.obj
 0001:00047ce0       __get_sbh_threshold        20048ce0 f   LIBCMTD:sbheap.obj
 0001:00047cf0       __set_sbh_threshold        20048cf0 f   LIBCMTD:sbheap.obj
 0001:00047d10       ___sbh_heap_init           20048d10 f   LIBCMTD:sbheap.obj
 0001:00047d70       ___sbh_find_block          20048d70 f   LIBCMTD:sbheap.obj
 0001:00047dd0       ___sbh_verify_block        20048dd0 f   LIBCMTD:sbheap.obj
 0001:00047e30       ___sbh_free_block          20048e30 f   LIBCMTD:sbheap.obj
 0001:00048400       ___sbh_alloc_block         20049400 f   LIBCMTD:sbheap.obj
 0001:00048940       ___sbh_alloc_new_region    20049940 f   LIBCMTD:sbheap.obj
 0001:00048a50       ___sbh_alloc_new_group     20049a50 f   LIBCMTD:sbheap.obj
 0001:00048c40       ___sbh_resize_block        20049c40 f   LIBCMTD:sbheap.obj
 0001:00049230       ___sbh_heapmin             2004a230 f   LIBCMTD:sbheap.obj
 0001:00049360       ___sbh_heap_check          2004a360 f   LIBCMTD:sbheap.obj
 0001:00049980       ___tzset                   2004a980 f   LIBCMTD:tzset.obj
 0001:000499c0       __tzset                    2004a9c0 f   LIBCMTD:tzset.obj
 0001:00049d90       __isindst                  2004ad90 f   LIBCMTD:tzset.obj
 0001:0004a2c0       _gmtime                    2004b2c0 f   LIBCMTD:gmtime.obj
 0001:0004a4c0       ___loctotime_t             2004b4c0 f   LIBCMTD:dtoxtime.obj
 0001:0004a5b0       ___initstdio               2004b5b0 f   LIBCMTD:_file.obj
 0001:0004a6e0       ___endstdio                2004b6e0 f   LIBCMTD:_file.obj
 0001:0004a700       __lock_file                2004b700 f   LIBCMTD:_file.obj
 0001:0004a740       __lock_file2               2004b740 f   LIBCMTD:_file.obj
 0001:0004a770       __unlock_file              2004b770 f   LIBCMTD:_file.obj
 0001:0004a7b0       __unlock_file2             2004b7b0 f   LIBCMTD:_file.obj
 0001:0004a7e0       __write                    2004b7e0 f   LIBCMTD:write.obj
 0001:0004a870       __write_lk                 2004b870 f   LIBCMTD:write.obj
 0001:0004aaf0       _fflush                    2004baf0 f   LIBCMTD:fflush.obj
 0001:0004ab40       __fflush_lk                2004bb40 f   LIBCMTD:fflush.obj
 0001:0004ab90       __flush                    2004bb90 f   LIBCMTD:fflush.obj
 0001:0004ac50       __flushall                 2004bc50 f   LIBCMTD:fflush.obj
 0001:0004ada0       __filbuf                   2004bda0 f   LIBCMTD:_filbuf.obj
 0001:0004af90       __read                     2004bf90 f   LIBCMTD:read.obj
 0001:0004b020       __read_lk                  2004c020 f   LIBCMTD:read.obj
 0001:0004b470       __close                    2004c470 f   LIBCMTD:close.obj
 0001:0004b4f0       __close_lk                 2004c4f0 f   LIBCMTD:close.obj
 0001:0004b5a0       __freebuf                  2004c5a0 f   LIBCMTD:_freebuf.obj
 0001:0004b640       __openfile                 2004c640 f   LIBCMTD:_open.obj
 0001:0004b9d0       __getstream                2004c9d0 f   LIBCMTD:stream.obj
 0001:0004bb50       __fltin2                   2004cb50 f   LIBCMTD:cfin.obj
 0001:0004bc10       __input                    2004cc10 f   LIBCMTD:input.obj
 0001:0004d110       __stbuf                    2004e110 f   LIBCMTD:_sftbuf.obj
 0001:0004d270       __ftbuf                    2004e270 f   LIBCMTD:_sftbuf.obj
 0001:0004d32c       __fFATN2                   2004e32c f   LIBCMTD:87triga.obj
 0001:0004d37c       __rtpiby2                  2004e37c f   LIBCMTD:87triga.obj
 0001:0004d3c0       __cintrindisp2             2004e3c0 f   LIBCMTD:87cdisp.obj
 0001:0004d3fe       __cintrindisp1             2004e3fe f   LIBCMTD:87cdisp.obj
 0001:0004d43b       __ctrandisp2               2004e43b f   LIBCMTD:87cdisp.obj
 0001:0004d5bb       __ctrandisp1               2004e5bb f   LIBCMTD:87cdisp.obj
 0001:0004d5ee       __fload                    2004e5ee f   LIBCMTD:87cdisp.obj
 0001:0004d630       _setlocale                 2004e630 f   LIBCMTD:setlocal.obj
 0001:0004dcc0       __expandlocale             2004ecc0 f   LIBCMTD:setlocal.obj
 0001:0004de50       ___init_dummy              2004ee50 f   LIBCMTD:setlocal.obj
 0001:0004de60       __strcats                  2004ee60 f   LIBCMTD:setlocal.obj
 0001:0004deb0       ___lc_strtolc              2004eeb0 f   LIBCMTD:setlocal.obj
 0001:0004e010       ___lc_lctostr              2004f010 f   LIBCMTD:setlocal.obj
 0001:0004e080       __tolower                  2004f080 f   LIBCMTD:tolower.obj
 0001:0004e090       _tolower                   2004f090 f   LIBCMTD:tolower.obj
 0001:0004e130       __tolower_lk               2004f130 f   LIBCMTD:tolower.obj
 0001:0004e260       __ioinit                   2004f260 f   LIBCMTD:ioinit.obj
 0001:0004e590       __ioterm                   2004f590 f   LIBCMTD:ioinit.obj
 0001:0004e630       __setenvp                  2004f630 f   LIBCMTD:stdenvp.obj
 0001:0004e780       __setargv                  2004f780 f   LIBCMTD:stdargv.obj
 0001:0004ec90       ___crtGetEnvironmentStringsA 2004fc90 f   LIBCMTD:a_env.obj
 0001:0004eeb0       _DllMain@12                2004feb0 f   LIBCMTD:dllmain.obj
 0001:0004eec0       __FF_MSGBANNER             2004fec0 f   LIBCMTD:crt0msg.obj
 0001:0004ef10       __NMSG_WRITE               2004ff10 f   LIBCMTD:crt0msg.obj
 0001:0004f0d0       __GET_RTERRMSG             200500d0 f   LIBCMTD:crt0msg.obj
 0001:0004f120       __statusfp                 20050120 f   LIBCMTD:ieee87.obj
 0001:0004f140       __clearfp                  20050140 f   LIBCMTD:ieee87.obj
 0001:0004f160       __control87                20050160 f   LIBCMTD:ieee87.obj
 0001:0004f1b0       __controlfp                200501b0 f   LIBCMTD:ieee87.obj
 0001:0004f1d0       __fpreset                  200501d0 f   LIBCMTD:ieee87.obj
 0001:0004f5c0       __ZeroTail                 200505c0 f   LIBCMTD:intrncvt.obj
 0001:0004f650       __IncMan                   20050650 f   LIBCMTD:intrncvt.obj
 0001:0004f700       __RoundMan                 20050700 f   LIBCMTD:intrncvt.obj
 0001:0004f7e0       __CopyMan                  200507e0 f   LIBCMTD:intrncvt.obj
 0001:0004f830       __FillZeroMan              20050830 f   LIBCMTD:intrncvt.obj
 0001:0004f860       __IsZeroMan                20050860 f   LIBCMTD:intrncvt.obj
 0001:0004f8a0       __ShrMan                   200508a0 f   LIBCMTD:intrncvt.obj
 0001:0004f990       __ld12cvt                  20050990 f   LIBCMTD:intrncvt.obj
 0001:0004fbe0       __ld12tod                  20050be0 f   LIBCMTD:intrncvt.obj
 0001:0004fc00       __ld12tof                  20050c00 f   LIBCMTD:intrncvt.obj
 0001:0004fc20       __ld12told                 20050c20 f   LIBCMTD:intrncvt.obj
 0001:0004fce0       __atodbl                   20050ce0 f   LIBCMTD:intrncvt.obj
 0001:0004fd20       __atoldbl                  20050d20 f   LIBCMTD:intrncvt.obj
 0001:0004fd60       __atoflt                   20050d60 f   LIBCMTD:intrncvt.obj
 0001:0004fda0       __fptostr                  20050da0 f   LIBCMTD:_fptostr.obj
 0001:0004fea0       __fltout2                  20050ea0 f   LIBCMTD:cfout.obj
 0001:0004ff20       ___dtold                   20050f20 f   LIBCMTD:cfout.obj
 0001:00050090       _memmove                   20051090 f   LIBCMTD:memmove.obj
 0001:000503d0       __fptrap                   200513d0 f   LIBCMTD:crt0fp.obj
 0001:000503e0       __XcptFilter               200513e0 f   LIBCMTD:winxfltr.obj
 0001:00050600       ___crtGetStringTypeA       20051600 f   LIBCMTD:a_str.obj
 0001:000507c0       __lseek                    200517c0 f   LIBCMTD:lseek.obj
 0001:00050850       __lseek_lk                 20051850 f   LIBCMTD:lseek.obj
 0001:00050910       __getbuf                   20051910 f   LIBCMTD:_getbuf.obj
 0001:000509e0       __isatty                   200519e0 f   LIBCMTD:isatty.obj
 0001:00050a20       _wctomb                    20051a20 f   LIBCMTD:wctomb.obj
 0001:00050aa0       __wctomb_lk                20051aa0 f   LIBCMTD:wctomb.obj
 0001:00050b40       __aulldiv                  20051b40 f   LIBCMTD:ulldiv.obj
 0001:00050bb0       __aullrem                  20051bb0 f   LIBCMTD:ullrem.obj
 0001:00050c30       __itoa                     20051c30 f   LIBCMTD:xtoa.obj
 0001:00050d50       __ltoa                     20051d50 f   LIBCMTD:xtoa.obj
 0001:00050d90       __ultoa                    20051d90 f   LIBCMTD:xtoa.obj
 0001:00050db0       __i64toa                   20051db0 f   LIBCMTD:xtoa.obj
 0001:00050f00       __ui64toa                  20051f00 f   LIBCMTD:xtoa.obj
 0001:00050f20       __snprintf                 20051f20 f   LIBCMTD:snprintf.obj
 0001:00051020       __vsnprintf                20052020 f   LIBCMTD:vsnprint.obj
 0001:00051120       _signal                    20052120 f   LIBCMTD:winsig.obj
 0001:000513f0       _raise                     200523f0 f   LIBCMTD:winsig.obj
 0001:00051690       ___fpecode                 20052690 f   LIBCMTD:winsig.obj
 0001:000516a0       ___pxcptinfoptrs           200526a0 f   LIBCMTD:winsig.obj
 0001:000516b0       ___crtMessageBoxA          200526b0 f   LIBCMTD:crtmbox.obj
 0001:00051770       __dosmaperr                20052770 f   LIBCMTD:dosmap.obj
 0001:00051810       __errno                    20052810 f   LIBCMTD:dosmap.obj
 0001:00051820       ___doserrno                20052820 f   LIBCMTD:dosmap.obj
 0001:00051830       __matherr                  20052830 f   LIBCMTD:matherr.obj
 0001:00051840       __87except                 20052840 f   LIBCMTD:87except.obj
 0001:000519c0       _getenv                    200529c0 f   LIBCMTD:getenv.obj
 0001:000519f0       __getenv_lk                200529f0 f   LIBCMTD:getenv.obj
 0001:00051ac0       __fcloseall                20052ac0 f   LIBCMTD:closeall.obj
 0001:00051ba0       __alloc_osfhnd             20052ba0 f   LIBCMTD:osfinfo.obj
 0001:00051d90       __set_osfhnd               20052d90 f   LIBCMTD:osfinfo.obj
 0001:00051e50       __free_osfhnd              20052e50 f   LIBCMTD:osfinfo.obj
 0001:00051f30       __get_osfhandle            20052f30 f   LIBCMTD:osfinfo.obj
 0001:00051fa0       __open_osfhandle           20052fa0 f   LIBCMTD:osfinfo.obj
 0001:000520b0       __lock_fhandle             200530b0 f   LIBCMTD:osfinfo.obj
 0001:00052140       __unlock_fhandle           20053140 f   LIBCMTD:osfinfo.obj
 0001:00052170       __commit                   20053170 f   LIBCMTD:commit.obj
 0001:00052250       __open                     20053250 f   LIBCMTD:open.obj
 0001:00052290       __sopen                    20053290 f   LIBCMTD:open.obj
 0001:000527f0       ___strgtold12              200537f0 f   LIBCMTD:strgtold.obj
 0001:00053320       ___STRINGTOLD              20054320 f   LIBCMTD:strgtold.obj
 0001:00053370       _mbtowc                    20054370 f   LIBCMTD:mbtowc.obj
 0001:000533f0       __mbtowc_lk                200543f0 f   LIBCMTD:mbtowc.obj
 0001:00053550       _isalpha                   20054550 f   LIBCMTD:_ctype.obj
 0001:000535a0       _isupper                   200545a0 f   LIBCMTD:_ctype.obj
 0001:000535e0       _islower                   200545e0 f   LIBCMTD:_ctype.obj
 0001:00053620       _isdigit                   20054620 f   LIBCMTD:_ctype.obj
 0001:00053660       _isxdigit                  20054660 f   LIBCMTD:_ctype.obj
 0001:000536b0       _isspace                   200546b0 f   LIBCMTD:_ctype.obj
 0001:000536f0       _ispunct                   200546f0 f   LIBCMTD:_ctype.obj
 0001:00053730       _isalnum                   20054730 f   LIBCMTD:_ctype.obj
 0001:00053780       _isprint                   20054780 f   LIBCMTD:_ctype.obj
 0001:000537d0       _isgraph                   200547d0 f   LIBCMTD:_ctype.obj
 0001:00053820       _iscntrl                   20054820 f   LIBCMTD:_ctype.obj
 0001:00053860       ___isascii                 20054860 f   LIBCMTD:_ctype.obj
 0001:00053870       ___toascii                 20054870 f   LIBCMTD:_ctype.obj
 0001:00053880       ___iscsymf                 20054880 f   LIBCMTD:_ctype.obj
 0001:000538e0       ___iscsym                  200548e0 f   LIBCMTD:_ctype.obj
 0001:00053940       __allshl                   20054940 f   LIBCMTD:llshl.obj
 0001:00053960       _ungetc                    20054960 f   LIBCMTD:ungetc.obj
 0001:000539d0       __ungetc_lk                200549d0 f   LIBCMTD:ungetc.obj
 0001:00053b10       ___init_time               20054b10 f   LIBCMTD:inittime.obj
 0001:00054490       ___init_numeric            20055490 f   LIBCMTD:initnum.obj
 0001:000547c0       ___init_monetary           200557c0 f   LIBCMTD:initmon.obj
 0001:00054c20       ___init_ctype              20055c20 f   LIBCMTD:initctyp.obj
 0001:00054fc0       ___init_collate            20055fc0 f   LIBCMTD:initcoll.obj
 0001:00054fd0       _strcspn                   20055fd0 f   LIBCMTD:strcspn.obj
 0001:00055010       _strpbrk                   20056010 f   LIBCMTD:strpbrk.obj
 0001:00055050       ___get_qualified_locale    20056050 f   LIBCMTD:getqloc.obj
 0001:00055df0       ___crtLCMapStringA         20056df0 f   LIBCMTD:a_map.obj
 0001:00056150       __setmbcp                  20057150 f   LIBCMTD:mbctype.obj
 0001:00056910       __getmbcp                  20057910 f   LIBCMTD:mbctype.obj
 0001:00056930       ___initmbctable            20057930 f   LIBCMTD:mbctype.obj
 0001:00056960       ___addl                    20057960 f   LIBCMTD:mantold.obj
 0001:000569a0       ___add_12                  200579a0 f   LIBCMTD:mantold.obj
 0001:00056a50       ___shl_12                  20057a50 f   LIBCMTD:mantold.obj
 0001:00056ab0       ___shr_12                  20057ab0 f   LIBCMTD:mantold.obj
 0001:00056b20       ___mtold12                 20057b20 f   LIBCMTD:mantold.obj
 0001:00056c60       _$I10_OUTPUT               20057c60 f   LIBCMTD:x10fout.obj
 0001:00057178       __global_unwind2           20058178 f   LIBCMTD:exsup.obj
 0001:000571ba       __local_unwind2            200581ba f   LIBCMTD:exsup.obj
 0001:00057212       __NLG_Return2              20058212 f   LIBCMTD:exsup.obj
 0001:00057222       __abnormal_termination     20058222 f   LIBCMTD:exsup.obj
 0001:00057245       __NLG_Notify1              20058245 f   LIBCMTD:exsup.obj
 0001:0005724e       __NLG_Notify               2005824e f   LIBCMTD:exsup.obj
 0001:00057261       __NLG_Dispatch             20058261 f   LIBCMTD:exsup.obj
 0001:00057270       __except_handler3          20058270 f   LIBCMTD:exsup3.obj
 0001:0005732d       __seh_longjmp_unwind@4     2005832d f   LIBCMTD:exsup3.obj
 0001:00057350       __mbsnbicoll               20058350 f   LIBCMTD:mbsnbico.obj
 0001:000573a0       ___wtomb_environ           200583a0 f   LIBCMTD:wtombenv.obj
 0001:00057450       __chsize                   20058450 f   LIBCMTD:chsize.obj
 0001:000574d0       __chsize_lk                200584d0 f   LIBCMTD:chsize.obj
 0001:00057700       ___ld12mul                 20058700 f   LIBCMTD:tenpow.obj
 0001:00057b40       ___multtenpow12            20058b40 f   LIBCMTD:tenpow.obj
 0001:00057c10       __Getdays                  20058c10 f   LIBCMTD:strftime.obj
 0001:00057d40       __Getmonths                20058d40 f   LIBCMTD:strftime.obj
 0001:00057e70       __Gettnames                20058e70 f   LIBCMTD:strftime.obj
 0001:000581e0       _strftime                  200591e0 f   LIBCMTD:strftime.obj
 0001:00058200       __Strftime                 20059200 f   LIBCMTD:strftime.obj
 0001:00059080       ___getlocaleinfo           2005a080 f   LIBCMTD:inithelp.obj
 0001:00059310       _localeconv                2005a310 f   LIBCMTD:lconv.obj
 0001:00059320       ___crtGetStringTypeW       2005a320 f   LIBCMTD:w_str.obj
 0001:00059590       __strnicmp                 2005a590 f   LIBCMTD:strnicmp.obj
 0001:000596a0       ___crtCompareStringA       2005a6a0 f   LIBCMTD:a_cmp.obj
 0001:00059af0       ___crtsetenv               2005aaf0 f   LIBCMTD:setenv.obj
 0001:00059f40       __setmode                  2005af40 f   LIBCMTD:setmode.obj
 0001:00059fc0       __setmode_lk               2005afc0 f   LIBCMTD:setmode.obj
 0001:0005a090       ___crtGetLocaleInfoW       2005b090 f   LIBCMTD:w_loc.obj
 0001:0005a230       ___crtGetLocaleInfoA       2005b230 f   LIBCMTD:a_loc.obj
 0001:0005a3e0       __mbschr                   2005b3e0 f   LIBCMTD:mbschr.obj
 0001:0005a4d0       _IsBadWritePtr@8           2005b4d0 f   kernel32:KERNEL32.dll
 0001:0005a4d6       _IsBadReadPtr@8            2005b4d6 f   kernel32:KERNEL32.dll
 0001:0005a4dc       _HeapValidate@12           2005b4dc f   kernel32:KERNEL32.dll
 0001:0005a4e2       _GetTimeZoneInformation@4  2005b4e2 f   kernel32:KERNEL32.dll
 0001:0005a4e8       _GetSystemTime@4           2005b4e8 f   kernel32:KERNEL32.dll
 0001:0005a4ee       _GetLocalTime@4            2005b4ee f   kernel32:KERNEL32.dll
 0001:0005a4f4       _GetCommandLineA@0         2005b4f4 f   kernel32:KERNEL32.dll
 0001:0005a4fa       _GetVersion@0              2005b4fa f   kernel32:KERNEL32.dll
 0001:0005a500       _GetProcAddress@8          2005b500 f   kernel32:KERNEL32.dll
 0001:0005a506       _GetModuleHandleA@4        2005b506 f   kernel32:KERNEL32.dll
 0001:0005a50c       _GetCurrentThreadId@0      2005b50c f   kernel32:KERNEL32.dll
 0001:0005a512       _TlsSetValue@8             2005b512 f   kernel32:KERNEL32.dll
 0001:0005a518       _TlsAlloc@0                2005b518 f   kernel32:KERNEL32.dll
 0001:0005a51e       _TlsFree@4                 2005b51e f   kernel32:KERNEL32.dll
 0001:0005a524       _SetLastError@4            2005b524 f   kernel32:KERNEL32.dll
 0001:0005a52a       _TlsGetValue@4             2005b52a f   kernel32:KERNEL32.dll
 0001:0005a530       _GetLastError@0            2005b530 f   kernel32:KERNEL32.dll
 0001:0005a536       _GetCurrentThread@0        2005b536 f   kernel32:KERNEL32.dll
 0001:0005a53c       _DebugBreak@0              2005b53c f   kernel32:KERNEL32.dll
 0001:0005a542       _GetStdHandle@4            2005b542 f   kernel32:KERNEL32.dll
 0001:0005a548       _WriteFile@20              2005b548 f   kernel32:KERNEL32.dll
 0001:0005a54e       _InterlockedDecrement@4    2005b54e f   kernel32:KERNEL32.dll
 0001:0005a554       _OutputDebugStringA@4      2005b554 f   kernel32:KERNEL32.dll
 0001:0005a55a       _LoadLibraryA@4            2005b55a f   kernel32:KERNEL32.dll
 0001:0005a560       _InterlockedIncrement@4    2005b560 f   kernel32:KERNEL32.dll
 0001:0005a566       _GetModuleFileNameA@12     2005b566 f   kernel32:KERNEL32.dll
 0001:0005a56c       _RaiseException@16         2005b56c f   kernel32:KERNEL32.dll
 0001:0005a572       _InitializeCriticalSection@4 2005b572 f   kernel32:KERNEL32.dll
 0001:0005a578       _DeleteCriticalSection@4   2005b578 f   kernel32:KERNEL32.dll
 0001:0005a57e       _EnterCriticalSection@4    2005b57e f   kernel32:KERNEL32.dll
 0001:0005a584       _LeaveCriticalSection@4    2005b584 f   kernel32:KERNEL32.dll
 0001:0005a58a       _ExitProcess@4             2005b58a f   kernel32:KERNEL32.dll
 0001:0005a590       _FatalAppExitA@8           2005b590 f   kernel32:KERNEL32.dll
 0001:0005a596       _HeapAlloc@12              2005b596 f   kernel32:KERNEL32.dll
 0001:0005a59c       _HeapReAlloc@16            2005b59c f   kernel32:KERNEL32.dll
 0001:0005a5a2       _HeapFree@12               2005b5a2 f   kernel32:KERNEL32.dll
 0001:0005a5a8       _HeapDestroy@4             2005b5a8 f   kernel32:KERNEL32.dll
 0001:0005a5ae       _HeapCreate@12             2005b5ae f   kernel32:KERNEL32.dll
 0001:0005a5b4       _VirtualFree@12            2005b5b4 f   kernel32:KERNEL32.dll
 0001:0005a5ba       _TerminateProcess@8        2005b5ba f   kernel32:KERNEL32.dll
 0001:0005a5c0       _GetCurrentProcess@0       2005b5c0 f   kernel32:KERNEL32.dll
 0001:0005a5c6       _VirtualAlloc@16           2005b5c6 f   kernel32:KERNEL32.dll
 0001:0005a5cc       _WideCharToMultiByte@32    2005b5cc f   kernel32:KERNEL32.dll
 0001:0005a5d2       _ReadFile@20               2005b5d2 f   kernel32:KERNEL32.dll
 0001:0005a5d8       _CloseHandle@4             2005b5d8 f   kernel32:KERNEL32.dll
 0001:0005a5de       _Sleep@4                   2005b5de f   kernel32:KERNEL32.dll
 0001:0005a5e4       _SetHandleCount@4          2005b5e4 f   kernel32:KERNEL32.dll
 0001:0005a5ea       _GetFileType@4             2005b5ea f   kernel32:KERNEL32.dll
 0001:0005a5f0       _GetStartupInfoA@4         2005b5f0 f   kernel32:KERNEL32.dll
 0001:0005a5f6       _FreeEnvironmentStringsA@4 2005b5f6 f   kernel32:KERNEL32.dll
 0001:0005a5fc       _FreeEnvironmentStringsW@4 2005b5fc f   kernel32:KERNEL32.dll
 0001:0005a602       _GetEnvironmentStrings@0   2005b602 f   kernel32:KERNEL32.dll
 0001:0005a608       _GetEnvironmentStringsW@0  2005b608 f   kernel32:KERNEL32.dll
 0001:0005a60e       _UnhandledExceptionFilter@4 2005b60e f   kernel32:KERNEL32.dll
 0001:0005a614       _MultiByteToWideChar@24    2005b614 f   kernel32:KERNEL32.dll
 0001:0005a61a       _GetStringTypeA@20         2005b61a f   kernel32:KERNEL32.dll
 0001:0005a620       _GetStringTypeW@16         2005b620 f   kernel32:KERNEL32.dll
 0001:0005a626       _SetFilePointer@16         2005b626 f   kernel32:KERNEL32.dll
 0001:0005a62c       _SetConsoleCtrlHandler@8   2005b62c f   kernel32:KERNEL32.dll
 0001:0005a632       _SetStdHandle@8            2005b632 f   kernel32:KERNEL32.dll
 0001:0005a638       _FlushFileBuffers@4        2005b638 f   kernel32:KERNEL32.dll
 0001:0005a63e       _CreateFileA@28            2005b63e f   kernel32:KERNEL32.dll
 0001:0005a644       _GetCPInfo@8               2005b644 f   kernel32:KERNEL32.dll
 0001:0005a64a       _IsValidLocale@8           2005b64a f   kernel32:KERNEL32.dll
 0001:0005a650       _IsValidCodePage@4         2005b650 f   kernel32:KERNEL32.dll
 0001:0005a656       _GetLocaleInfoA@16         2005b656 f   kernel32:KERNEL32.dll
 0001:0005a65c       _EnumSystemLocalesA@8      2005b65c f   kernel32:KERNEL32.dll
 0001:0005a662       _GetUserDefaultLCID@0      2005b662 f   kernel32:KERNEL32.dll
 0001:0005a668       _GetVersionExA@4           2005b668 f   kernel32:KERNEL32.dll
 0001:0005a66e       _LCMapStringA@24           2005b66e f   kernel32:KERNEL32.dll
 0001:0005a674       _LCMapStringW@24           2005b674 f   kernel32:KERNEL32.dll
 0001:0005a67a       _GetACP@0                  2005b67a f   kernel32:KERNEL32.dll
 0001:0005a680       _GetOEMCP@0                2005b680 f   kernel32:KERNEL32.dll
 0001:0005a686       _RtlUnwind@16              2005b686 f   kernel32:KERNEL32.dll
 0001:0005a68c       _SetEndOfFile@4            2005b68c f   kernel32:KERNEL32.dll
 0001:0005a692       _CompareStringA@24         2005b692 f   kernel32:KERNEL32.dll
 0001:0005a698       _CompareStringW@24         2005b698 f   kernel32:KERNEL32.dll
 0001:0005a69e       _SetEnvironmentVariableA@8 2005b69e f   kernel32:KERNEL32.dll
 0001:0005a6a4       _GetLocaleInfoW@16         2005b6a4 f   kernel32:KERNEL32.dll
 0001:0005a6b0       _strdup                    2005b6b0 f   LIBCMTD:strdup.obj
 0001:0005a6b0       __strdup                   2005b6b0 f   LIBCMTD:strdup.obj
 0002:00000000       __imp__IsBadWritePtr@8     2005c000     kernel32:KERNEL32.dll
 0002:00000004       __imp__IsBadReadPtr@8      2005c004     kernel32:KERNEL32.dll
 0002:00000008       __imp__HeapValidate@12     2005c008     kernel32:KERNEL32.dll
 0002:0000000c       __imp__GetTimeZoneInformation@4 2005c00c     kernel32:KERNEL32.dll
 0002:00000010       __imp__GetSystemTime@4     2005c010     kernel32:KERNEL32.dll
 0002:00000014       __imp__GetLocalTime@4      2005c014     kernel32:KERNEL32.dll
 0002:00000018       __imp__GetCommandLineA@0   2005c018     kernel32:KERNEL32.dll
 0002:0000001c       __imp__GetVersion@0        2005c01c     kernel32:KERNEL32.dll
 0002:00000020       __imp__GetProcAddress@8    2005c020     kernel32:KERNEL32.dll
 0002:00000024       __imp__GetModuleHandleA@4  2005c024     kernel32:KERNEL32.dll
 0002:00000028       __imp__GetCurrentThreadId@0 2005c028     kernel32:KERNEL32.dll
 0002:0000002c       __imp__TlsSetValue@8       2005c02c     kernel32:KERNEL32.dll
 0002:00000030       __imp__TlsAlloc@0          2005c030     kernel32:KERNEL32.dll
 0002:00000034       __imp__TlsFree@4           2005c034     kernel32:KERNEL32.dll
 0002:00000038       __imp__SetLastError@4      2005c038     kernel32:KERNEL32.dll
 0002:0000003c       __imp__TlsGetValue@4       2005c03c     kernel32:KERNEL32.dll
 0002:00000040       __imp__GetLastError@0      2005c040     kernel32:KERNEL32.dll
 0002:00000044       __imp__GetCurrentThread@0  2005c044     kernel32:KERNEL32.dll
 0002:00000048       __imp__DebugBreak@0        2005c048     kernel32:KERNEL32.dll
 0002:0000004c       __imp__GetStdHandle@4      2005c04c     kernel32:KERNEL32.dll
 0002:00000050       __imp__WriteFile@20        2005c050     kernel32:KERNEL32.dll
 0002:00000054       __imp__InterlockedDecrement@4 2005c054     kernel32:KERNEL32.dll
 0002:00000058       __imp__OutputDebugStringA@4 2005c058     kernel32:KERNEL32.dll
 0002:0000005c       __imp__LoadLibraryA@4      2005c05c     kernel32:KERNEL32.dll
 0002:00000060       __imp__InterlockedIncrement@4 2005c060     kernel32:KERNEL32.dll
 0002:00000064       __imp__GetModuleFileNameA@12 2005c064     kernel32:KERNEL32.dll
 0002:00000068       __imp__RaiseException@16   2005c068     kernel32:KERNEL32.dll
 0002:0000006c       __imp__InitializeCriticalSection@4 2005c06c     kernel32:KERNEL32.dll
 0002:00000070       __imp__DeleteCriticalSection@4 2005c070     kernel32:KERNEL32.dll
 0002:00000074       __imp__EnterCriticalSection@4 2005c074     kernel32:KERNEL32.dll
 0002:00000078       __imp__LeaveCriticalSection@4 2005c078     kernel32:KERNEL32.dll
 0002:0000007c       __imp__ExitProcess@4       2005c07c     kernel32:KERNEL32.dll
 0002:00000080       __imp__FatalAppExitA@8     2005c080     kernel32:KERNEL32.dll
 0002:00000084       __imp__HeapAlloc@12        2005c084     kernel32:KERNEL32.dll
 0002:00000088       __imp__HeapReAlloc@16      2005c088     kernel32:KERNEL32.dll
 0002:0000008c       __imp__HeapFree@12         2005c08c     kernel32:KERNEL32.dll
 0002:00000090       __imp__HeapDestroy@4       2005c090     kernel32:KERNEL32.dll
 0002:00000094       __imp__HeapCreate@12       2005c094     kernel32:KERNEL32.dll
 0002:00000098       __imp__VirtualFree@12      2005c098     kernel32:KERNEL32.dll
 0002:0000009c       __imp__TerminateProcess@8  2005c09c     kernel32:KERNEL32.dll
 0002:000000a0       __imp__GetCurrentProcess@0 2005c0a0     kernel32:KERNEL32.dll
 0002:000000a4       __imp__VirtualAlloc@16     2005c0a4     kernel32:KERNEL32.dll
 0002:000000a8       __imp__WideCharToMultiByte@32 2005c0a8     kernel32:KERNEL32.dll
 0002:000000ac       __imp__ReadFile@20         2005c0ac     kernel32:KERNEL32.dll
 0002:000000b0       __imp__CloseHandle@4       2005c0b0     kernel32:KERNEL32.dll
 0002:000000b4       __imp__Sleep@4             2005c0b4     kernel32:KERNEL32.dll
 0002:000000b8       __imp__SetHandleCount@4    2005c0b8     kernel32:KERNEL32.dll
 0002:000000bc       __imp__GetFileType@4       2005c0bc     kernel32:KERNEL32.dll
 0002:000000c0       __imp__GetStartupInfoA@4   2005c0c0     kernel32:KERNEL32.dll
 0002:000000c4       __imp__FreeEnvironmentStringsA@4 2005c0c4     kernel32:KERNEL32.dll
 0002:000000c8       __imp__FreeEnvironmentStringsW@4 2005c0c8     kernel32:KERNEL32.dll
 0002:000000cc       __imp__GetEnvironmentStrings@0 2005c0cc     kernel32:KERNEL32.dll
 0002:000000d0       __imp__GetEnvironmentStringsW@0 2005c0d0     kernel32:KERNEL32.dll
 0002:000000d4       __imp__UnhandledExceptionFilter@4 2005c0d4     kernel32:KERNEL32.dll
 0002:000000d8       __imp__MultiByteToWideChar@24 2005c0d8     kernel32:KERNEL32.dll
 0002:000000dc       __imp__GetStringTypeA@20   2005c0dc     kernel32:KERNEL32.dll
 0002:000000e0       __imp__GetStringTypeW@16   2005c0e0     kernel32:KERNEL32.dll
 0002:000000e4       __imp__SetFilePointer@16   2005c0e4     kernel32:KERNEL32.dll
 0002:000000e8       __imp__SetConsoleCtrlHandler@8 2005c0e8     kernel32:KERNEL32.dll
 0002:000000ec       __imp__SetStdHandle@8      2005c0ec     kernel32:KERNEL32.dll
 0002:000000f0       __imp__FlushFileBuffers@4  2005c0f0     kernel32:KERNEL32.dll
 0002:000000f4       __imp__CreateFileA@28      2005c0f4     kernel32:KERNEL32.dll
 0002:000000f8       __imp__GetCPInfo@8         2005c0f8     kernel32:KERNEL32.dll
 0002:000000fc       __imp__IsValidLocale@8     2005c0fc     kernel32:KERNEL32.dll
 0002:00000100       __imp__IsValidCodePage@4   2005c100     kernel32:KERNEL32.dll
 0002:00000104       __imp__GetLocaleInfoA@16   2005c104     kernel32:KERNEL32.dll
 0002:00000108       __imp__EnumSystemLocalesA@8 2005c108     kernel32:KERNEL32.dll
 0002:0000010c       __imp__GetUserDefaultLCID@0 2005c10c     kernel32:KERNEL32.dll
 0002:00000110       __imp__GetVersionExA@4     2005c110     kernel32:KERNEL32.dll
 0002:00000114       __imp__LCMapStringA@24     2005c114     kernel32:KERNEL32.dll
 0002:00000118       __imp__LCMapStringW@24     2005c118     kernel32:KERNEL32.dll
 0002:0000011c       __imp__GetACP@0            2005c11c     kernel32:KERNEL32.dll
 0002:00000120       __imp__GetOEMCP@0          2005c120     kernel32:KERNEL32.dll
 0002:00000124       __imp__RtlUnwind@16        2005c124     kernel32:KERNEL32.dll
 0002:00000128       __imp__SetEndOfFile@4      2005c128     kernel32:KERNEL32.dll
 0002:0000012c       __imp__CompareStringA@24   2005c12c     kernel32:KERNEL32.dll
 0002:00000130       __imp__CompareStringW@24   2005c130     kernel32:KERNEL32.dll
 0002:00000134       __imp__SetEnvironmentVariableA@8 2005c134     kernel32:KERNEL32.dll
 0002:00000138       __imp__GetLocaleInfoW@16   2005c138     kernel32:KERNEL32.dll
 0002:0000013c       \177KERNEL32_NULL_THUNK_DATA 2005c13c     kernel32:KERNEL32.dll
 0002:0000015c       __real@4@400dfffe000000000000 2005c15c     g_ai.obj
 0002:00000160       __real@4@4002f000000000000000 2005c160     g_ai.obj
 0002:00000164       __real@4@00000000000000000000 2005c164     g_ai.obj
 0002:00000168       __real@4@4008fa00000000000000 2005c168     g_ai.obj
 0002:0000016c       __real@4@4007fa00000000000000 2005c16c     g_ai.obj
 0002:00000170       __real@4@4005a000000000000000 2005c170     g_ai.obj
 0002:00000178       __real@8@3fff8000000000000000 2005c178     g_ai.obj
 0002:00000180       __real@8@3ffd9999999999999800 2005c180     g_ai.obj
 0002:00000188       ??_C@_0CF@GNG@?$CFs?5at?5?$CFs?0?5combattarget?5?$CFs?5not?5fo@ 2005c188     g_ai.obj
 0002:000001b0       __real@4@3fff8000000000000000 2005c1b0     g_ai.obj
 0002:000001b4       ??_C@_0N@FBNP@player_noise?$AA@ 2005c1b4     g_ai.obj
 0002:000001c4       ??_C@_0N@MOIO@target_actor?$AA@ 2005c1c4     g_ai.obj
 0002:000001d4       __real@4@40079d80000000000000 2005c1d4     g_ai.obj
 0002:000001d8       __real@4@4004b400000000000000 2005c1d8     g_ai.obj
 0002:000001dc       __real@4@40008000000000000000 2005c1dc     g_ai.obj
 0002:000001e0       __real@8@3ffe8000000000000000 2005c1e0     g_ai.obj
 0002:000001e8       __real@4@4001a000000000000000 2005c1e8     g_ai.obj
 0002:000001ec       __real@4@4019bebc200000000000 2005c1ec     g_ai.obj
 0002:000001f0       __real@8@4001a000000000000000 2005c1f0     g_ai.obj
 0002:000001f8       __real@4@4003a000000000000000 2005c1f8     g_ai.obj
 0002:000001fc       __real@4@40058000000000000000 2005c1fc     g_ai.obj
 0002:00000200       __real@4@4007b400000000000000 2005c200     g_chase.obj
 0002:00000204       __real@4@400f8000000000000000 2005c204     g_chase.obj
 0002:00000208       __real@4@4001c000000000000000 2005c208     g_chase.obj
 0002:0000020c       __real@4@40038000000000000000 2005c20c     g_chase.obj
 0002:00000210       __real@4@4004e000000000000000 2005c210     g_chase.obj
 0002:00000214       ??_C@_0BL@IDHF@No?5other?5players?5to?5chase?4?$AA@ 2005c214     g_chase.obj
 0002:00000230       ??_C@_04OFAC@skin?$AA@     2005c230     g_cmds.obj
 0002:00000238       ??_C@_0BB@NHB@non?9pickup?5item?6?$AA@ 2005c238     g_cmds.obj
 0002:0000024c       ??_C@_0O@BFAJ@unknown?5item?6?$AA@ 2005c24c     g_cmds.obj
 0002:0000025c       ??_C@_0N@HDAP@Power?5Shield?$AA@ 2005c25c     g_cmds.obj
 0002:0000026c       ??_C@_0L@JCOL@Body?5Armor?$AA@ 2005c26c     g_cmds.obj
 0002:00000278       ??_C@_0N@BFGJ@Combat?5Armor?$AA@ 2005c278     g_cmds.obj
 0002:00000288       ??_C@_0N@JCKF@Jacket?5Armor?$AA@ 2005c288     g_cmds.obj
 0002:00000298       ??_C@_05KBJH@armor?$AA@    2005c298     g_cmds.obj
 0002:000002a0       ??_C@_04OGMN@ammo?$AA@     2005c2a0     g_cmds.obj
 0002:000002a8       ??_C@_07LLGA@weapons?$AA@  2005c2a8     g_cmds.obj
 0002:000002b0       ??_C@_06HECL@health?$AA@   2005c2b0     g_cmds.obj
 0002:000002b8       ??_C@_03MKE@all?$AA@       2005c2b8     g_cmds.obj
 0002:000002bc       ??_C@_0EG@EJO@You?5must?5run?5the?5server?5with?5?8?$CLs@ 2005c2bc     g_cmds.obj
 0002:00000304       ??_C@_0M@EOGG@godmode?5ON?6?$AA@ 2005c304     g_cmds.obj
 0002:00000310       ??_C@_0N@JADG@godmode?5OFF?6?$AA@ 2005c310     g_cmds.obj
 0002:00000320       ??_C@_0N@HPPA@notarget?5ON?6?$AA@ 2005c320     g_cmds.obj
 0002:00000330       ??_C@_0O@EPAH@notarget?5OFF?6?$AA@ 2005c330     g_cmds.obj
 0002:00000340       ??_C@_0L@DMHD@noclip?5ON?6?$AA@ 2005c340     g_cmds.obj
 0002:0000034c       ??_C@_0M@GMEE@noclip?5OFF?6?$AA@ 2005c34c     g_cmds.obj
 0002:00000358       ??_C@_0BB@ICGD@Out?5of?5item?3?5?$CFs?6?$AA@ 2005c358     g_cmds.obj
 0002:0000036c       ??_C@_0BF@ECFF@Item?5is?5not?5usable?4?6?$AA@ 2005c36c     g_cmds.obj
 0002:00000384       ??_C@_0BC@FGI@unknown?5item?3?5?$CFs?6?$AA@ 2005c384     g_cmds.obj
 0002:00000398       ??_C@_0BH@NMG@Item?5is?5not?5dropable?4?6?$AA@ 2005c398     g_cmds.obj
 0002:000003b0       ??_C@_0BB@NJAG@No?5item?5to?5use?4?6?$AA@ 2005c3b0     g_cmds.obj
 0002:000003c4       ??_C@_0BC@HEAG@No?5item?5to?5drop?4?6?$AA@ 2005c3c4     g_cmds.obj
 0002:000003d8       ??_C@_0P@FMDD@?$CFs?6?$CFi?5players?6?$AA@ 2005c3d8     g_cmds.obj
 0002:000003e8       ??_C@_04HHEG@?4?4?4?6?$AA@ 2005c3e8     g_cmds.obj
 0002:000003f0       ??_C@_07GHIM@?$CF3i?5?$CFs?6?$AA@ 2005c3f0     g_cmds.obj
 0002:000003f8       ??_C@_06OOPL@point?6?$AA@  2005c3f8     g_cmds.obj
 0002:00000400       ??_C@_05IMMH@wave?6?$AA@   2005c400     g_cmds.obj
 0002:00000408       ??_C@_06JDHH@taunt?6?$AA@  2005c408     g_cmds.obj
 0002:00000410       ??_C@_07KPAG@salute?6?$AA@ 2005c410     g_cmds.obj
 0002:00000418       ??_C@_08OAMP@flipoff?6?$AA@ 2005c418     g_cmds.obj
 0002:00000424       ??_C@_02DILL@?$CFs?$AA@    2005c424     g_cmds.obj
 0002:00000428       ??_C@_0DD@GPOA@Flood?5protection?3?5?5You?5can?8t?5tal@ 2005c428     g_cmds.obj
 0002:0000045c       ??_C@_0CE@IGNL@You?5can?8t?5talk?5for?5?$CFd?5more?5secon@ 2005c45c     g_cmds.obj
 0002:00000480       ??_C@_01BJG@?6?$AA@        2005c480     g_cmds.obj
 0002:00000484       ??_C@_01FCOA@?5?$AA@       2005c484     g_cmds.obj
 0002:00000488       ??_C@_04HPGM@?$CFs?3?5?$AA@ 2005c488     g_cmds.obj
 0002:00000490       ??_C@_06MGD@?$CI?$CFs?$CJ?3?5?$AA@ 2005c490     g_cmds.obj
 0002:00000498       ??_C@_0N@KKIB@And?5more?4?4?4?6?$AA@ 2005c498     g_cmds.obj
 0002:000004a8       ??_C@_0BI@LPHL@?$CF02d?3?$CF02d?5?$CF4d?5?$CF3d?5?$CFs?$CFs?6?$AA@ 2005c4a8     g_cmds.obj
 0002:000004c0       ??_C@_00A@?$AA@            2005c4c0     g_cmds.obj
 0002:000004c4       ??_C@_0N@HPPG@?5?$CIspectator?$CJ?$AA@ 2005c4c4     g_cmds.obj
 0002:000004d4       ??_C@_0L@HINF@playerlist?$AA@ 2005c4d4     g_cmds.obj
 0002:000004e0       ??_C@_04FBHL@wave?$AA@     2005c4e0     g_cmds.obj
 0002:000004e8       ??_C@_07BOFE@putaway?$AA@  2005c4e8     g_cmds.obj
 0002:000004f0       ??_C@_04CHLA@kill?$AA@     2005c4f0     g_cmds.obj
 0002:000004f8       ??_C@_08NPJF@weaplast?$AA@ 2005c4f8     g_cmds.obj
 0002:00000504       ??_C@_08FDMA@weapnext?$AA@ 2005c504     g_cmds.obj
 0002:00000510       ??_C@_08KKEF@weapprev?$AA@ 2005c510     g_cmds.obj
 0002:0000051c       ??_C@_07DCEN@invdrop?$AA@  2005c51c     g_cmds.obj
 0002:00000524       ??_C@_06HJLO@invuse?$AA@   2005c524     g_cmds.obj
 0002:0000052c       ??_C@_08BHMF@invprevp?$AA@ 2005c52c     g_cmds.obj
 0002:00000538       ??_C@_08PNDM@invnextp?$AA@ 2005c538     g_cmds.obj
 0002:00000544       ??_C@_08ECCA@invprevw?$AA@ 2005c544     g_cmds.obj
 0002:00000550       ??_C@_08KINJ@invnextw?$AA@ 2005c550     g_cmds.obj
 0002:0000055c       ??_C@_07JFFH@invprev?$AA@  2005c55c     g_cmds.obj
 0002:00000564       ??_C@_07GMNC@invnext?$AA@  2005c564     g_cmds.obj
 0002:0000056c       ??_C@_05MCDF@inven?$AA@    2005c56c     g_cmds.obj
 0002:00000574       ??_C@_06GMBK@noclip?$AA@   2005c574     g_cmds.obj
 0002:0000057c       ??_C@_08BHIO@notarget?$AA@ 2005c57c     g_cmds.obj
 0002:00000588       ??_C@_03IPJE@god?$AA@      2005c588     g_cmds.obj
 0002:0000058c       ??_C@_04JEOP@give?$AA@     2005c58c     g_cmds.obj
 0002:00000594       ??_C@_04NMBB@drop?$AA@     2005c594     g_cmds.obj
 0002:0000059c       ??_C@_03CFBD@use?$AA@      2005c59c     g_cmds.obj
 0002:000005a0       ??_C@_04MHDN@help?$AA@     2005c5a0     g_cmds.obj
 0002:000005a8       ??_C@_05FILO@score?$AA@    2005c5a8     g_cmds.obj
 0002:000005b0       ??_C@_08PAEI@say_team?$AA@ 2005c5b0     g_cmds.obj
 0002:000005bc       ??_C@_03NJAM@say?$AA@      2005c5bc     g_cmds.obj
 0002:000005c0       ??_C@_07PECE@players?$AA@  2005c5c0     g_cmds.obj
 0002:000005c8       __real@8@4002f000000000000000 2005c5c8     g_combat.obj
 0002:000005d0       ??_C@_0O@OACK@monster_medic?$AA@ 2005c5d0     g_combat.obj
 0002:000005e0       ??_C@_0N@MLBM@monster_jorg?$AA@ 2005c5e0     g_combat.obj
 0002:000005f0       ??_C@_0P@PAKL@monster_makron?$AA@ 2005c5f0     g_combat.obj
 0002:00000600       ??_C@_0BC@IELI@monster_supertank?$AA@ 2005c600     g_combat.obj
 0002:00000614       ??_C@_0N@GMDA@monster_tank?$AA@ 2005c614     g_combat.obj
 0002:00000624       __real@4@4000c000000000000000 2005c624     g_combat.obj
 0002:00000628       ??_C@_0BD@BIJ@items?1protect4?4wav?$AA@ 2005c628     g_combat.obj
 0002:00000640       __real@8@4007fa00000000000000 2005c640     g_combat.obj
 0002:00000648       __real@8@4009c800000000000000 2005c648     g_combat.obj
 0002:00000650       __real@8@3ffcccccccccccccd000 2005c650     g_combat.obj
 0002:00000658       ??_C@_05IJJG@Cells?$AA@    2005c658     g_combat.obj
 0002:00000660       __real@8@3ffbccccccccccccd000 2005c660     g_func.obj
 0002:00000668       __real@8@c0008000000000000000 2005c668     g_func.obj
 0002:00000670       __real@4@c0008000000000000000 2005c670     g_func.obj
 0002:00000674       __real@4@40018000000000000000 2005c674     g_func.obj
 0002:00000678       __real@8@40008000000000000000 2005c678     g_func.obj
 0002:00000680       __real@4@4002a000000000000000 2005c680     g_func.obj
 0002:00000684       __real@4@40028000000000000000 2005c684     g_func.obj
 0002:00000688       __real@4@4003c800000000000000 2005c688     g_func.obj
 0002:0000068c       ??_C@_0BC@EIKC@plats?1pt1_end?4wav?$AA@ 2005c68c     g_func.obj
 0002:000006a0       ??_C@_0BC@NEGP@plats?1pt1_mid?4wav?$AA@ 2005c6a0     g_func.obj
 0002:000006b4       ??_C@_0BD@CLJM@plats?1pt1_strt?4wav?$AA@ 2005c6b4     g_func.obj
 0002:000006c8       ??_C@_0BD@FDDF@switches?1butn2?4wav?$AA@ 2005c6c8     g_func.obj
 0002:000006dc       ??_C@_0BA@OOGF@func_areaportal?$AA@ 2005c6dc     g_func.obj
 0002:000006ec       ??_C@_0BD@DIJK@func_door_rotating?$AA@ 2005c6ec     g_func.obj
 0002:00000700       ??_C@_09HMCI@func_door?$AA@ 2005c700     g_func.obj
 0002:0000070c       __real@4@4004f000000000000000 2005c70c     g_func.obj
 0002:00000710       ??_C@_0P@HFBE@misc?1talk1?4wav?$AA@ 2005c710     g_func.obj
 0002:00000720       ??_C@_0O@DEBE@misc?1talk?4wav?$AA@ 2005c720     g_func.obj
 0002:00000730       ??_C@_0BC@MBBE@doors?1dr1_end?4wav?$AA@ 2005c730     g_func.obj
 0002:00000744       ??_C@_0BC@FNNJ@doors?1dr1_mid?4wav?$AA@ 2005c744     g_func.obj
 0002:00000758       ??_C@_0BD@GMBF@doors?1dr1_strt?4wav?$AA@ 2005c758     g_func.obj
 0002:0000076c       ??_C@_0BP@EBPH@?$CFs?5at?5?$CFs?5with?5no?5distance?5set?6?$AA@ 2005c76c     g_func.obj
 0002:0000078c       __real@4@bfff8000000000000000 2005c78c     g_func.obj
 0002:00000790       ??_C@_0BD@FCKL@world?1stp_watr?4wav?$AA@ 2005c790     g_func.obj
 0002:000007a4       ??_C@_0BD@GMLH@world?1mov_watr?4wav?$AA@ 2005c7a4     g_func.obj
 0002:000007b8       ??_C@_0CP@LEJP@connected?5teleport?5path_corners?0@ 2005c7b8     g_func.obj
 0002:000007e8       ??_C@_0BL@EBHP@train_next?3?5bad?5target?5?$CFs?6?$AA@ 2005c7e8     g_func.obj
 0002:00000804       ??_C@_0CB@KOIG@train_find?3?5target?5?$CFs?5not?5found?6@ 2005c804     g_func.obj
 0002:00000828       ??_C@_0BH@BLIH@train_find?3?5no?5target?6?$AA@ 2005c828     g_func.obj
 0002:00000840       ??_C@_0CD@EJHD@func_train?5without?5a?5target?5at?5?$CF@ 2005c840     g_func.obj
 0002:00000864       ??_C@_0CH@DLI@elevator?5used?5with?5bad?5pathtarge@ 2005c864     g_func.obj
 0002:0000088c       ??_C@_0CC@IBKK@elevator?5used?5with?5no?5pathtarget@ 2005c88c     g_func.obj
 0002:000008b0       ??_C@_0CL@PPLO@trigger_elevator?5target?5?$CFs?5is?5no@ 2005c8b0     g_func.obj
 0002:000008dc       ??_C@_0L@OLKI@func_train?$AA@ 2005c8dc     g_func.obj
 0002:000008e8       ??_C@_0CL@CBCI@trigger_elevator?5unable?5to?5find?5@ 2005c8e8     g_func.obj
 0002:00000914       ??_C@_0CA@BDIG@trigger_elevator?5has?5no?5target?6?$AA@ 2005c914     g_func.obj
 0002:00000934       ??_C@_0CF@NBCN@func_timer?5at?5?$CFs?5has?5random?5?$DO?$DN?5w@ 2005c934     g_func.obj
 0002:0000095c       ??_C@_0EM@LNKL@items?1s_health?4wav?5items?1n_healt@ 2005c95c     g_items.obj
 0002:000009a8       ??_C@_06MACP@Health?$AA@   2005c9a8     g_items.obj
 0002:000009b0       ??_C@_08ICHB@i_health?$AA@ 2005c9b0     g_items.obj
 0002:000009bc       ??_C@_0BB@ICKC@Airstrike?5Marker?$AA@ 2005c9bc     g_items.obj
 0002:000009d0       ??_C@_0M@BJCM@i_airstrike?$AA@ 2005c9d0     g_items.obj
 0002:000009dc       ??_C@_0CC@BHHL@models?1items?1keys?1target?1tris?4md@ 2005c9dc     g_items.obj
 0002:00000a00       ??_C@_0BF@HDCH@key_airstrike_target?$AA@ 2005ca00     g_items.obj
 0002:00000a18       ??_C@_0BB@JKCO@Commander?8s?5Head?$AA@ 2005ca18     g_items.obj
 0002:00000a2c       ??_C@_09DDEJ@k_comhead?$AA@ 2005ca2c     g_items.obj
 0002:00000a38       ??_C@_0CH@PJGN@models?1monsters?1commandr?1head?1tr@ 2005ca38     g_items.obj
 0002:00000a60       ??_C@_0BD@IOEP@key_commander_head?$AA@ 2005ca60     g_items.obj
 0002:00000a74       ??_C@_07FJLB@Red?5Key?$AA@ 2005ca74     g_items.obj
 0002:00000a7c       ??_C@_08LPPA@k_redkey?$AA@ 2005ca7c     g_items.obj
 0002:00000a88       ??_C@_0CD@OEHM@models?1items?1keys?1red_key?1tris?4m@ 2005ca88     g_items.obj
 0002:00000aac       ??_C@_0M@IMJK@key_red_key?$AA@ 2005caac     g_items.obj
 0002:00000ab8       ??_C@_08JAFA@Blue?5Key?$AA@ 2005cab8     g_items.obj
 0002:00000ac4       ??_C@_09OBKC@k_bluekey?$AA@ 2005cac4     g_items.obj
 0002:00000ad0       ??_C@_0BP@KAAH@models?1items?1keys?1key?1tris?4md2?$AA@ 2005cad0     g_items.obj
 0002:00000af0       ??_C@_0N@OOKB@key_blue_key?$AA@ 2005caf0     g_items.obj
 0002:00000b00       ??_C@_0O@NDGM@Security?5Pass?$AA@ 2005cb00     g_items.obj
 0002:00000b10       ??_C@_0L@PMKO@k_security?$AA@ 2005cb10     g_items.obj
 0002:00000b1c       ??_C@_0CA@FPDK@models?1items?1keys?1pass?1tris?4md2?$AA@ 2005cb1c     g_items.obj
 0002:00000b3c       ??_C@_08BBNH@key_pass?$AA@ 2005cb3c     g_items.obj
 0002:00000b48       ??_C@_0N@JPBB@Data?5Spinner?$AA@ 2005cb48     g_items.obj
 0002:00000b58       ??_C@_0L@KFIJ@k_dataspin?$AA@ 2005cb58     g_items.obj
 0002:00000b64       ??_C@_0CD@FKBP@models?1items?1keys?1spinner?1tris?4m@ 2005cb64     g_items.obj
 0002:00000b88       ??_C@_0BB@BMDG@key_data_spinner?$AA@ 2005cb88     g_items.obj
 0002:00000b9c       ??_C@_0M@BHPN@Pyramid?5Key?$AA@ 2005cb9c     g_items.obj
 0002:00000ba8       ??_C@_09MHMJ@k_pyramid?$AA@ 2005cba8     g_items.obj
 0002:00000bb4       ??_C@_0CD@KBCN@models?1items?1keys?1pyramid?1tris?4m@ 2005cbb4     g_items.obj
 0002:00000bd8       ??_C@_0M@EGCN@key_pyramid?$AA@ 2005cbd8     g_items.obj
 0002:00000be4       ??_C@_0L@NGMP@Power?5Cube?$AA@ 2005cbe4     g_items.obj
 0002:00000bf0       ??_C@_0M@MDMI@k_powercube?$AA@ 2005cbf0     g_items.obj
 0002:00000bfc       ??_C@_0CB@NDLO@models?1items?1keys?1power?1tris?4md2@ 2005cbfc     g_items.obj
 0002:00000c20       ??_C@_0P@KFJF@key_power_cube?$AA@ 2005cc20     g_items.obj
 0002:00000c30       ??_C@_07NOCL@Data?5CD?$AA@ 2005cc30     g_items.obj
 0002:00000c38       ??_C@_08PDOC@k_datacd?$AA@ 2005cc38     g_items.obj
 0002:00000c44       ??_C@_0CD@PNKA@models?1items?1keys?1data_cd?1tris?4m@ 2005cc44     g_items.obj
 0002:00000c68       ??_C@_0M@HNGO@key_data_cd?$AA@ 2005cc68     g_items.obj
 0002:00000c74       ??_C@_09PBEE@Ammo?5Pack?$AA@ 2005cc74     g_items.obj
 0002:00000c80       ??_C@_06KINL@i_pack?$AA@   2005cc80     g_items.obj
 0002:00000c88       ??_C@_0BL@HOFG@models?1items?1pack?1tris?4md2?$AA@ 2005cc88     g_items.obj
 0002:00000ca4       ??_C@_09LKGH@item_pack?$AA@ 2005cca4     g_items.obj
 0002:00000cb0       ??_C@_09COCH@Bandolier?$AA@ 2005ccb0     g_items.obj
 0002:00000cbc       ??_C@_0M@OADN@p_bandolier?$AA@ 2005ccbc     g_items.obj
 0002:00000cc8       ??_C@_0BL@PMA@models?1items?1band?1tris?4md2?$AA@ 2005ccc8     g_items.obj
 0002:00000ce4       ??_C@_0P@NILP@item_bandolier?$AA@ 2005cce4     g_items.obj
 0002:00000cf4       ??_C@_0L@PNMB@Adrenaline?$AA@ 2005ccf4     g_items.obj
 0002:00000d00       ??_C@_0N@NGAP@p_adrenaline?$AA@ 2005cd00     g_items.obj
 0002:00000d10       ??_C@_0BO@DMKC@models?1items?1adrenal?1tris?4md2?$AA@ 2005cd10     g_items.obj
 0002:00000d30       ??_C@_0BA@GODH@item_adrenaline?$AA@ 2005cd30     g_items.obj
 0002:00000d40       ??_C@_0N@JMEI@Ancient?5Head?$AA@ 2005cd40     g_items.obj
 0002:00000d50       ??_C@_07GBEC@i_fixme?$AA@  2005cd50     g_items.obj
 0002:00000d58       ??_C@_0BN@KLFA@models?1items?1c_head?1tris?4md2?$AA@ 2005cd58     g_items.obj
 0002:00000d78       ??_C@_0BC@JGIH@item_ancient_head?$AA@ 2005cd78     g_items.obj
 0002:00000d8c       ??_C@_0BB@IPAO@Environment?5Suit?$AA@ 2005cd8c     g_items.obj
 0002:00000da0       ??_C@_0N@OPNI@p_envirosuit?$AA@ 2005cda0     g_items.obj
 0002:00000db0       ??_C@_0BN@FAOA@models?1items?1enviro?1tris?4md2?$AA@ 2005cdb0     g_items.obj
 0002:00000dd0       ??_C@_0M@CNAP@item_enviro?$AA@ 2005cdd0     g_items.obj
 0002:00000ddc       ??_C@_0BB@NIN@items?1airout?4wav?$AA@ 2005cddc     g_items.obj
 0002:00000df0       ??_C@_0L@LNMI@Rebreather?$AA@ 2005cdf0     g_items.obj
 0002:00000dfc       ??_C@_0N@JGAG@p_rebreather?$AA@ 2005cdfc     g_items.obj
 0002:00000e0c       ??_C@_0BP@BBGL@models?1items?1breather?1tris?4md2?$AA@ 2005ce0c     g_items.obj
 0002:00000e2c       ??_C@_0O@CDCD@item_breather?$AA@ 2005ce2c     g_items.obj
 0002:00000e3c       ??_C@_08HEGP@Silencer?$AA@ 2005ce3c     g_items.obj
 0002:00000e48       ??_C@_0L@GOHC@p_silencer?$AA@ 2005ce48     g_items.obj
 0002:00000e54       ??_C@_0BP@GHMI@models?1items?1silencer?1tris?4md2?$AA@ 2005ce54     g_items.obj
 0002:00000e74       ??_C@_0O@OMAC@item_silencer?$AA@ 2005ce74     g_items.obj
 0002:00000e84       ??_C@_0DI@NJKD@items?1protect?4wav?5items?1protect2@ 2005ce84     g_items.obj
 0002:00000ebc       ??_C@_0BA@BJNG@Invulnerability?$AA@ 2005cebc     g_items.obj
 0002:00000ecc       ??_C@_0BC@EFC@p_invulnerability?$AA@ 2005cecc     g_items.obj
 0002:00000ee0       ??_C@_0BP@CBEK@models?1items?1invulner?1tris?4md2?$AA@ 2005cee0     g_items.obj
 0002:00000f00       ??_C@_0BF@MAMM@item_invulnerability?$AA@ 2005cf00     g_items.obj
 0002:00000f18       ??_C@_0DF@IGAC@items?1damage?4wav?5items?1damage2?4w@ 2005cf18     g_items.obj
 0002:00000f50       ??_C@_0M@MLLH@Quad?5Damage?$AA@ 2005cf50     g_items.obj
 0002:00000f5c       ??_C@_06KKBC@p_quad?$AA@   2005cf5c     g_items.obj
 0002:00000f64       ??_C@_0BP@KNLB@models?1items?1quaddama?1tris?4md2?$AA@ 2005cf64     g_items.obj
 0002:00000f84       ??_C@_0P@GLJD@items?1pkup?4wav?$AA@ 2005cf84     g_items.obj
 0002:00000f94       ??_C@_09NKAN@item_quad?$AA@ 2005cf94     g_items.obj
 0002:00000fa0       ??_C@_07MDOK@a_slugs?$AA@  2005cfa0     g_items.obj
 0002:00000fa8       ??_C@_0CI@HJH@models?1items?1ammo?1slugs?1medium?1t@ 2005cfa8     g_items.obj
 0002:00000fd0       ??_C@_0L@PCJD@ammo_slugs?$AA@ 2005cfd0     g_items.obj
 0002:00000fdc       ??_C@_09BGGI@a_rockets?$AA@ 2005cfdc     g_items.obj
 0002:00000fe8       ??_C@_0CK@EPEF@models?1items?1ammo?1rockets?1medium@ 2005cfe8     g_items.obj
 0002:00001014       ??_C@_0N@DEF@ammo_rockets?$AA@ 2005d014     g_items.obj
 0002:00001024       ??_C@_07KDBP@a_cells?$AA@  2005d024     g_items.obj
 0002:0000102c       ??_C@_0CI@CBPO@models?1items?1ammo?1cells?1medium?1t@ 2005d02c     g_items.obj
 0002:00001054       ??_C@_0L@JCGG@ammo_cells?$AA@ 2005d054     g_items.obj
 0002:00001060       ??_C@_09LIBP@a_bullets?$AA@ 2005d060     g_items.obj
 0002:0000106c       ??_C@_0CK@CGE@models?1items?1ammo?1bullets?1medium@ 2005d06c     g_items.obj
 0002:00001098       ??_C@_0N@KNDC@ammo_bullets?$AA@ 2005d098     g_items.obj
 0002:000010a8       ??_C@_08ODLI@a_shells?$AA@ 2005d0a8     g_items.obj
 0002:000010b4       ??_C@_0CJ@HNEA@models?1items?1ammo?1shells?1medium?1@ 2005d0b4     g_items.obj
 0002:000010e0       ??_C@_0M@MOIJ@ammo_shells?$AA@ 2005d0e0     g_items.obj
 0002:000010ec       ??_C@_0IM@CFEI@sprites?1s_bfg1?4sp2?5sprites?1s_bfg@ 2005d0ec     g_items.obj
 0002:00001178       ??_C@_06KEGK@BFG10K?$AA@   2005d178     g_items.obj
 0002:00001180       ??_C@_05HHEE@w_bfg?$AA@    2005d180     g_items.obj
 0002:00001188       ??_C@_0BO@NMNP@models?1weapons?1v_bfg?1tris?4md2?$AA@ 2005d188     g_items.obj
 0002:000011a8       ??_C@_0BO@HJJI@models?1weapons?1g_bfg?1tris?4md2?$AA@ 2005d1a8     g_items.obj
 0002:000011c8       ??_C@_0L@NOHL@weapon_bfg?$AA@ 2005d1c8     g_items.obj
 0002:000011d4       ??_C@_0BD@FAHJ@weapons?1rg_hum?4wav?$AA@ 2005d1d4     g_items.obj
 0002:000011e8       ??_C@_05OJGD@Slugs?$AA@    2005d1e8     g_items.obj
 0002:000011f0       ??_C@_07MJPA@Railgun?$AA@  2005d1f0     g_items.obj
 0002:000011f8       ??_C@_09JLMB@w_railgun?$AA@ 2005d1f8     g_items.obj
 0002:00001204       ??_C@_0BP@MPOG@models?1weapons?1v_rail?1tris?4md2?$AA@ 2005d204     g_items.obj
 0002:00001224       ??_C@_0BP@CHED@models?1weapons?1g_rail?1tris?4md2?$AA@ 2005d224     g_items.obj
 0002:00001244       ??_C@_0P@FOOL@weapon_railgun?$AA@ 2005d244     g_items.obj
 0002:00001254       ??_C@_0GE@IGEK@weapons?1hyprbu1a?4wav?5weapons?1hyp@ 2005d254     g_items.obj
 0002:000012b8       ??_C@_0N@CJGK@HyperBlaster?$AA@ 2005d2b8     g_items.obj
 0002:000012c8       ??_C@_0P@EMJD@w_hyperblaster?$AA@ 2005d2c8     g_items.obj
 0002:000012d8       ??_C@_0CB@BANK@models?1weapons?1v_hyperb?1tris?4md2@ 2005d2d8     g_items.obj
 0002:000012fc       ??_C@_0CB@KGOH@models?1weapons?1g_hyperb?1tris?4md2@ 2005d2fc     g_items.obj
 0002:00001320       ??_C@_0BE@LOMA@weapon_hyperblaster?$AA@ 2005d320     g_items.obj
 0002:00001334       ??_C@_0HN@PHOL@models?1objects?1rocket?1tris?4md2?5w@ 2005d334     g_items.obj
 0002:000013b4       ??_C@_07ONGL@Rockets?$AA@  2005d3b4     g_items.obj
 0002:000013bc       ??_C@_0BA@JFMN@Rocket?5Launcher?$AA@ 2005d3bc     g_items.obj
 0002:000013cc       ??_C@_0M@CIAK@w_rlauncher?$AA@ 2005d3cc     g_items.obj
 0002:000013d8       ??_C@_0CB@GJNF@models?1weapons?1v_rocket?1tris?4md2@ 2005d3d8     g_items.obj
 0002:000013fc       ??_C@_0CB@NPOI@models?1weapons?1g_rocket?1tris?4md2@ 2005d3fc     g_items.obj
 0002:00001420       ??_C@_0BG@EKMA@weapon_rocketlauncher?$AA@ 2005d420     g_items.obj
 0002:00001438       ??_C@_0FP@GPCL@models?1objects?1grenade?1tris?4md2?5@ 2005d438     g_items.obj
 0002:00001498       ??_C@_0BB@KEFG@Grenade?5Launcher?$AA@ 2005d498     g_items.obj
 0002:000014ac       ??_C@_0M@MHOA@w_glauncher?$AA@ 2005d4ac     g_items.obj
 0002:000014b8       ??_C@_0CB@PDJC@models?1weapons?1v_launch?1tris?4md2@ 2005d4b8     g_items.obj
 0002:000014dc       ??_C@_0CB@EFKP@models?1weapons?1g_launch?1tris?4md2@ 2005d4dc     g_items.obj
 0002:00001500       ??_C@_0BH@FDFB@weapon_grenadelauncher?$AA@ 2005d500     g_items.obj
 0002:00001518       ??_C@_0GK@JHN@weapons?1hgrent1a?4wav?5weapons?1hgr@ 2005d518     g_items.obj
 0002:00001584       ??_C@_08CAJL@grenades?$AA@ 2005d584     g_items.obj
 0002:00001590       ??_C@_08CFEJ@Grenades?$AA@ 2005d590     g_items.obj
 0002:0000159c       ??_C@_0L@EMLC@a_grenades?$AA@ 2005d59c     g_items.obj
 0002:000015a8       ??_C@_0CB@BEBI@models?1weapons?1v_handgr?1tris?4md2@ 2005d5a8     g_items.obj
 0002:000015cc       ??_C@_0CL@OLDE@models?1items?1ammo?1grenades?1mediu@ 2005d5cc     g_items.obj
 0002:000015f8       ??_C@_0BB@CKLK@misc?1am_pkup?4wav?$AA@ 2005d5f8     g_items.obj
 0002:0000160c       ??_C@_0O@KBKH@ammo_grenades?$AA@ 2005d60c     g_items.obj
 0002:0000161c       ??_C@_0FF@LIOJ@weapons?1chngnu1a?4wav?5weapons?1chn@ 2005d61c     g_items.obj
 0002:00001674       ??_C@_08ECOK@Chaingun?$AA@ 2005d674     g_items.obj
 0002:00001680       ??_C@_0L@PHLI@w_chaingun?$AA@ 2005d680     g_items.obj
 0002:0000168c       ??_C@_0CA@DPMF@models?1weapons?1v_chain?1tris?4md2?$AA@ 2005d68c     g_items.obj
 0002:000016ac       ??_C@_0CA@CCN@models?1weapons?1g_chain?1tris?4md2?$AA@ 2005d6ac     g_items.obj
 0002:000016cc       ??_C@_0BA@FDHN@weapon_chaingun?$AA@ 2005d6cc     g_items.obj
 0002:000016dc       ??_C@_0GJ@MDBO@weapons?1machgf1b?4wav?5weapons?1mac@ 2005d6dc     g_items.obj
 0002:00001748       ??_C@_07EDBM@Bullets?$AA@  2005d748     g_items.obj
 0002:00001750       ??_C@_0L@OIKI@Machinegun?$AA@ 2005d750     g_items.obj
 0002:0000175c       ??_C@_0N@MCPD@w_machinegun?$AA@ 2005d75c     g_items.obj
 0002:0000176c       ??_C@_0CA@BHPB@models?1weapons?1v_machn?1tris?4md2?$AA@ 2005d76c     g_items.obj
 0002:0000178c       ??_C@_0CA@CKBJ@models?1weapons?1g_machn?1tris?4md2?$AA@ 2005d78c     g_items.obj
 0002:000017ac       ??_C@_0BC@JMBH@weapon_machinegun?$AA@ 2005d7ac     g_items.obj
 0002:000017c0       ??_C@_0BF@PMBF@weapons?1sshotf1b?4wav?$AA@ 2005d7c0     g_items.obj
 0002:000017d8       ??_C@_0O@IBII@Super?5Shotgun?$AA@ 2005d7d8     g_items.obj
 0002:000017e8       ??_C@_0L@FGHD@w_sshotgun?$AA@ 2005d7e8     g_items.obj
 0002:000017f4       ??_C@_0CB@LBHC@models?1weapons?1v_shotg2?1tris?4md2@ 2005d7f4     g_items.obj
 0002:00001818       ??_C@_0CB@HEP@models?1weapons?1g_shotg2?1tris?4md2@ 2005d818     g_items.obj
 0002:0000183c       ??_C@_0BE@HCK@weapon_supershotgun?$AA@ 2005d83c     g_items.obj
 0002:00001850       ??_C@_0CK@HCMB@weapons?1shotgf1b?4wav?5weapons?1sho@ 2005d850     g_items.obj
 0002:0000187c       ??_C@_06OAJC@Shells?$AA@   2005d87c     g_items.obj
 0002:00001884       ??_C@_07GAKK@Shotgun?$AA@  2005d884     g_items.obj
 0002:0000188c       ??_C@_09DCJL@w_shotgun?$AA@ 2005d88c     g_items.obj
 0002:00001898       ??_C@_0CA@HEBK@models?1weapons?1v_shotg?1tris?4md2?$AA@ 2005d898     g_items.obj
 0002:000018b8       ??_C@_0CA@EJPC@models?1weapons?1g_shotg?1tris?4md2?$AA@ 2005d8b8     g_items.obj
 0002:000018d8       ??_C@_0P@PHLB@weapon_shotgun?$AA@ 2005d8d8     g_items.obj
 0002:000018e8       ??_C@_0CF@NLGB@weapons?1blastf1a?4wav?5misc?1lasfly@ 2005d8e8     g_items.obj
 0002:00001910       ??_C@_07CAMC@Blaster?$AA@  2005d910     g_items.obj
 0002:00001918       ??_C@_09HCPD@w_blaster?$AA@ 2005d918     g_items.obj
 0002:00001924       ??_C@_0CA@GOAM@models?1weapons?1v_blast?1tris?4md2?$AA@ 2005d924     g_items.obj
 0002:00001944       ??_C@_0BA@CGLK@misc?1w_pkup?4wav?$AA@ 2005d944     g_items.obj
 0002:00001954       ??_C@_0P@LHNJ@weapon_blaster?$AA@ 2005d954     g_items.obj
 0002:00001964       ??_C@_0CA@ECIN@misc?1power2?4wav?5misc?1power1?4wav?$AA@ 2005d964     g_items.obj
 0002:00001984       ??_C@_0O@CFDP@i_powershield?$AA@ 2005d984     g_items.obj
 0002:00001994       ??_C@_0CD@HCHN@models?1items?1armor?1shield?1tris?4m@ 2005d994     g_items.obj
 0002:000019b8       ??_C@_0BC@CKDO@item_power_shield?$AA@ 2005d9b8     g_items.obj
 0002:000019cc       ??_C@_0N@CAGF@Power?5Screen?$AA@ 2005d9cc     g_items.obj
 0002:000019dc       ??_C@_0O@HGFF@i_powerscreen?$AA@ 2005d9dc     g_items.obj
 0002:000019ec       ??_C@_0CD@CBGF@models?1items?1armor?1screen?1tris?4m@ 2005d9ec     g_items.obj
 0002:00001a10       ??_C@_0BC@DCGO@misc?1ar3_pkup?4wav?$AA@ 2005da10     g_items.obj
 0002:00001a24       ??_C@_0BC@HJFE@item_power_screen?$AA@ 2005da24     g_items.obj
 0002:00001a38       ??_C@_0M@KPGH@Armor?5Shard?$AA@ 2005da38     g_items.obj
 0002:00001a44       ??_C@_0CC@GMDM@models?1items?1armor?1shard?1tris?4md@ 2005da44     g_items.obj
 0002:00001a68       ??_C@_0BC@LNKM@misc?1ar2_pkup?4wav?$AA@ 2005da68     g_items.obj
 0002:00001a7c       ??_C@_0BB@JODA@item_armor_shard?$AA@ 2005da7c     g_items.obj
 0002:00001a90       ??_C@_0O@KNO@i_jacketarmor?$AA@ 2005da90     g_items.obj
 0002:00001aa0       ??_C@_0CD@EFEK@models?1items?1armor?1jacket?1tris?4m@ 2005daa0     g_items.obj
 0002:00001ac4       ??_C@_0BC@PLPJ@item_armor_jacket?$AA@ 2005dac4     g_items.obj
 0002:00001ad8       ??_C@_0O@MGEN@i_combatarmor?$AA@ 2005dad8     g_items.obj
 0002:00001ae8       ??_C@_0CD@JFAG@models?1items?1armor?1combat?1tris?4m@ 2005dae8     g_items.obj
 0002:00001b0c       ??_C@_0BC@GPNI@item_armor_combat?$AA@ 2005db0c     g_items.obj
 0002:00001b20       ??_C@_0M@KLPF@i_bodyarmor?$AA@ 2005db20     g_items.obj
 0002:00001b2c       ??_C@_0CB@OJMK@models?1items?1armor?1body?1tris?4md2@ 2005db2c     g_items.obj
 0002:00001b50       ??_C@_0BC@CNOK@misc?1ar1_pkup?4wav?$AA@ 2005db50     g_items.obj
 0002:00001b64       ??_C@_0BA@GFMA@item_armor_body?$AA@ 2005db64     g_items.obj
 0002:00001b74       ??_C@_0BB@NELB@items?1damage?4wav?$AA@ 2005db74     g_items.obj
 0002:00001b88       __real@4@40079600000000000000 2005db88     g_items.obj
 0002:00001b8c       ??_C@_0BC@BJLH@items?1protect?4wav?$AA@ 2005db8c     g_items.obj
 0002:00001ba0       ??_C@_07PCHG@blaster?$AA@  2005dba0     g_items.obj
 0002:00001ba8       ??_C@_0BL@ODCM@Can?8t?5drop?5current?5weapon?6?$AA@ 2005dba8     g_items.obj
 0002:00001bc4       ??_C@_0BA@MOHK@misc?1power1?4wav?$AA@ 2005dbc4     g_items.obj
 0002:00001bd4       ??_C@_0BL@OHOH@No?5cells?5for?5power?5armor?4?6?$AA@ 2005dbd4     g_items.obj
 0002:00001bf0       ??_C@_05INDM@cells?$AA@    2005dbf0     g_items.obj
 0002:00001bf8       ??_C@_0BA@COBF@misc?1power2?4wav?$AA@ 2005dbf8     g_items.obj
 0002:00001c08       ??_C@_0BD@HBMH@items?1m_health?4wav?$AA@ 2005dc08     g_items.obj
 0002:00001c1c       ??_C@_0BD@BMCN@items?1l_health?4wav?$AA@ 2005dc1c     g_items.obj
 0002:00001c30       ??_C@_0BD@MHPI@items?1n_health?4wav?$AA@ 2005dc30     g_items.obj
 0002:00001c44       ??_C@_0BD@KMEE@items?1s_health?4wav?$AA@ 2005dc44     g_items.obj
 0002:00001c58       __real@8@4000c000000000000000 2005dc58     g_items.obj
 0002:00001c60       __real@4@4003e800000000000000 2005dc60     g_items.obj
 0002:00001c64       ??_C@_0CC@KCLI@droptofloor?3?5?$CFs?5startsolid?5at?5?$CFs@ 2005dc64     g_items.obj
 0002:00001c88       ??_C@_03KIPF@pcx?$AA@      2005dc88     g_items.obj
 0002:00001c8c       ??_C@_03JAAL@wav?$AA@      2005dc8c     g_items.obj
 0002:00001c90       ??_C@_03KLMO@sp2?$AA@      2005dc90     g_items.obj
 0002:00001c94       ??_C@_03MGGF@md2?$AA@      2005dc94     g_items.obj
 0002:00001c98       ??_C@_0CJ@CCML@PrecacheItem?3?5?$CFs?5has?5bad?5precach@ 2005dc98     g_items.obj
 0002:00001cc4       ??_C@_0CF@IMLI@?$CFs?5at?5?$CFs?5has?5invalid?5spawnflags?5@ 2005dcc4     g_items.obj
 0002:00001cec       ??_C@_0CF@IDDJ@models?1items?1healing?1medium?1tris@ 2005dcec     g_items.obj
 0002:00001d14       ??_C@_0CH@FLHP@models?1items?1healing?1stimpack?1tr@ 2005dd14     g_items.obj
 0002:00001d3c       ??_C@_0CE@FEBG@models?1items?1healing?1large?1tris?4@ 2005dd3c     g_items.obj
 0002:00001d60       ??_C@_0BN@GFAE@models?1items?1mega_h?1tris?4md2?$AA@ 2005dd60     g_items.obj
 0002:00001d80       ??_C@_04PMAK@?5?0?6?$AN?$AA@ 2005dd80     g_main.obj
 0002:00001d88       ??_C@_0BI@PFML@?$DN?$DN?$DN?$DN?5ShutdownGame?5?$DN?$DN?$DN?$DN?6?$AA@ 2005dd88     g_main.obj
 0002:00001da0       ??_C@_0BD@MLHK@target_changelevel?$AA@ 2005dda0     g_main.obj
 0002:00001db4       ??_C@_08DPHK@needpass?$AA@ 2005ddb4     g_main.obj
 0002:00001dc0       ??_C@_02MECO@?$CFd?$AA@    2005ddc0     g_main.obj
 0002:00001dc4       ??_C@_04KIKH@none?$AA@     2005ddc4     g_main.obj
 0002:00001dcc       ??_C@_0BA@LILH@Fraglimit?5hit?4?6?$AA@ 2005ddcc     g_main.obj
 0002:00001ddc       ??_C@_0BA@OFJB@Timelimit?5hit?4?6?$AA@ 2005dddc     g_main.obj
 0002:00001dec       ??_C@_0O@ONPD@gamemap?5?$CC?$CFs?$CC?6?$AA@ 2005ddec     g_main.obj
 0002:00001e00       __real@8@4006c800000000000000 2005de00     g_misc.obj
 0002:00001e08       __real@8@4005c800000000000000 2005de08     g_misc.obj
 0002:00001e10       __real@4@4006c800000000000000 2005de10     g_misc.obj
 0002:00001e14       __real@4@c0079600000000000000 2005de14     g_misc.obj
 0002:00001e18       ??_C@_0P@BHLG@misc?1fhit3?4wav?$AA@ 2005de18     g_misc.obj
 0002:00001e28       __real@4@40089600000000000000 2005de28     g_misc.obj
 0002:00001e30       __real@8@40089600000000000000 2005de30     g_misc.obj
 0002:00001e38       __real@4@40048000000000000000 2005de38     g_misc.obj
 0002:00001e3c       ??_C@_0CD@EOKM@models?1objects?1gibs?1skull?1tris?4m@ 2005de3c     g_misc.obj
 0002:00001e60       ??_C@_0CD@KKJE@models?1objects?1gibs?1head2?1tris?4m@ 2005de60     g_misc.obj
 0002:00001e84       ??_C@_06CMHI@debris?$AA@   2005de84     g_misc.obj
 0002:00001e8c       ??_C@_0CG@FPGB@path_corner?5with?5no?5targetname?5a@ 2005de8c     g_misc.obj
 0002:00001eb4       ??_C@_0CD@KCGM@?$CFs?5at?5?$CFs?5target?5?$CFs?5does?5not?5exis@ 2005deb4     g_misc.obj
 0002:00001ed8       ??_C@_0BP@HNEL@models?1objects?1banner?1tris?4md2?$AA@ 2005ded8     g_misc.obj
 0002:00001ef8       ??_C@_0BD@MHAN@viewthing?5spawned?6?$AA@ 2005def8     g_misc.obj
 0002:00001f0c       ??_C@_01KDFD@m?$AA@        2005df0c     g_misc.obj
 0002:00001f10       ??_C@_01FNLH@a?$AA@        2005df10     g_misc.obj
 0002:00001f14       ??_C@_0CD@PFAN@func_wall?5START_ON?5without?5TOGGL@ 2005df14     g_misc.obj
 0002:00001f38       ??_C@_0CA@JLMM@models?1objects?1debris2?1tris?4md2?$AA@ 2005df38     g_misc.obj
 0002:00001f58       ??_C@_0CA@LIK@models?1objects?1debris1?1tris?4md2?$AA@ 2005df58     g_misc.obj
 0002:00001f78       ??_C@_0CA@BEAO@models?1objects?1debris3?1tris?4md2?$AA@ 2005df78     g_misc.obj
 0002:00001f98       __real@8@3fffe000000000000000 2005df98     g_misc.obj
 0002:00001fa0       __real@8@3fffc000000000000000 2005dfa0     g_misc.obj
 0002:00001fa8       ??_C@_0CA@JOFH@models?1objects?1barrels?1tris?4md2?$AA@ 2005dfa8     g_misc.obj
 0002:00001fc8       ??_C@_0BO@GEEP@models?1objects?1black?1tris?4md2?$AA@ 2005dfc8     g_misc.obj
 0002:00001fe8       ??_C@_0BO@OKLP@models?1monsters?1tank?1tris?4md2?$AA@ 2005dfe8     g_misc.obj
 0002:00002008       ??_C@_0BP@MDAF@models?1monsters?1bitch?1tris?4md2?$AA@ 2005e008     g_misc.obj
 0002:00002028       ??_C@_0O@MPH@tank?1thud?4wav?$AA@ 2005e028     g_misc.obj
 0002:00002038       ??_C@_0O@JGJG@tank?1pain?4wav?$AA@ 2005e038     g_misc.obj
 0002:00002048       ??_C@_0CC@FJLG@models?1monsters?1commandr?1tris?4md@ 2005e048     g_misc.obj
 0002:0000206c       ??_C@_0CF@MFJE@models?1objects?1gibs?1sm_meat?1tris@ 2005e06c     g_misc.obj
 0002:00002094       ??_C@_0BA@FFAE@misc?1udeath?4wav?$AA@ 2005e094     g_misc.obj
 0002:000020a4       ??_C@_0BO@JLLJ@models?1deadbods?1dude?1tris?4md2?$AA@ 2005e0a4     g_misc.obj
 0002:000020c4       ??_C@_0BM@DJCE@models?1ships?1viper?1tris?4md2?$AA@ 2005e0c4     g_misc.obj
 0002:000020e0       ??_C@_0CD@LGFG@misc_viper?5without?5a?5target?5at?5?$CF@ 2005e0e0     g_misc.obj
 0002:00002104       ??_C@_0BP@OEGM@models?1ships?1bigviper?1tris?4md2?$AA@ 2005e104     g_misc.obj
 0002:00002128       __real@8@bfff8000000000000000 2005e128     g_misc.obj
 0002:00002130       ??_C@_0L@KAN@misc_viper?$AA@ 2005e130     g_misc.obj
 0002:0000213c       ??_C@_0BN@OIAK@models?1objects?1bomb?1tris?4md2?$AA@ 2005e13c     g_misc.obj
 0002:0000215c       ??_C@_0BO@NHHO@models?1ships?1strogg1?1tris?4md2?$AA@ 2005e15c     g_misc.obj
 0002:0000217c       ??_C@_0BL@LBBM@?$CFs?5without?5a?5target?5at?5?$CFs?6?$AA@ 2005e17c     g_misc.obj
 0002:00002198       ??_C@_0CC@EIPF@models?1objects?1satellite?1tris?4md@ 2005e198     g_misc.obj
 0002:000021bc       ??_C@_0CI@PEFC@models?1objects?1minelite?1light1?1t@ 2005e1bc     g_misc.obj
 0002:000021e4       ??_C@_0CI@GEBE@models?1objects?1minelite?1light2?1t@ 2005e1e4     g_misc.obj
 0002:0000220c       __real@4@4003f000000000000000 2005e20c     g_misc.obj
 0002:00002210       ??_C@_0CB@CEMB@models?1objects?1gibs?1arm?1tris?4md2@ 2005e210     g_misc.obj
 0002:00002234       ??_C@_0CB@MNBA@models?1objects?1gibs?1leg?1tris?4md2@ 2005e234     g_misc.obj
 0002:00002258       ??_C@_0CC@JCGH@models?1objects?1gibs?1head?1tris?4md@ 2005e258     g_misc.obj
 0002:0000227c       ??_C@_0M@CEBL@?$CF2i?3?$CF2i?3?$CF2i?$AA@ 2005e27c     g_misc.obj
 0002:00002288       ??_C@_07HDKP@?$CF2i?3?$CF2i?$AA@ 2005e288     g_misc.obj
 0002:00002290       ??_C@_03MDDI@?$CF2i?$AA@   2005e290     g_misc.obj
 0002:00002294       ??_C@_0BI@NNAD@?$CFs?5with?5no?5count?5at?5?$CFs?6?$AA@ 2005e294     g_misc.obj
 0002:000022ac       ??_C@_0BJ@DKLK@?$CFs?5with?5no?5target?5at?5?$CFs?6?$AA@ 2005e2ac     g_misc.obj
 0002:000022c8       ??_C@_0BL@GBLC@Couldn?8t?5find?5destination?6?$AA@ 2005e2c8     g_misc.obj
 0002:000022e4       ??_C@_0BA@OMJG@world?1amb10?4wav?$AA@ 2005e2e4     g_misc.obj
 0002:000022f4       ??_C@_0BP@IEEA@models?1objects?1dmspot?1tris?4md2?$AA@ 2005e2f4     g_misc.obj
 0002:00002314       ??_C@_0BO@NINO@teleporter?5without?5a?5target?4?6?$AA@ 2005e314     g_misc.obj
 0002:00002334       ??_C@_0BG@PFNF@infantry?1inflies1?4wav?$AA@ 2005e334     g_monster.obj
 0002:00002350       __real@8@3ffeb333333333333000 2005e350     g_monster.obj
 0002:00002358       __real@8@3ffd8000000000000000 2005e358     g_monster.obj
 0002:00002360       __real@4@4005c800000000000000 2005e360     g_monster.obj
 0002:00002364       __real@4@4003b000000000000000 2005e364     g_monster.obj
 0002:00002368       __real@4@4003d000000000000000 2005e368     g_monster.obj
 0002:0000236c       ??_C@_0BD@JDHA@player?1watr_in?4wav?$AA@ 2005e36c     g_monster.obj
 0002:00002380       ??_C@_0BB@DHNK@player?1lava2?4wav?$AA@ 2005e380     g_monster.obj
 0002:00002394       ??_C@_0BB@NHLF@player?1lava1?4wav?$AA@ 2005e394     g_monster.obj
 0002:000023a8       ??_C@_0BE@KOMJ@player?1watr_out?4wav?$AA@ 2005e3a8     g_monster.obj
 0002:000023bc       __real@4@40029000000000000000 2005e3bc     g_monster.obj
 0002:000023c0       __real@4@4002c000000000000000 2005e3c0     g_monster.obj
 0002:000023c4       __real@4@40078000000000000000 2005e3c4     g_monster.obj
 0002:000023c8       ??_C@_0BL@NEKL@?$CFs?5at?5?$CFs?5has?5bad?5item?3?5?$CFs?6?$AA@ 2005e3c8     g_monster.obj
 0002:000023e4       ??_C@_0M@PJIA@path_corner?$AA@ 2005e3e4     g_monster.obj
 0002:000023f0       ??_C@_0BP@OHJG@?$CFs?5can?8t?5find?5target?5?$CFs?5at?5?$CFs?6?$AA@ 2005e3f0     g_monster.obj
 0002:00002410       ??_C@_0DP@DAGH@?$CFs?5at?5?$CI?$CFi?5?$CFi?5?$CFi?$CJ?5has?5a?5bad?5comba@ 2005e410     g_monster.obj
 0002:00002450       ??_C@_0CG@JNPE@?$CFs?5at?5?$CFs?5has?5target?5with?5mixed?5t@ 2005e450     g_monster.obj
 0002:00002478       ??_C@_0N@FOKJ@point_combat?$AA@ 2005e478     g_monster.obj
 0002:00002488       ??_C@_0BD@PEKE@?$CFs?5in?5solid?5at?5?$CFs?6?$AA@ 2005e488     g_monster.obj
 0002:0000249c       ??_C@_0BA@IHJH@NULL?5ent?9?$DOthink?$AA@ 2005e49c     g_phys.obj
 0002:000024b0       __real@8@3ff583126e978d4fe000 2005e4b0     g_phys.obj
 0002:000024b8       __real@8@bffbccccccccccccd000 2005e4b8     g_phys.obj
 0002:000024c0       __real@8@3ffc8000000000000000 2005e4c0     g_phys.obj
 0002:000024c8       __real@8@00000000000000000000 2005e4c8     g_phys.obj
 0002:000024d0       __real@8@40028000000000000000 2005e4d0     g_phys.obj
 0002:000024d8       ??_C@_0DB@LLNH@pushed_p?5?$DO?5?$CGpushed?$FLMAX_EDICTS?$FN?0?5@ 2005e4d8     g_phys.obj
 0002:0000250c       ??_C@_0BB@IGEA@misc?1h2ohit1?4wav?$AA@ 2005e50c     g_phys.obj
 0002:00002520       ??_C@_0P@KELF@world?1land?4wav?$AA@ 2005e520     g_phys.obj
 0002:00002530       ??_C@_0BM@LBLC@SV_Physics?3?5bad?5movetype?5?$CFi?$AA@ 2005e530     g_phys.obj
 0002:0000254c       ??_C@_09PMMP@newweapon?$AA@ 2005e54c     g_save.obj
 0002:00002558       ??_C@_0BA@FHHO@pers?4lastweapon?$AA@ 2005e558     g_save.obj
 0002:00002568       ??_C@_0M@FMM@pers?4weapon?$AA@ 2005e568     g_save.obj
 0002:00002574       ??_C@_0O@EFHM@sound2_entity?$AA@ 2005e574     g_save.obj
 0002:00002584       ??_C@_0N@EEBC@sound_entity?$AA@ 2005e584     g_save.obj
 0002:00002594       ??_C@_0N@NHML@sight_entity?$AA@ 2005e594     g_save.obj
 0002:000025a4       ??_C@_0N@FLNO@sight_client?$AA@ 2005e5a4     g_save.obj
 0002:000025b4       ??_C@_09NOAC@changemap?$AA@ 2005e5b4     g_save.obj
 0002:000025c0       ??_C@_07LBIF@nextmap?$AA@  2005e5c0     g_save.obj
 0002:000025c8       ??_C@_08OCKB@maxpitch?$AA@ 2005e5c8     g_save.obj
 0002:000025d4       ??_C@_08LBMO@minpitch?$AA@ 2005e5d4     g_save.obj
 0002:000025e0       ??_C@_06NINP@maxyaw?$AA@   2005e5e0     g_save.obj
 0002:000025e8       ??_C@_06FDDI@minyaw?$AA@   2005e5e8     g_save.obj
 0002:000025f0       ??_C@_07FMKF@skyaxis?$AA@  2005e5f0     g_save.obj
 0002:000025f8       ??_C@_09DICD@skyrotate?$AA@ 2005e5f8     g_save.obj
 0002:00002604       ??_C@_03EBAN@sky?$AA@      2005e604     g_save.obj
 0002:00002608       ??_C@_07CAPN@gravity?$AA@  2005e608     g_save.obj
 0002:00002610       ??_C@_04MPOO@item?$AA@     2005e610     g_save.obj
 0002:00002618       ??_C@_09OMAL@pausetime?$AA@ 2005e618     g_save.obj
 0002:00002624       ??_C@_05DOHE@noise?$AA@    2005e624     g_save.obj
 0002:0000262c       ??_C@_06OKPG@height?$AA@   2005e62c     g_save.obj
 0002:00002634       ??_C@_08GHDD@distance?$AA@ 2005e634     g_save.obj
 0002:00002640       ??_C@_03JNMJ@lip?$AA@      2005e640     g_save.obj
 0002:00002644       ??_C@_07KAP@endfunc?$AA@   2005e644     g_save.obj
 0002:0000264c       ??_C@_0M@JGDC@currentmove?$AA@ 2005e64c     g_save.obj
 0002:00002658       ??_C@_0M@HIIB@checkattack?$AA@ 2005e658     g_save.obj
 0002:00002664       ??_C@_05FJHA@sight?$AA@    2005e664     g_save.obj
 0002:0000266c       ??_C@_05LJDF@melee?$AA@    2005e66c     g_save.obj
 0002:00002674       ??_C@_06HFHN@attack?$AA@   2005e674     g_save.obj
 0002:0000267c       ??_C@_05MFOO@dodge?$AA@    2005e67c     g_save.obj
 0002:00002684       ??_C@_03EHIM@run?$AA@      2005e684     g_save.obj
 0002:00002688       ??_C@_04IBJ@walk?$AA@      2005e688     g_save.obj
 0002:00002690       ??_C@_06GLJM@search?$AA@   2005e690     g_save.obj
 0002:00002698       ??_C@_04BJMC@idle?$AA@     2005e698     g_save.obj
 0002:000026a0       ??_C@_05KECD@stand?$AA@    2005e6a0     g_save.obj
 0002:000026a8       ??_C@_03KEMH@die?$AA@      2005e6a8     g_save.obj
 0002:000026ac       ??_C@_04LOGM@pain?$AA@     2005e6ac     g_save.obj
 0002:000026b4       ??_C@_05LKBO@touch?$AA@    2005e6b4     g_save.obj
 0002:000026bc       ??_C@_07DPBO@blocked?$AA@  2005e6bc     g_save.obj
 0002:000026c4       ??_C@_05LPMI@think?$AA@    2005e6c4     g_save.obj
 0002:000026cc       ??_C@_08OPNG@prethink?$AA@ 2005e6cc     g_save.obj
 0002:000026d8       ??_C@_05CMEM@chain?$AA@    2005e6d8     g_save.obj
 0002:000026e0       ??_C@_0L@KFLN@target_ent?$AA@ 2005e6e0     g_save.obj
 0002:000026ec       ??_C@_08PPKJ@mynoise2?$AA@ 2005e6ec     g_save.obj
 0002:000026f8       ??_C@_07BHGI@mynoise?$AA@  2005e6f8     g_save.obj
 0002:00002700       ??_C@_05LOEC@owner?$AA@    2005e700     g_save.obj
 0002:00002708       ??_C@_0L@EHFK@teammaster?$AA@ 2005e708     g_save.obj
 0002:00002714       ??_C@_09FHGG@teamchain?$AA@ 2005e714     g_save.obj
 0002:00002720       ??_C@_0N@JBFP@groundentity?$AA@ 2005e720     g_save.obj
 0002:00002730       ??_C@_09BFBI@activator?$AA@ 2005e730     g_save.obj
 0002:0000273c       ??_C@_08FJHK@oldenemy?$AA@ 2005e73c     g_save.obj
 0002:00002748       ??_C@_05NNBK@enemy?$AA@    2005e748     g_save.obj
 0002:00002750       ??_C@_0L@LNCA@movetarget?$AA@ 2005e750     g_save.obj
 0002:0000275c       ??_C@_0L@NJIC@goalentity?$AA@ 2005e75c     g_save.obj
 0002:00002768       ??_C@_05LIJM@angle?$AA@    2005e768     g_save.obj
 0002:00002770       ??_C@_06MFB@angles?$AA@    2005e770     g_save.obj
 0002:00002778       ??_C@_06NOHF@origin?$AA@   2005e778     g_save.obj
 0002:00002780       ??_C@_03HKIL@map?$AA@      2005e780     g_save.obj
 0002:00002784       ??_C@_0M@IDKI@attenuation?$AA@ 2005e784     g_save.obj
 0002:00002790       ??_C@_06FLOP@volume?$AA@   2005e790     g_save.obj
 0002:00002798       ??_C@_04HOGM@mass?$AA@     2005e798     g_save.obj
 0002:000027a0       ??_C@_03KLED@dmg?$AA@      2005e7a0     g_save.obj
 0002:000027a4       ??_C@_05DKPF@light?$AA@    2005e7a4     g_save.obj
 0002:000027ac       ??_C@_06HADE@sounds?$AA@   2005e7ac     g_save.obj
 0002:000027b4       ??_C@_05HGHB@count?$AA@    2005e7b4     g_save.obj
 0002:000027bc       ??_C@_05JCDO@style?$AA@    2005e7bc     g_save.obj
 0002:000027c4       ??_C@_0M@NGLJ@move_angles?$AA@ 2005e7c4     g_save.obj
 0002:000027d0       ??_C@_0M@EJN@move_origin?$AA@ 2005e7d0     g_save.obj
 0002:000027dc       ??_C@_06IMKP@random?$AA@   2005e7dc     g_save.obj
 0002:000027e4       ??_C@_05BFAE@delay?$AA@    2005e7e4     g_save.obj
 0002:000027ec       ??_C@_04OMDE@wait?$AA@     2005e7ec     g_save.obj
 0002:000027f4       ??_C@_04CJJD@team?$AA@     2005e7f4     g_save.obj
 0002:000027fc       ??_C@_07NPGL@message?$AA@  2005e7fc     g_save.obj
 0002:00002804       ??_C@_0N@JLPC@combattarget?$AA@ 2005e804     g_save.obj
 0002:00002814       ??_C@_0L@BJOF@killtarget?$AA@ 2005e814     g_save.obj
 0002:00002820       ??_C@_0M@HEMH@deathtarget?$AA@ 2005e820     g_save.obj
 0002:0000282c       ??_C@_0L@GABP@pathtarget?$AA@ 2005e82c     g_save.obj
 0002:00002838       ??_C@_0L@PMO@targetname?$AA@ 2005e838     g_save.obj
 0002:00002844       ??_C@_06CCPD@target?$AA@   2005e844     g_save.obj
 0002:0000284c       ??_C@_05MIMB@decel?$AA@    2005e84c     g_save.obj
 0002:00002854       ??_C@_05DHJN@accel?$AA@    2005e854     g_save.obj
 0002:0000285c       ??_C@_05PHJK@speed?$AA@    2005e85c     g_save.obj
 0002:00002864       ??_C@_0L@CANC@spawnflags?$AA@ 2005e864     g_save.obj
 0002:00002870       ??_C@_05LHJL@model?$AA@    2005e870     g_save.obj
 0002:00002878       ??_C@_09JDJH@classname?$AA@ 2005e878     g_save.obj
 0002:00002884       ??_C@_0L@GJKO@sv_maplist?$AA@ 2005e884     g_save.obj
 0002:00002890       ??_C@_0BA@JHGD@flood_waitdelay?$AA@ 2005e890     g_save.obj
 0002:000028a0       ??_C@_02FCMB@10?$AA@       2005e8a0     g_save.obj
 0002:000028a4       ??_C@_0BA@FOPI@flood_persecond?$AA@ 2005e8a4     g_save.obj
 0002:000028b4       ??_C@_0L@LOBO@flood_msgs?$AA@ 2005e8b4     g_save.obj
 0002:000028c0       ??_C@_08FIAL@bob_roll?$AA@ 2005e8c0     g_save.obj
 0002:000028cc       ??_C@_09CLI@bob_pitch?$AA@ 2005e8cc     g_save.obj
 0002:000028d8       ??_C@_06KCBK@bob_up?$AA@   2005e8d8     g_save.obj
 0002:000028e0       ??_C@_08OBLP@run_roll?$AA@ 2005e8e0     g_save.obj
 0002:000028ec       ??_C@_05HONO@0?4005?$AA@   2005e8ec     g_save.obj
 0002:000028f4       ??_C@_09LLAB@run_pitch?$AA@ 2005e8f4     g_save.obj
 0002:00002900       ??_C@_05CLDL@0?4002?$AA@   2005e900     g_save.obj
 0002:00002908       ??_C@_0P@IOFC@g_select_empty?$AA@ 2005e908     g_save.obj
 0002:00002918       ??_C@_09KCNC@filterban?$AA@ 2005e918     g_save.obj
 0002:00002924       ??_C@_0BD@MGNJ@spectator_password?$AA@ 2005e924     g_save.obj
 0002:00002938       ??_C@_08NPHI@password?$AA@ 2005e938     g_save.obj
 0002:00002944       ??_C@_09GBNJ@timelimit?$AA@ 2005e944     g_save.obj
 0002:00002950       ??_C@_09DPJO@fraglimit?$AA@ 2005e950     g_save.obj
 0002:0000295c       ??_C@_07NJLK@dmflags?$AA@  2005e95c     g_save.obj
 0002:00002964       ??_C@_0M@NLOP@maxentities?$AA@ 2005e964     g_save.obj
 0002:00002970       ??_C@_04HKOM@1024?$AA@     2005e970     g_save.obj
 0002:00002978       ??_C@_05MIHE@skill?$AA@    2005e978     g_save.obj
 0002:00002980       ??_C@_01FBAH@1?$AA@        2005e980     g_save.obj
 0002:00002984       ??_C@_04INDM@coop?$AA@     2005e984     g_save.obj
 0002:0000298c       ??_C@_0L@IKBP@deathmatch?$AA@ 2005e98c     g_save.obj
 0002:00002998       ??_C@_0O@IHOH@maxspectators?$AA@ 2005e998     g_save.obj
 0002:000029a8       ??_C@_0L@IGMM@maxclients?$AA@ 2005e9a8     g_save.obj
 0002:000029b4       ??_C@_01FBMM@4?$AA@        2005e9b4     g_save.obj
 0002:000029b8       ??_C@_08HGGM@gamedate?$AA@ 2005e9b8     g_save.obj
 0002:000029c4       ??_C@_0M@LKKB@Jul?531?52014?$AA@ 2005e9c4     g_save.obj
 0002:000029d0       ??_C@_08NPAP@gamename?$AA@ 2005e9d0     g_save.obj
 0002:000029dc       ??_C@_06OOPP@baseq2?$AA@   2005e9dc     g_save.obj
 0002:000029e4       ??_C@_06FLJA@cheats?$AA@   2005e9e4     g_save.obj
 0002:000029ec       ??_C@_09GLCL@dedicated?$AA@ 2005e9ec     g_save.obj
 0002:000029f8       ??_C@_0L@GIJ@sv_gravity?$AA@ 2005e9f8     g_save.obj
 0002:00002a04       ??_C@_03LHGB@800?$AA@      2005ea04     g_save.obj
 0002:00002a08       ??_C@_0P@NFJM@sv_maxvelocity?$AA@ 2005ea08     g_save.obj
 0002:00002a18       ??_C@_04JCBD@2000?$AA@     2005ea18     g_save.obj
 0002:00002a20       ??_C@_0N@LNLL@sv_rollangle?$AA@ 2005ea20     g_save.obj
 0002:00002a30       ??_C@_01KOLO@2?$AA@        2005ea30     g_save.obj
 0002:00002a34       ??_C@_0N@PCLN@sv_rollspeed?$AA@ 2005ea34     g_save.obj
 0002:00002a44       ??_C@_03IDPJ@200?$AA@      2005ea44     g_save.obj
 0002:00002a48       ??_C@_05IGIO@gun_z?$AA@    2005ea48     g_save.obj
 0002:00002a50       ??_C@_05HJDH@gun_y?$AA@    2005ea50     g_save.obj
 0002:00002a58       ??_C@_05NDKA@gun_x?$AA@    2005ea58     g_save.obj
 0002:00002a60       ??_C@_01PLJA@0?$AA@        2005ea60     g_save.obj
 0002:00002a64       ??_C@_0BE@BEM@?$DN?$DN?$DN?$DN?5InitGame?5?$DN?$DN?$DN?$DN?6?$AA@ 2005ea64     g_save.obj
 0002:00002a78       ??_C@_0BP@GAGI@WriteEdict?3?5unknown?5field?5type?$AA@ 2005ea78     g_save.obj
 0002:00002a98       ??_C@_0BO@IGHB@ReadEdict?3?5unknown?5field?5type?$AA@ 2005ea98     g_save.obj
 0002:00002ab8       ??_C@_0BB@CJIC@Couldn?8t?5open?5?$CFs?$AA@ 2005eab8     g_save.obj
 0002:00002acc       ??_C@_02NGAF@wb?$AA@       2005eacc     g_save.obj
 0002:00002ad0       ??_C@_0CB@KBGK@Savegame?5from?5an?5older?5version?4?6@ 2005ead0     g_save.obj
 0002:00002af4       ??_C@_02JKAF@rb?$AA@       2005eaf4     g_save.obj
 0002:00002af8       ??_C@_0BJ@EGM@target_crosslevel_target?$AA@ 2005eaf8     g_save.obj
 0002:00002b14       ??_C@_0CB@KNOJ@ReadLevel?3?5failed?5to?5read?5entnum@ 2005eb14     g_save.obj
 0002:00002b38       ??_C@_0CI@CGIO@ReadLevel?3?5function?5pointers?5hav@ 2005eb38     g_save.obj
 0002:00002b60       ??_C@_0CB@BAPJ@ReadLevel?3?5mismatched?5edict?5size@ 2005eb60     g_save.obj
 0002:00002b84       ??_C@_0BJJ@FEBL@yb?7?924?5xv?70?5hnum?5xv?750?5pic?50?5if?5@ 2005eb84     g_spawn.obj
 0002:00002d20       ??_C@_0BBF@NJBE@yb?7?924?5xv?70?5hnum?5xv?750?5pic?50?5if?5@ 2005ed20     g_spawn.obj
 0002:00002e38       ??_C@_0O@MJJD@turret_driver?$AA@ 2005ee38     g_spawn.obj
 0002:00002e48       ??_C@_0M@HCCB@turret_base?$AA@ 2005ee48     g_spawn.obj
 0002:00002e54       ??_C@_0O@ELJJ@turret_breach?$AA@ 2005ee54     g_spawn.obj
 0002:00002e64       ??_C@_0BH@NEJD@monster_commander_body?$AA@ 2005ee64     g_spawn.obj
 0002:00002e7c       ??_C@_0BE@PEBN@monster_boss3_stand?$AA@ 2005ee7c     g_spawn.obj
 0002:00002e90       ??_C@_0O@CKEK@monster_boss2?$AA@ 2005ee90     g_spawn.obj
 0002:00002ea0       ??_C@_0P@JOHJ@monster_mutant?$AA@ 2005eea0     g_spawn.obj
 0002:00002eb0       ??_C@_0O@MJPA@monster_hover?$AA@ 2005eeb0     g_spawn.obj
 0002:00002ec0       ??_C@_0BA@HMLB@monster_floater?$AA@ 2005eec0     g_spawn.obj
 0002:00002ed0       ??_C@_0O@GAFK@monster_brain?$AA@ 2005eed0     g_spawn.obj
 0002:00002ee0       ??_C@_0O@EJCH@monster_flyer?$AA@ 2005eee0     g_spawn.obj
 0002:00002ef0       ??_C@_0BB@LKHK@monster_parasite?$AA@ 2005eef0     g_spawn.obj
 0002:00002f04       ??_C@_0O@PNBF@monster_chick?$AA@ 2005ef04     g_spawn.obj
 0002:00002f14       ??_C@_0BA@IEEH@monster_flipper?$AA@ 2005ef14     g_spawn.obj
 0002:00002f24       ??_C@_0BH@MHMK@monster_tank_commander?$AA@ 2005ef24     g_spawn.obj
 0002:00002f3c       ??_C@_0BD@EBJM@monster_soldier_ss?$AA@ 2005ef3c     g_spawn.obj
 0002:00002f50       ??_C@_0BA@EECO@monster_soldier?$AA@ 2005ef50     g_spawn.obj
 0002:00002f60       ??_C@_0BG@DNEB@monster_soldier_light?$AA@ 2005ef60     g_spawn.obj
 0002:00002f78       ??_C@_0BB@MEFN@monster_infantry?$AA@ 2005ef78     g_spawn.obj
 0002:00002f8c       ??_C@_0P@HCCA@monster_gunner?$AA@ 2005ef8c     g_spawn.obj
 0002:00002f9c       ??_C@_0BC@MDO@monster_gladiator?$AA@ 2005ef9c     g_spawn.obj
 0002:00002fb0       ??_C@_0BA@ONND@monster_berserk?$AA@ 2005efb0     g_spawn.obj
 0002:00002fc0       ??_C@_0BC@LCIL@misc_easterchick2?$AA@ 2005efc0     g_spawn.obj
 0002:00002fd4       ??_C@_0BB@DFAH@misc_easterchick?$AA@ 2005efd4     g_spawn.obj
 0002:00002fe8       ??_C@_0BA@HODD@misc_eastertank?$AA@ 2005efe8     g_spawn.obj
 0002:00002ff8       ??_C@_0P@JDBM@misc_blackhole?$AA@ 2005eff8     g_spawn.obj
 0002:00003008       ??_C@_0BF@HFGF@misc_teleporter_dest?$AA@ 2005f008     g_spawn.obj
 0002:00003020       ??_C@_0BA@HPLN@misc_teleporter?$AA@ 2005f020     g_spawn.obj
 0002:00003030       ??_C@_0BB@OMPK@misc_strogg_ship?$AA@ 2005f030     g_spawn.obj
 0002:00003044       ??_C@_0O@FNLJ@misc_bigviper?$AA@ 2005f044     g_spawn.obj
 0002:00003054       ??_C@_0BA@LLCB@misc_viper_bomb?$AA@ 2005f054     g_spawn.obj
 0002:00003064       ??_C@_0BB@GNG@misc_deadsoldier?$AA@ 2005f064     g_spawn.obj
 0002:00003078       ??_C@_0M@LCID@misc_insane?$AA@ 2005f078     g_spawn.obj
 0002:00003084       ??_C@_0O@EBHE@misc_gib_head?$AA@ 2005f084     g_spawn.obj
 0002:00003094       ??_C@_0N@LPIF@misc_gib_leg?$AA@ 2005f094     g_spawn.obj
 0002:000030a4       ??_C@_0N@DPBG@misc_gib_arm?$AA@ 2005f0a4     g_spawn.obj
 0002:000030b4       ??_C@_0L@NIMN@misc_actor?$AA@ 2005f0b4     g_spawn.obj
 0002:000030c0       ??_C@_0BE@BGLN@misc_satellite_dish?$AA@ 2005f0c0     g_spawn.obj
 0002:000030d4       ??_C@_0M@FDPD@misc_banner?$AA@ 2005f0d4     g_spawn.obj
 0002:000030e0       ??_C@_0O@FANE@misc_explobox?$AA@ 2005f0e0     g_spawn.obj
 0002:000030f0       ??_C@_0N@BOHL@info_notnull?$AA@ 2005f0f0     g_spawn.obj
 0002:00003100       ??_C@_0L@PCLN@func_group?$AA@ 2005f100     g_spawn.obj
 0002:0000310c       ??_C@_09PJNA@info_null?$AA@ 2005f10c     g_spawn.obj
 0002:00003118       ??_C@_0M@IGJI@light_mine2?$AA@ 2005f118     g_spawn.obj
 0002:00003124       ??_C@_0M@HJCB@light_mine1?$AA@ 2005f124     g_spawn.obj
 0002:00003130       ??_C@_09LJEN@viewthing?$AA@ 2005f130     g_spawn.obj
 0002:0000313c       ??_C@_0L@LME@worldspawn?$AA@ 2005f13c     g_spawn.obj
 0002:00003148       ??_C@_0O@KGCK@target_string?$AA@ 2005f148     g_spawn.obj
 0002:00003158       ??_C@_0BB@MKAL@target_character?$AA@ 2005f158     g_spawn.obj
 0002:0000316c       ??_C@_0BC@JCKD@target_earthquake?$AA@ 2005f16c     g_spawn.obj
 0002:00003180       ??_C@_0BB@GNGI@target_lightramp?$AA@ 2005f180     g_spawn.obj
 0002:00003194       ??_C@_0M@GEAM@target_help?$AA@ 2005f194     g_spawn.obj
 0002:000031a0       ??_C@_0N@IDNA@target_laser?$AA@ 2005f1a0     g_spawn.obj
 0002:000031b0       ??_C@_0BK@LKKG@target_crosslevel_trigger?$AA@ 2005f1b0     g_spawn.obj
 0002:000031cc       ??_C@_0P@JEJM@target_blaster?$AA@ 2005f1cc     g_spawn.obj
 0002:000031dc       ??_C@_0P@HCGK@target_spawner?$AA@ 2005f1dc     g_spawn.obj
 0002:000031ec       ??_C@_0O@IEPH@target_splash?$AA@ 2005f1ec     g_spawn.obj
 0002:000031fc       ??_C@_0M@COHK@target_goal?$AA@ 2005f1fc     g_spawn.obj
 0002:00003208       ??_C@_0O@OLKP@target_secret?$AA@ 2005f208     g_spawn.obj
 0002:00003218       ??_C@_0BB@HIIM@target_explosion?$AA@ 2005f218     g_spawn.obj
 0002:0000322c       ??_C@_0P@GCHO@target_speaker?$AA@ 2005f22c     g_spawn.obj
 0002:0000323c       ??_C@_0BD@PFJH@target_temp_entity?$AA@ 2005f23c     g_spawn.obj
 0002:00003250       ??_C@_0BE@PKDJ@trigger_monsterjump?$AA@ 2005f250     g_spawn.obj
 0002:00003264       ??_C@_0BA@FJFN@trigger_gravity?$AA@ 2005f264     g_spawn.obj
 0002:00003274       ??_C@_0BB@FCLG@trigger_elevator?$AA@ 2005f274     g_spawn.obj
 0002:00003288       ??_C@_0BA@FGMI@trigger_counter?$AA@ 2005f288     g_spawn.obj
 0002:00003298       ??_C@_0M@OLAC@trigger_key?$AA@ 2005f298     g_spawn.obj
 0002:000032a4       ??_C@_0N@HKNA@trigger_hurt?$AA@ 2005f2a4     g_spawn.obj
 0002:000032b4       ??_C@_0N@EEFP@trigger_push?$AA@ 2005f2b4     g_spawn.obj
 0002:000032c4       ??_C@_0O@JNBA@trigger_relay?$AA@ 2005f2c4     g_spawn.obj
 0002:000032d4       ??_C@_0BB@HNOL@trigger_multiple?$AA@ 2005f2d4     g_spawn.obj
 0002:000032e8       ??_C@_0N@LIGO@trigger_once?$AA@ 2005f2e8     g_spawn.obj
 0002:000032f8       ??_C@_0P@LGNO@trigger_always?$AA@ 2005f2f8     g_spawn.obj
 0002:00003308       ??_C@_0N@NBNL@func_killbox?$AA@ 2005f308     g_spawn.obj
 0002:00003318       ??_C@_0P@CDNG@func_explosive?$AA@ 2005f318     g_spawn.obj
 0002:00003328       ??_C@_0L@JLGK@func_timer?$AA@ 2005f328     g_spawn.obj
 0002:00003334       ??_C@_0M@INIM@func_object?$AA@ 2005f334     g_spawn.obj
 0002:00003340       ??_C@_09DHI@func_wall?$AA@ 2005f340     g_spawn.obj
 0002:0000334c       ??_C@_0L@MNFC@func_clock?$AA@ 2005f34c     g_spawn.obj
 0002:00003358       ??_C@_0O@ONIM@func_conveyor?$AA@ 2005f358     g_spawn.obj
 0002:00003368       ??_C@_0L@LCFM@func_water?$AA@ 2005f368     g_spawn.obj
 0002:00003374       ??_C@_0O@HHKP@func_rotating?$AA@ 2005f374     g_spawn.obj
 0002:00003384       ??_C@_0BB@OLAJ@func_door_secret?$AA@ 2005f384     g_spawn.obj
 0002:00003398       ??_C@_0M@BFDL@func_button?$AA@ 2005f398     g_spawn.obj
 0002:000033a4       ??_C@_09HHKD@func_plat?$AA@ 2005f3a4     g_spawn.obj
 0002:000033b0       ??_C@_0BJ@JMLD@info_player_intermission?$AA@ 2005f3b0     g_spawn.obj
 0002:000033cc       ??_C@_0BB@HJAP@info_player_coop?$AA@ 2005f3cc     g_spawn.obj
 0002:000033e0       ??_C@_0BH@MKJP@info_player_deathmatch?$AA@ 2005f3e0     g_spawn.obj
 0002:000033f8       ??_C@_0BC@MCPA@info_player_start?$AA@ 2005f3f8     g_spawn.obj
 0002:0000340c       ??_C@_0BB@KJE@item_health_mega?$AA@ 2005f40c     g_spawn.obj
 0002:00003420       ??_C@_0BC@KFF@item_health_large?$AA@ 2005f420     g_spawn.obj
 0002:00003434       ??_C@_0BC@HBNN@item_health_small?$AA@ 2005f434     g_spawn.obj
 0002:00003448       ??_C@_0M@DFKC@item_health?$AA@ 2005f448     g_spawn.obj
 0002:00003454       ??_C@_0CC@GHOH@?$CFs?5doesn?8t?5have?5a?5spawn?5function@ 2005f454     g_spawn.obj
 0002:00003478       ??_C@_0BO@IEEN@ED_CallSpawn?3?5NULL?5classname?6?$AA@ 2005f478     g_spawn.obj
 0002:00003498       ??_C@_0BD@HCPE@?$CFs?5is?5not?5a?5field?6?$AA@ 2005f498     g_spawn.obj
 0002:000034ac       ??_C@_08JPAH@?$CFf?5?$CFf?5?$CFf?$AA@ 2005f4ac     g_spawn.obj
 0002:000034b8       ??_C@_0CL@GNBE@ED_ParseEntity?3?5closing?5brace?5wi@ 2005f4b8     g_spawn.obj
 0002:000034e4       ??_C@_0CK@IDMI@ED_ParseEntity?3?5EOF?5without?5clos@ 2005f4e4     g_spawn.obj
 0002:00003510       ??_C@_0BL@KDOE@?$CFi?5teams?5with?5?$CFi?5entities?6?$AA@ 2005f510     g_spawn.obj
 0002:0000352c       ??_C@_0BH@OE@?$CFi?5entities?5inhibited?6?$AA@ 2005f52c     g_spawn.obj
 0002:00003544       ??_C@_03EKJG@?$CK27?$AA@   2005f544     g_spawn.obj
 0002:00003548       ??_C@_07KAGO@command?$AA@  2005f548     g_spawn.obj
 0002:00003550       ??_C@_0CL@LEGL@ED_LoadFromFile?3?5found?5?$CFs?5when?5e@ 2005f550     g_spawn.obj
 0002:0000357c       ??_C@_02JBAA@?$CFf?$AA@    2005f57c     g_spawn.obj
 0002:00003580       ??_C@_0CF@KCME@abcdefghijklmnopqrrqponmlkjihgfe@ 2005f580     g_spawn.obj
 0002:000035a8       ??_C@_0BK@CINK@mmamammmmammamamaaamammma?$AA@ 2005f5a8     g_spawn.obj
 0002:000035c4       ??_C@_0BB@INDJ@aaaaaaaazzzzzzzz?$AA@ 2005f5c4     g_spawn.obj
 0002:000035d8       ??_C@_0CL@INLP@mmmaaammmaaammmabcdefaaaammmmabc@ 2005f5d8     g_spawn.obj
 0002:00003604       ??_C@_0BN@NNNF@mmmaaaabcdefgmmmmaaaammmaamm?$AA@ 2005f604     g_spawn.obj
 0002:00003624       ??_C@_0BC@LBBO@nmonqnmomnmomomno?$AA@ 2005f624     g_spawn.obj
 0002:00003638       ??_C@_0CC@LHDJ@jklmnopqrstuvwxyzyxwvutsrqponmlk@ 2005f638     g_spawn.obj
 0002:0000365c       ??_C@_0N@PODM@mamamamamama?$AA@ 2005f65c     g_spawn.obj
 0002:0000366c       ??_C@_0CD@IDOE@mmmmmaaaaammmmmaaaaaabcdefgabcde@ 2005f66c     g_spawn.obj
 0002:00003690       ??_C@_0DE@EDOG@abcdefghijklmnopqrstuvwxyzyxwvut@ 2005f690     g_spawn.obj
 0002:000036c4       ??_C@_0BI@LDFL@mmnmmommommnonmmonqnmmo?$AA@ 2005f6c4     g_spawn.obj
 0002:000036dc       ??_C@_0CD@INLP@models?1objects?1gibs?1chest?1tris?4m@ 2005f6dc     g_spawn.obj
 0002:00003700       ??_C@_0CD@EFEH@models?1objects?1gibs?1bone2?1tris?4m@ 2005f700     g_spawn.obj
 0002:00003724       ??_C@_0CC@EBEB@models?1objects?1gibs?1bone?1tris?4md@ 2005f724     g_spawn.obj
 0002:00003748       ??_C@_0BD@KKCF@weapons?1noammo?4wav?$AA@ 2005f748     g_spawn.obj
 0002:0000375c       ??_C@_0BF@JBOH@player?1u_breath2?4wav?$AA@ 2005f75c     g_spawn.obj
 0002:00003774       ??_C@_0BF@HBII@player?1u_breath1?4wav?$AA@ 2005f774     g_spawn.obj
 0002:0000378c       ??_C@_0BD@DCPD@player?1watr_un?4wav?$AA@ 2005f78c     g_spawn.obj
 0002:000037a0       ??_C@_0BB@DICC@player?1gasp2?4wav?$AA@ 2005f7a0     g_spawn.obj
 0002:000037b4       ??_C@_0BB@NIEN@player?1gasp1?4wav?$AA@ 2005f7b4     g_spawn.obj
 0002:000037c8       ??_C@_0L@JHOP@?$CDw_bfg?4md2?$AA@ 2005f7c8     g_spawn.obj
 0002:000037d4       ??_C@_0P@DEAL@?$CDw_railgun?4md2?$AA@ 2005f7d4     g_spawn.obj
 0002:000037e4       ??_C@_0BE@CAJM@?$CDw_hyperblaster?4md2?$AA@ 2005f7e4     g_spawn.obj
 0002:000037f8       ??_C@_0BB@GKHJ@?$CDw_rlauncher?4md2?$AA@ 2005f7f8     g_spawn.obj
 0002:0000380c       ??_C@_0BB@GIHN@?$CDw_glauncher?4md2?$AA@ 2005f80c     g_spawn.obj
 0002:00003820       ??_C@_0BA@IKAF@?$CDa_grenades?4md2?$AA@ 2005f820     g_spawn.obj
 0002:00003830       ??_C@_0BA@BDPM@?$CDw_chaingun?4md2?$AA@ 2005f830     g_spawn.obj
 0002:00003840       ??_C@_0BC@ELBH@?$CDw_machinegun?4md2?$AA@ 2005f840     g_spawn.obj
 0002:00003854       ??_C@_0BA@CBOG@?$CDw_sshotgun?4md2?$AA@ 2005f854     g_spawn.obj
 0002:00003864       ??_C@_0P@GBHJ@?$CDw_shotgun?4md2?$AA@ 2005f864     g_spawn.obj
 0002:00003874       ??_C@_0P@DIDH@?$CDw_blaster?4md2?$AA@ 2005f874     g_spawn.obj
 0002:00003884       ??_C@_0P@HFEI@?$CKpain100_2?4wav?$AA@ 2005f884     g_spawn.obj
 0002:00003894       ??_C@_0P@JFCH@?$CKpain100_1?4wav?$AA@ 2005f894     g_spawn.obj
 0002:000038a4       ??_C@_0O@JGBF@?$CKpain75_2?4wav?$AA@ 2005f8a4     g_spawn.obj
 0002:000038b4       ??_C@_0O@HGHK@?$CKpain75_1?4wav?$AA@ 2005f8b4     g_spawn.obj
 0002:000038c4       ??_C@_0O@JCIL@?$CKpain50_2?4wav?$AA@ 2005f8c4     g_spawn.obj
 0002:000038d4       ??_C@_0O@HCOE@?$CKpain50_1?4wav?$AA@ 2005f8d4     g_spawn.obj
 0002:000038e4       ??_C@_0O@POIB@?$CKpain25_2?4wav?$AA@ 2005f8e4     g_spawn.obj
 0002:000038f4       ??_C@_0O@BOOO@?$CKpain25_1?4wav?$AA@ 2005f8f4     g_spawn.obj
 0002:00003904       ??_C@_0L@EIFI@?$CKjump1?4wav?$AA@ 2005f904     g_spawn.obj
 0002:00003910       ??_C@_0L@CFAB@?$CKgurp2?4wav?$AA@ 2005f910     g_spawn.obj
 0002:0000391c       ??_C@_0L@MFGO@?$CKgurp1?4wav?$AA@ 2005f91c     g_spawn.obj
 0002:00003928       ??_C@_0L@JOBD@?$CKfall2?4wav?$AA@ 2005f928     g_spawn.obj
 0002:00003934       ??_C@_0L@HOHM@?$CKfall1?4wav?$AA@ 2005f934     g_spawn.obj
 0002:00003940       ??_C@_0M@KNPH@?$CKdeath4?4wav?$AA@ 2005f940     g_spawn.obj
 0002:0000394c       ??_C@_0M@MNAN@?$CKdeath3?4wav?$AA@ 2005f94c     g_spawn.obj
 0002:00003958       ??_C@_0M@GNCI@?$CKdeath2?4wav?$AA@ 2005f958     g_spawn.obj
 0002:00003964       ??_C@_0M@INEH@?$CKdeath1?4wav?$AA@ 2005f964     g_spawn.obj
 0002:00003970       ??_C@_0BD@NMFF@items?1respawn1?4wav?$AA@ 2005f970     g_spawn.obj
 0002:00003984       ??_C@_0P@IHIL@misc?1pc_up?4wav?$AA@ 2005f984     g_spawn.obj
 0002:00003994       ??_C@_0P@MOHO@player?1fry?4wav?$AA@ 2005f994     g_spawn.obj
 0002:000039a4       ??_C@_07IHFN@field_3?$AA@  2005f9a4     g_spawn.obj
 0002:000039ac       ??_C@_06EJEA@i_help?$AA@   2005f9ac     g_spawn.obj
 0002:000039b4       ??_C@_02JAFN@?$CFi?$AA@    2005f9b4     g_spawn.obj
 0002:000039b8       ??_C@_06HCNC@unit1_?$AA@   2005f9b8     g_spawn.obj
 0002:000039c0       ??_C@_0BA@GHGA@Svcmd_Test_f?$CI?$CJ?6?$AA@ 2005f9c0     g_svcmds.obj
 0002:000039d0       ??_C@_0BI@EBJA@IP?5filter?5list?5is?5full?6?$AA@ 2005f9d0     g_svcmds.obj
 0002:000039e8       ??_C@_0BJ@NFNM@Usage?3?5?5addip?5?$DMip?9mask?$DO?6?$AA@ 2005f9e8     g_svcmds.obj
 0002:00003a04       ??_C@_0BI@PKEJ@Bad?5filter?5address?3?5?$CFs?6?$AA@ 2005fa04     g_svcmds.obj
 0002:00003a1c       ??_C@_0BB@MKAO@Didn?8t?5find?5?$CFs?4?6?$AA@ 2005fa1c     g_svcmds.obj
 0002:00003a30       ??_C@_09ECMH@Removed?4?6?$AA@ 2005fa30     g_svcmds.obj
 0002:00003a3c       ??_C@_0BP@DAMB@Usage?3?5?5sv?5removeip?5?$DMip?9mask?$DO?6?$AA@ 2005fa3c     g_svcmds.obj
 0002:00003a5c       ??_C@_0BB@ICLN@?$CF3i?4?$CF3i?4?$CF3i?4?$CF3i?6?$AA@ 2005fa5c     g_svcmds.obj
 0002:00003a70       ??_C@_0O@KHLK@Filter?5list?3?6?$AA@ 2005fa70     g_svcmds.obj
 0002:00003a80       ??_C@_0BG@EJLA@sv?5addip?5?$CFi?4?$CFi?4?$CFi?4?$CFi?6?$AA@ 2005fa80     g_svcmds.obj
 0002:00003a98       ??_C@_0BC@MAJ@set?5filterban?5?$CFd?6?$AA@ 2005fa98     g_svcmds.obj
 0002:00003aac       ??_C@_0BC@KCLP@Couldn?8t?5open?5?$CFs?6?$AA@ 2005faac     g_svcmds.obj
 0002:00003ac0       ??_C@_0N@OKCN@Writing?5?$CFs?4?6?$AA@ 2005fac0     g_svcmds.obj
 0002:00003ad0       ??_C@_0O@BLGB@?$CFs?1listip?4cfg?$AA@ 2005fad0     g_svcmds.obj
 0002:00003ae0       ??_C@_04OAFI@game?$AA@     2005fae0     g_svcmds.obj
 0002:00003ae8       ??_C@_0BN@JLPD@Unknown?5server?5command?5?$CC?$CFs?$CC?6?$AA@ 2005fae8     g_svcmds.obj
 0002:00003b08       ??_C@_07DHBE@writeip?$AA@  2005fb08     g_svcmds.obj
 0002:00003b10       ??_C@_06GDHL@listip?$AA@   2005fb10     g_svcmds.obj
 0002:00003b18       ??_C@_08KLO@removeip?$AA@  2005fb18     g_svcmds.obj
 0002:00003b24       ??_C@_05MLCI@addip?$AA@    2005fb24     g_svcmds.obj
 0002:00003b2c       ??_C@_04DJDA@test?$AA@     2005fb2c     g_svcmds.obj
 0002:00003b34       ??_C@_06FHNF@?$CFs?4wav?$AA@ 2005fb34     g_target.obj
 0002:00003b3c       ??_C@_04MPDF@?4wav?$AA@    2005fb3c     g_target.obj
 0002:00003b44       ??_C@_0CI@EEDK@target_speaker?5with?5no?5noise?5set@ 2005fb44     g_target.obj
 0002:00003b6c       ??_C@_0BK@NCNK@?$CFs?5with?5no?5message?5at?5?$CFs?6?$AA@ 2005fb6c     g_target.obj
 0002:00003b88       ??_C@_0BO@JLJC@You?5have?5found?5a?5secret?5area?4?$AA@ 2005fb88     g_target.obj
 0002:00003ba8       __real@4@c0089c00000000000000 2005fba8     g_target.obj
 0002:00003bac       __real@4@c00a8000000000000000 2005fbac     g_target.obj
 0002:00003bb0       __real@4@40078c00000000000000 2005fbb0     g_target.obj
 0002:00003bb4       ??_C@_05FBAC@mine3?$AA@    2005fbb4     g_target.obj
 0002:00003bbc       ??_C@_0BA@NBIK@misc?1secret?4wav?$AA@ 2005fbbc     g_target.obj
 0002:00003bcc       ??_C@_01FDHG@?$CK?$AA@     2005fbcc     g_target.obj
 0002:00003bd0       ??_C@_0BG@DJMD@?$CFs?5exited?5the?5level?4?6?$AA@ 2005fbd0     g_target.obj
 0002:00003be8       ??_C@_0O@OOM@fact3$secret1?$AA@ 2005fbe8     g_target.obj
 0002:00003bf8       ??_C@_05GMCN@fact3?$AA@    2005fbf8     g_target.obj
 0002:00003c00       ??_C@_05DJAD@fact1?$AA@    2005fc00     g_target.obj
 0002:00003c08       ??_C@_0CG@GHDH@target_changelevel?5with?5no?5map?5a@ 2005fc08     g_target.obj
 0002:00003c30       ??_C@_0BD@HJLB@weapons?1laser2?4wav?$AA@ 2005fc30     g_target.obj
 0002:00003c44       ??_C@_0BO@BFAL@?$CFs?5at?5?$CFs?3?5?$CFs?5is?5a?5bad?5target?6?$AA@ 2005fc44     g_target.obj
 0002:00003c64       __real@4@4005c200000000000000 2005fc64     g_target.obj
 0002:00003c68       ??_C@_0BO@IHL@?$CFs?5target?5?$CFs?5not?5found?5at?5?$CFs?6?$AA@ 2005fc68     g_target.obj
 0002:00003c88       ??_C@_0CF@KJDG@target?5?$CFs?5?$CI?$CFs?5at?5?$CFs?$CJ?5is?5not?5a?5li@ 2005fc88     g_target.obj
 0002:00003cb0       ??_C@_09EMDN@?$CFs?5at?5?$CFs?5?$AA@ 2005fcb0     g_target.obj
 0002:00003cbc       ??_C@_0CK@FOCB@target_lightramp?5has?5bad?5ramp?5?$CI?$CF@ 2005fcbc     g_target.obj
 0002:00003ce8       __real@8@40069600000000000000 2005fce8     g_target.obj
 0002:00003cf0       ??_C@_0BA@OHMM@world?1quake?4wav?$AA@ 2005fcf0     g_target.obj
 0002:00003d00       ??_C@_0BF@ONKA@untargeted?5?$CFs?5at?5?$CFs?6?$AA@ 2005fd00     g_target.obj
 0002:00003d18       ??_C@_0BC@IMIB@misc?1trigger1?4wav?$AA@ 2005fd18     g_trigger.obj
 0002:00003d2c       ??_C@_0CC@FIBG@fixed?5TRIGGERED?5flag?5on?5?$CFs?5at?5?$CFs@ 2005fd2c     g_trigger.obj
 0002:00003d50       ??_C@_0BA@EMCG@misc?1keyuse?4wav?$AA@ 2005fd50     g_trigger.obj
 0002:00003d60       ??_C@_0BA@HEPJ@misc?1keytry?4wav?$AA@ 2005fd60     g_trigger.obj
 0002:00003d70       ??_C@_0BA@IENL@You?5need?5the?5?$CFs?$AA@ 2005fd70     g_trigger.obj
 0002:00003d80       ??_C@_0BI@GLJN@?$CFs?5at?5?$CFs?5has?5no?5target?6?$AA@ 2005fd80     g_trigger.obj
 0002:00003d98       ??_C@_0CJ@ILFG@item?5?$CFs?5not?5found?5for?5trigger_ke@ 2005fd98     g_trigger.obj
 0002:00003dc4       ??_C@_0CD@KJDG@no?5key?5item?5for?5trigger_key?5at?5?$CF@ 2005fdc4     g_trigger.obj
 0002:00003de8       ??_C@_0BE@JMIP@Sequence?5completed?$CB?$AA@ 2005fde8     g_trigger.obj
 0002:00003dfc       ??_C@_0BB@MACC@?$CFi?5more?5to?5go?4?4?4?$AA@ 2005fdfc     g_trigger.obj
 0002:00003e10       ??_C@_07HCFB@grenade?$AA@  2005fe10     g_trigger.obj
 0002:00003e18       ??_C@_0BB@OMDB@misc?1windfly?4wav?$AA@ 2005fe18     g_trigger.obj
 0002:00003e2c       ??_C@_0BC@JIII@world?1electro?4wav?$AA@ 2005fe2c     g_trigger.obj
 0002:00003e40       ??_C@_0CL@EKON@trigger_gravity?5without?5gravity?5@ 2005fe40     g_trigger.obj
 0002:00003e6c       ??_C@_0BF@DME@weapons?1rocklf1a?4wav?$AA@ 2005fe6c     g_turret.obj
 0002:00003e84       __real@4@40088980000000000000 2005fe84     g_turret.obj
 0002:00003e88       __real@4@4004c800000000000000 2005fe88     g_turret.obj
 0002:00003e90       __real@8@3ff98efa351294e9c800 2005fe90     g_turret.obj
 0002:00003e98       __real@4@c006b400000000000000 2005fe98     g_turret.obj
 0002:00003e9c       __real@4@4006b400000000000000 2005fe9c     g_turret.obj
 0002:00003ea0       ??_C@_0BJ@NADJ@?$CFs?5at?5?$CFs?5needs?5a?5target?6?$AA@ 2005fea0     g_turret.obj
 0002:00003ebc       ??_C@_0CC@IONK@models?1monsters?1infantry?1tris?4md@ 2005febc     g_turret.obj
 0002:00003ee0       ??_C@_0CD@DAPB@G_PickTarget?3?5target?5?$CFs?5not?5foun@ 2005fee0     g_utils.obj
 0002:00003f04       ??_C@_0CK@EMIN@G_PickTarget?5called?5with?5NULL?5ta@ 2005ff04     g_utils.obj
 0002:00003f30       ??_C@_0CI@IBFM@entity?5was?5removed?5while?5using?5t@ 2005ff30     g_utils.obj
 0002:00003f58       ??_C@_0BO@BFGM@WARNING?3?5Entity?5used?5itself?4?6?$AA@ 2005ff58     g_utils.obj
 0002:00003f78       ??_C@_0CM@EJMH@entity?5was?5removed?5while?5using?5k@ 2005ff78     g_utils.obj
 0002:00003fa4       ??_C@_0BP@KMKC@Think_Delay?5with?5no?5activator?6?$AA@ 2005ffa4     g_utils.obj
 0002:00003fc4       ??_C@_0L@HGKE@DelayedUse?$AA@ 2005ffc4     g_utils.obj
 0002:00003fd0       ??_C@_0L@IIGH@?$CI?$CFi?5?$CFi?5?$CFi?$CJ?$AA@ 2005ffd0     g_utils.obj
 0002:00003fe0       __real@8@4000c90fdaa22168c000 2005ffe0     g_utils.obj
 0002:00003fe8       __real@8@4006b400000000000000 2005ffe8     g_utils.obj
 0002:00003ff0       ??_C@_07MLMP@noclass?$AA@  2005fff0     g_utils.obj
 0002:00003ff8       ??_C@_0BJ@GGEO@ED_Alloc?3?5no?5free?5edicts?$AA@ 2005fff8     g_utils.obj
 0002:00004014       ??_C@_05JPNL@freed?$AA@    20060014     g_utils.obj
 0002:0000401c       ??_C@_08HBEB@?$CKbrwater?$AA@ 2006001c     g_weapon.obj
 0002:00004028       ??_C@_04DJMN@bolt?$AA@     20060028     g_weapon.obj
 0002:00004030       ??_C@_0BA@DNAN@misc?1lasfly?4wav?$AA@ 20060030     g_weapon.obj
 0002:00004040       ??_C@_0BO@EPDP@models?1objects?1laser?1tris?4md2?$AA@ 20060040     g_weapon.obj
 0002:00004060       ??_C@_0CA@NGKB@models?1objects?1grenade?1tris?4md2?$AA@ 20060060     g_weapon.obj
 0002:00004080       __real@8@4002a000000000000000 20060080     g_weapon.obj
 0002:00004088       ??_C@_0BF@KMC@weapons?1grenlb1b?4wav?$AA@ 20060088     g_weapon.obj
 0002:000040a0       ??_C@_0BF@EFGP@weapons?1hgrenb2a?4wav?$AA@ 200600a0     g_weapon.obj
 0002:000040b8       ??_C@_0BF@PLIP@weapons?1hgrenb1a?4wav?$AA@ 200600b8     g_weapon.obj
 0002:000040d0       ??_C@_0BF@PFKI@weapons?1hgrent1a?4wav?$AA@ 200600d0     g_weapon.obj
 0002:000040e8       ??_C@_0BF@DFHF@weapons?1hgrenc1b?4wav?$AA@ 200600e8     g_weapon.obj
 0002:00004100       ??_C@_08DNFC@hgrenade?$AA@ 20060100     g_weapon.obj
 0002:0000410c       ??_C@_0CB@DCNA@models?1objects?1grenade2?1tris?4md2@ 2006010c     g_weapon.obj
 0002:00004130       ??_C@_06DGFK@rocket?$AA@   20060130     g_weapon.obj
 0002:00004138       ??_C@_0BE@ECMN@weapons?1rockfly?4wav?$AA@ 20060138     g_weapon.obj
 0002:0000414c       ??_C@_0BP@PBFK@models?1objects?1rocket?1tris?4md2?$AA@ 2006014c     g_weapon.obj
 0002:0000416c       ??_C@_0BD@DABC@sprites?1s_bfg3?4sp2?$AA@ 2006016c     g_weapon.obj
 0002:00004180       ??_C@_0BF@PNJO@weapons?1bfg__x1b?4wav?$AA@ 20060180     g_weapon.obj
 0002:00004198       ??_C@_0BF@EOPN@weapons?1bfg__l1a?4wav?$AA@ 20060198     g_weapon.obj
 0002:000041b0       ??_C@_09KIFB@bfg?5blast?$AA@ 200601b0     g_weapon.obj
 0002:000041bc       ??_C@_0BD@HAFI@sprites?1s_bfg1?4sp2?$AA@ 200601bc     g_weapon.obj
 0002:000041d0       ??_C@_0BD@ONCH@Check?5your?5targets?$AA@ 200601d0     m_actor.obj
 0002:000041e4       ??_C@_05JJPC@Idiot?$AA@    200601e4     m_actor.obj
 0002:000041ec       ??_C@_05LOKE@?$CD$?$EA?$CK?$CG?$AA@ 200601ec     m_actor.obj
 0002:000041f4       ??_C@_08KLFF@Watch?5it?$AA@ 200601f4     m_actor.obj
 0002:00004200       ??_C@_09FBNE@Bitterman?$AA@ 20060200     m_actor.obj
 0002:0000420c       ??_C@_05CMGJ@Titus?$AA@    2006020c     m_actor.obj
 0002:00004214       ??_C@_07HPKD@Rambear?$AA@  20060214     m_actor.obj
 0002:0000421c       ??_C@_0L@MMKN@Adrianator?$AA@ 2006021c     m_actor.obj
 0002:00004228       ??_C@_09FGEL@Disruptor?$AA@ 20060228     m_actor.obj
 0002:00004234       ??_C@_06PINO@Killme?$AA@   20060234     m_actor.obj
 0002:0000423c       ??_C@_05MNKO@Tokay?$AA@    2006023c     m_actor.obj
 0002:00004244       ??_C@_07BOHE@Hellrot?$AA@  20060244     m_actor.obj
 0002:0000424c       ??_C@_08CEIL@?$CFs?3?5?$CFs?$CB?6?$AA@ 2006024c     m_actor.obj
 0002:00004258       __real@8@3ffdccccccccccccd000 20060258     m_actor.obj
 0002:00004260       ??_C@_0BM@JELL@?$CFs?5has?5bad?5target?5?$CFs?5at?5?$CFs?6?$AA@ 20060260     m_actor.obj
 0002:0000427c       ??_C@_0BG@EKNO@players?1male?1tris?4md2?$AA@ 2006027c     m_actor.obj
 0002:00004294       ??_C@_0BG@OPAN@player?1male?1jump1?4wav?$AA@ 20060294     m_actor.obj
 0002:000042ac       ??_C@_07OEOL@?$CFs?3?5?$CFs?6?$AA@ 200602ac     m_actor.obj
 0002:000042b4       ??_C@_0BN@KJBM@?$CFs?5with?5no?5targetname?5at?5?$CFs?6?$AA@ 200602b4     m_actor.obj
 0002:000042d8       __real@8@3ffc9999999999999800 200602d8     m_berserk.obj
 0002:000042e0       ??_C@_0CB@LPBL@models?1monsters?1berserk?1tris?4md2@ 200602e0     m_berserk.obj
 0002:00004304       ??_C@_0BC@DNN@berserk?1sight?4wav?$AA@ 20060304     m_berserk.obj
 0002:00004318       ??_C@_0BF@IOGK@berserk?1bersrch1?4wav?$AA@ 20060318     m_berserk.obj
 0002:00004330       ??_C@_0BD@HAIJ@berserk?1attack?4wav?$AA@ 20060330     m_berserk.obj
 0002:00004344       ??_C@_0BF@NNFD@berserk?1beridle1?4wav?$AA@ 20060344     m_berserk.obj
 0002:0000435c       ??_C@_0BF@FPON@berserk?1berdeth2?4wav?$AA@ 2006035c     m_berserk.obj
 0002:00004374       ??_C@_0BF@CGAB@berserk?1berpain2?4wav?$AA@ 20060374     m_berserk.obj
 0002:00004390       __real@8@3ffe9999999999999800 20060390     m_boss2.obj
 0002:00004398       __real@4@4005fa00000000000000 20060398     m_boss2.obj
 0002:0000439c       ??_C@_0BP@OACA@models?1monsters?1boss2?1tris?4md2?$AA@ 2006039c     m_boss2.obj
 0002:000043bc       ??_C@_0BG@KMKF@bosshovr?1bhvengn1?4wav?$AA@ 200603bc     m_boss2.obj
 0002:000043d4       ??_C@_0BG@HBAD@bosshovr?1bhvunqv1?4wav?$AA@ 200603d4     m_boss2.obj
 0002:000043ec       ??_C@_0BG@BAMO@bosshovr?1bhvdeth1?4wav?$AA@ 200603ec     m_boss2.obj
 0002:00004404       ??_C@_0BG@CJGI@bosshovr?1bhvpain3?4wav?$AA@ 20060404     m_boss2.obj
 0002:0000441c       ??_C@_0BG@IJEN@bosshovr?1bhvpain2?4wav?$AA@ 2006041c     m_boss2.obj
 0002:00004434       ??_C@_0BG@GJCC@bosshovr?1bhvpain1?4wav?$AA@ 20060434     m_boss2.obj
 0002:0000444c       ??_C@_0BB@KGMJ@misc?1bigtele?4wav?$AA@ 2006044c     m_boss3.obj
 0002:00004460       ??_C@_0CF@DAAA@models?1monsters?1boss3?1rider?1tris@ 20060460     m_boss3.obj
 0002:00004488       __real@8@3ffee666666666666800 20060488     m_boss31.obj
 0002:00004490       __real@8@3ff0d1b71758e2196800 20060490     m_boss31.obj
 0002:00004498       __real@8@3ff7a3d70a3d70a3d800 20060498     m_boss31.obj
 0002:000044a0       ??_C@_0BB@MOIF@boss3?1w_loop?4wav?$AA@ 200604a0     m_boss31.obj
 0002:000044b8       __real@8@3ffec000000000000000 200604b8     m_boss31.obj
 0002:000044c0       ??_C@_0CE@KNNG@models?1monsters?1boss3?1jorg?1tris?4@ 200604c0     m_boss31.obj
 0002:000044e4       ??_C@_0BA@JCFG@boss3?1d_hit?4wav?$AA@ 200604e4     m_boss31.obj
 0002:000044f4       ??_C@_0BA@OGNC@boss3?1xfire?4wav?$AA@ 200604f4     m_boss31.obj
 0002:00004504       ??_C@_0BA@COLP@boss3?1step2?4wav?$AA@ 20060504     m_boss31.obj
 0002:00004514       ??_C@_0BA@MONA@boss3?1step1?4wav?$AA@ 20060514     m_boss31.obj
 0002:00004524       ??_C@_0BD@FGPB@boss3?1bs3idle1?4wav?$AA@ 20060524     m_boss31.obj
 0002:00004538       ??_C@_0BD@EFIC@boss3?1bs3srch3?4wav?$AA@ 20060538     m_boss31.obj
 0002:0000454c       ??_C@_0BD@OFKH@boss3?1bs3srch2?4wav?$AA@ 2006054c     m_boss31.obj
 0002:00004560       ??_C@_0BD@FMI@boss3?1bs3srch1?4wav?$AA@ 20060560     m_boss31.obj
 0002:00004574       ??_C@_0BD@ELLC@boss3?1bs3atck2?4wav?$AA@ 20060574     m_boss31.obj
 0002:00004588       ??_C@_0BD@KLNN@boss3?1bs3atck1?4wav?$AA@ 20060588     m_boss31.obj
 0002:0000459c       ??_C@_0BD@DECA@boss3?1bs3deth1?4wav?$AA@ 2006059c     m_boss31.obj
 0002:000045b0       ??_C@_0BD@NIG@boss3?1bs3pain3?4wav?$AA@ 200605b0     m_boss31.obj
 0002:000045c4       ??_C@_0BD@KNKD@boss3?1bs3pain2?4wav?$AA@ 200605c4     m_boss31.obj
 0002:000045d8       ??_C@_0BD@ENMM@boss3?1bs3pain1?4wav?$AA@ 200605d8     m_boss31.obj
 0002:000045f0       __real@8@3ffdb333333333333000 200605f0     m_boss32.obj
 0002:000045f8       __real@8@3ffde666666666666800 200605f8     m_boss32.obj
 0002:00004600       ??_C@_0BB@EPLL@makron?1spine?4wav?$AA@ 20060600     m_boss32.obj
 0002:00004614       __real@4@4005a800000000000000 20060614     m_boss32.obj
 0002:00004618       ??_C@_0CC@HDKA@models?1objects?1gibs?1gear?1tris?4md@ 20060618     m_boss32.obj
 0002:0000463c       ??_C@_0CG@OEO@models?1objects?1gibs?1sm_metal?1tri@ 2006063c     m_boss32.obj
 0002:00004664       ??_C@_0BA@BLFG@makron?1bhit?4wav?$AA@ 20060664     m_boss32.obj
 0002:00004674       ??_C@_0BB@NBKG@makron?1voice?4wav?$AA@ 20060674     m_boss32.obj
 0002:00004688       ??_C@_0BC@ONLL@makron?1voice3?4wav?$AA@ 20060688     m_boss32.obj
 0002:0000469c       ??_C@_0BC@INEB@makron?1voice4?4wav?$AA@ 2006069c     m_boss32.obj
 0002:000046b0       ??_C@_0BB@OKFD@makron?1popup?4wav?$AA@ 200606b0     m_boss32.obj
 0002:000046c4       ??_C@_0BD@INAA@makron?1rail_up?4wav?$AA@ 200606c4     m_boss32.obj
 0002:000046d8       ??_C@_0BC@OIGE@makron?1brain1?4wav?$AA@ 200606d8     m_boss32.obj
 0002:000046ec       ??_C@_0BE@CJHO@makron?1bfg_fire?4wav?$AA@ 200606ec     m_boss32.obj
 0002:00004700       ??_C@_0BB@EAMC@makron?1step2?4wav?$AA@ 20060700     m_boss32.obj
 0002:00004714       ??_C@_0BB@KAKN@makron?1step1?4wav?$AA@ 20060714     m_boss32.obj
 0002:00004728       ??_C@_0BB@EHMI@makron?1death?4wav?$AA@ 20060728     m_boss32.obj
 0002:0000473c       ??_C@_0BB@EIDA@makron?1pain1?4wav?$AA@ 2006073c     m_boss32.obj
 0002:00004750       ??_C@_0BB@KIFP@makron?1pain2?4wav?$AA@ 20060750     m_boss32.obj
 0002:00004764       ??_C@_0BB@IHK@makron?1pain3?4wav?$AA@ 20060764     m_boss32.obj
 0002:00004778       __real@8@3ffeccccccccccccd000 20060778     m_boss32.obj
 0002:00004780       __real@8@3ffea8f5c28f5c28f800 20060780     m_brain.obj
 0002:00004788       __real@8@3ffda8f5c28f5c28f800 20060788     m_brain.obj
 0002:00004790       ??_C@_0BP@IAG@models?1monsters?1brain?1tris?4md2?$AA@ 20060790     m_brain.obj
 0002:000047b0       ??_C@_0BB@HCHK@brain?1melee3?4wav?$AA@ 200607b0     m_brain.obj
 0002:000047c4       ??_C@_0BB@NCFP@brain?1melee2?4wav?$AA@ 200607c4     m_brain.obj
 0002:000047d8       ??_C@_0BB@DCDA@brain?1melee1?4wav?$AA@ 200607d8     m_brain.obj
 0002:000047ec       ??_C@_0BD@DNKG@brain?1brnsrch1?4wav?$AA@ 200607ec     m_brain.obj
 0002:00004800       ??_C@_0BD@HBEL@brain?1brnsght1?4wav?$AA@ 20060800     m_brain.obj
 0002:00004814       ??_C@_0BD@JFMN@brain?1brnpain2?4wav?$AA@ 20060814     m_brain.obj
 0002:00004828       ??_C@_0BD@HFKC@brain?1brnpain1?4wav?$AA@ 20060828     m_brain.obj
 0002:0000483c       ??_C@_0BD@JHDA@brain?1brnlens1?4wav?$AA@ 2006083c     m_brain.obj
 0002:00004850       ??_C@_0BD@IOPA@brain?1brnidle2?4wav?$AA@ 20060850     m_brain.obj
 0002:00004864       ??_C@_0BD@GOJP@brain?1brnidle1?4wav?$AA@ 20060864     m_brain.obj
 0002:00004878       ??_C@_0BD@MEO@brain?1brndeth1?4wav?$AA@ 20060878     m_brain.obj
 0002:0000488c       ??_C@_0BD@NDPJ@brain?1brnatck3?4wav?$AA@ 2006088c     m_brain.obj
 0002:000048a0       ??_C@_0BD@HDNM@brain?1brnatck2?4wav?$AA@ 200608a0     m_brain.obj
 0002:000048b4       ??_C@_0BD@JDLD@brain?1brnatck1?4wav?$AA@ 200608b4     m_brain.obj
 0002:000048c8       ??_C@_0BD@GIPM@chick?1chksrch1?4wav?$AA@ 200608c8     m_chick.obj
 0002:000048dc       ??_C@_0BD@CEBB@chick?1chksght1?4wav?$AA@ 200608dc     m_chick.obj
 0002:000048f0       ??_C@_0BD@GALC@chick?1chkpain3?4wav?$AA@ 200608f0     m_chick.obj
 0002:00004904       ??_C@_0BD@MAJH@chick?1chkpain2?4wav?$AA@ 20060904     m_chick.obj
 0002:00004918       ??_C@_0BD@CAPI@chick?1chkpain1?4wav?$AA@ 20060918     m_chick.obj
 0002:0000492c       ??_C@_0BD@NLKK@chick?1chkidle2?4wav?$AA@ 2006092c     m_chick.obj
 0002:00004940       ??_C@_0BD@DLMF@chick?1chkidle1?4wav?$AA@ 20060940     m_chick.obj
 0002:00004954       ??_C@_0BD@DGEJ@chick?1chkfall1?4wav?$AA@ 20060954     m_chick.obj
 0002:00004968       ??_C@_0BD@LJHL@chick?1chkdeth2?4wav?$AA@ 20060968     m_chick.obj
 0002:0000497c       ??_C@_0BD@FJBE@chick?1chkdeth1?4wav?$AA@ 2006097c     m_chick.obj
 0002:00004990       ??_C@_0BD@EGHM@chick?1chkatck5?4wav?$AA@ 20060990     m_chick.obj
 0002:000049a4       ??_C@_0BD@OGFJ@chick?1chkatck4?4wav?$AA@ 200609a4     m_chick.obj
 0002:000049b8       ??_C@_0BD@IGKD@chick?1chkatck3?4wav?$AA@ 200609b8     m_chick.obj
 0002:000049cc       ??_C@_0BD@CGIG@chick?1chkatck2?4wav?$AA@ 200609cc     m_chick.obj
 0002:000049e0       ??_C@_0BD@MGOJ@chick?1chkatck1?4wav?$AA@ 200609e0     m_chick.obj
 0002:000049f4       ??_C@_0CB@MPCE@models?1monsters?1flipper?1tris?4md2@ 200609f4     m_flipper.obj
 0002:00004a18       ??_C@_0BF@HNMN@flipper?1flpsght1?4wav?$AA@ 20060a18     m_flipper.obj
 0002:00004a30       ??_C@_0BF@DBCA@flipper?1flpsrch1?4wav?$AA@ 20060a30     m_flipper.obj
 0002:00004a48       ??_C@_0BF@GCBJ@flipper?1flpidle1?4wav?$AA@ 20060a48     m_flipper.obj
 0002:00004a60       ??_C@_0BF@HPFK@flipper?1flpatck2?4wav?$AA@ 20060a60     m_flipper.obj
 0002:00004a78       ??_C@_0BF@JPDF@flipper?1flpatck1?4wav?$AA@ 20060a78     m_flipper.obj
 0002:00004a90       ??_C@_0BF@MI@flipper?1flpdeth1?4wav?$AA@ 20060a90     m_flipper.obj
 0002:00004aa8       ??_C@_0BF@JJEL@flipper?1flppain2?4wav?$AA@ 20060aa8     m_flipper.obj
 0002:00004ac0       ??_C@_0BF@HJCE@flipper?1flppain1?4wav?$AA@ 20060ac0     m_flipper.obj
 0002:00004ad8       ??_C@_0BP@DJHJ@models?1monsters?1float?1tris?4md2?$AA@ 20060ad8     m_float.obj
 0002:00004af8       ??_C@_0BF@EDCG@floater?1fltsrch1?4wav?$AA@ 20060af8     m_float.obj
 0002:00004b10       ??_C@_0BF@ONDD@floater?1fltatck1?4wav?$AA@ 20060b10     m_float.obj
 0002:00004b28       ??_C@_0BF@PML@floater?1fltsght1?4wav?$AA@ 20060b28     m_float.obj
 0002:00004b40       ??_C@_0BF@OLEN@floater?1fltpain2?4wav?$AA@ 20060b40     m_float.obj
 0002:00004b58       ??_C@_0BF@LCC@floater?1fltpain1?4wav?$AA@ 20060b58     m_float.obj
 0002:00004b70       ??_C@_0BF@BABP@floater?1fltidle1?4wav?$AA@ 20060b70     m_float.obj
 0002:00004b88       ??_C@_0BF@HCMO@floater?1fltdeth1?4wav?$AA@ 20060b88     m_float.obj
 0002:00004ba0       ??_C@_0BF@KNHJ@floater?1fltatck3?4wav?$AA@ 20060ba0     m_float.obj
 0002:00004bb8       ??_C@_0BF@NFM@floater?1fltatck2?4wav?$AA@ 20060bb8     m_float.obj
 0002:00004bd0       ??_C@_0BD@OJO@flyer?1flyidle1?4wav?$AA@ 20060bd0     m_flyer.obj
 0002:00004be4       ??_C@_0BP@BBM@models?1monsters?1flyer?1tris?4md2?$AA@ 20060be4     m_flyer.obj
 0002:00004c04       ??_C@_0BD@LDPI@flyer?1flyatck3?4wav?$AA@ 20060c04     m_flyer.obj
 0002:00004c18       ??_C@_0BD@GMEP@flyer?1flydeth1?4wav?$AA@ 20060c18     m_flyer.obj
 0002:00004c2c       ??_C@_0BD@PDLC@flyer?1flyatck1?4wav?$AA@ 20060c2c     m_flyer.obj
 0002:00004c40       ??_C@_0BD@BDNN@flyer?1flyatck2?4wav?$AA@ 20060c40     m_flyer.obj
 0002:00004c54       ??_C@_0BD@PFMM@flyer?1flypain2?4wav?$AA@ 20060c54     m_flyer.obj
 0002:00004c68       ??_C@_0BD@BFKD@flyer?1flypain1?4wav?$AA@ 20060c68     m_flyer.obj
 0002:00004c7c       ??_C@_0BD@FNKH@flyer?1flysrch1?4wav?$AA@ 20060c7c     m_flyer.obj
 0002:00004c90       ??_C@_0BD@BBEK@flyer?1flysght1?4wav?$AA@ 20060c90     m_flyer.obj
 0002:00004ca4       __real@4@c005d000000000000000 20060ca4     m_flyer.obj
 0002:00004ca8       ??_C@_05PJIF@jail5?$AA@    20060ca8     m_flyer.obj
 0002:00004cb0       __real@4@4005e000000000000000 20060cb0     m_gladiator.obj
 0002:00004cb4       ??_C@_0CC@BLHN@models?1monsters?1gladiatr?1tris?4md@ 20060cb4     m_gladiator.obj
 0002:00004cd8       ??_C@_0BE@LPHL@gladiator?1sight?4wav?$AA@ 20060cd8     m_gladiator.obj
 0002:00004cec       ??_C@_0BH@CNLO@gladiator?1gldsrch1?4wav?$AA@ 20060cec     m_gladiator.obj
 0002:00004d04       ??_C@_0BH@HOIH@gladiator?1gldidle1?4wav?$AA@ 20060d04     m_gladiator.obj
 0002:00004d1c       ??_C@_0BF@DIME@gladiator?1melee3?4wav?$AA@ 20060d1c     m_gladiator.obj
 0002:00004d34       ??_C@_0BF@JIOB@gladiator?1melee2?4wav?$AA@ 20060d34     m_gladiator.obj
 0002:00004d4c       ??_C@_0BF@HIIO@gladiator?1melee1?4wav?$AA@ 20060d4c     m_gladiator.obj
 0002:00004d64       ??_C@_0BG@MADN@gladiator?1railgun?4wav?$AA@ 20060d64     m_gladiator.obj
 0002:00004d7c       ??_C@_0BH@PMDJ@gladiator?1glddeth2?4wav?$AA@ 20060d7c     m_gladiator.obj
 0002:00004d94       ??_C@_0BH@IFNF@gladiator?1gldpain2?4wav?$AA@ 20060d94     m_gladiator.obj
 0002:00004dac       ??_C@_0BD@DIN@gladiator?1pain?4wav?$AA@ 20060dac     m_gladiator.obj
 0002:00004dc0       __real@8@3ffaccccccccccccd000 20060dc0     m_gunner.obj
 0002:00004dc8       ??_C@_0CA@FBO@models?1monsters?1gunner?1tris?4md2?$AA@ 20060dc8     m_gunner.obj
 0002:00004de8       ??_C@_0BE@FGKE@gunner?1gunatck3?4wav?$AA@ 20060de8     m_gunner.obj
 0002:00004dfc       ??_C@_0BE@PGIB@gunner?1gunatck2?4wav?$AA@ 20060dfc     m_gunner.obj
 0002:00004e10       ??_C@_0BC@BKNO@gunner?1sight1?4wav?$AA@ 20060e10     m_gunner.obj
 0002:00004e24       ??_C@_0BE@LIPL@gunner?1gunsrch1?4wav?$AA@ 20060e24     m_gunner.obj
 0002:00004e38       ??_C@_0BE@BGOO@gunner?1gunatck1?4wav?$AA@ 20060e38     m_gunner.obj
 0002:00004e4c       ??_C@_0BE@OLMC@gunner?1gunidle1?4wav?$AA@ 20060e4c     m_gunner.obj
 0002:00004e60       ??_C@_0BE@PAPP@gunner?1gunpain1?4wav?$AA@ 20060e60     m_gunner.obj
 0002:00004e74       ??_C@_0BE@BAJA@gunner?1gunpain2?4wav?$AA@ 20060e74     m_gunner.obj
 0002:00004e88       ??_C@_0BC@GEBB@gunner?1death1?4wav?$AA@ 20060e88     m_gunner.obj
 0002:00004e9c       ??_C@_0BP@FPAH@models?1monsters?1hover?1tris?4md2?$AA@ 20060e9c     m_hover.obj
 0002:00004ebc       ??_C@_0BD@MHNL@hover?1hovidle1?4wav?$AA@ 20060ebc     m_hover.obj
 0002:00004ed0       ??_C@_0BD@DKPH@hover?1hovatck1?4wav?$AA@ 20060ed0     m_hover.obj
 0002:00004ee4       ??_C@_0BD@HEIN@hover?1hovsrch2?4wav?$AA@ 20060ee4     m_hover.obj
 0002:00004ef8       ??_C@_0BD@JEOC@hover?1hovsrch1?4wav?$AA@ 20060ef8     m_hover.obj
 0002:00004f0c       ??_C@_0BD@NIAP@hover?1hovsght1?4wav?$AA@ 20060f0c     m_hover.obj
 0002:00004f20       ??_C@_0BD@EFGF@hover?1hovdeth2?4wav?$AA@ 20060f20     m_hover.obj
 0002:00004f34       ??_C@_0BD@KFAK@hover?1hovdeth1?4wav?$AA@ 20060f34     m_hover.obj
 0002:00004f48       ??_C@_0BD@DMIJ@hover?1hovpain2?4wav?$AA@ 20060f48     m_hover.obj
 0002:00004f5c       ??_C@_0BD@NMOG@hover?1hovpain1?4wav?$AA@ 20060f5c     m_hover.obj
 0002:00004f70       ??_C@_0BG@GKKH@infantry?1infidle1?4wav?$AA@ 20060f70     m_infantry.obj
 0002:00004f88       ??_C@_0BG@DJJO@infantry?1infsrch1?4wav?$AA@ 20060f88     m_infantry.obj
 0002:00004fa0       ??_C@_0BG@HFHD@infantry?1infsght1?4wav?$AA@ 20060fa0     m_infantry.obj
 0002:00004fb8       ??_C@_0BE@PNEG@infantry?1melee2?4wav?$AA@ 20060fb8     m_infantry.obj
 0002:00004fcc       ??_C@_0BG@HHOE@infantry?1infatck2?4wav?$AA@ 20060fcc     m_infantry.obj
 0002:00004fe4       ??_C@_0BG@NHMB@infantry?1infatck3?4wav?$AA@ 20060fe4     m_infantry.obj
 0002:00004ffc       ??_C@_0BG@JHIL@infantry?1infatck1?4wav?$AA@ 20060ffc     m_infantry.obj
 0002:00005014       ??_C@_0BG@OIBJ@infantry?1infdeth2?4wav?$AA@ 20061014     m_infantry.obj
 0002:0000502c       ??_C@_0BG@IHG@infantry?1infdeth1?4wav?$AA@ 2006102c     m_infantry.obj
 0002:00005044       ??_C@_0BG@JBPF@infantry?1infpain2?4wav?$AA@ 20061044     m_infantry.obj
 0002:0000505c       ??_C@_0BG@HBJK@infantry?1infpain1?4wav?$AA@ 2006105c     m_infantry.obj
 0002:00005074       ??_C@_0BK@NLNN@player?1male?1pain?$CFi_?$CFi?4wav?$AA@ 20061074     m_insane.obj
 0002:00005090       ??_C@_0BI@DMOF@player?1male?1death?$CFi?4wav?$AA@ 20061090     m_insane.obj
 0002:000050a8       ??_C@_0CA@KHJM@models?1monsters?1insane?1tris?4md2?$AA@ 200610a8     m_insane.obj
 0002:000050c8       ??_C@_0BE@GEHK@insane?1insane10?4wav?$AA@ 200610c8     m_insane.obj
 0002:000050dc       ??_C@_0BD@HOLH@insane?1insane9?4wav?$AA@ 200610dc     m_insane.obj
 0002:000050f0       ??_C@_0BD@NOJC@insane?1insane8?4wav?$AA@ 200610f0     m_insane.obj
 0002:00005104       ??_C@_0BD@BPGH@insane?1insane6?4wav?$AA@ 20061104     m_insane.obj
 0002:00005118       ??_C@_0BD@FPCN@insane?1insane4?4wav?$AA@ 20061118     m_insane.obj
 0002:0000512c       ??_C@_0BD@DPNH@insane?1insane3?4wav?$AA@ 2006112c     m_insane.obj
 0002:00005140       ??_C@_0BD@JPPC@insane?1insane2?4wav?$AA@ 20061140     m_insane.obj
 0002:00005154       ??_C@_0BD@HPJN@insane?1insane1?4wav?$AA@ 20061154     m_insane.obj
 0002:00005168       ??_C@_0BD@LPEC@insane?1insane7?4wav?$AA@ 20061168     m_insane.obj
 0002:0000517c       ??_C@_0BD@PPAI@insane?1insane5?4wav?$AA@ 2006117c     m_insane.obj
 0002:00005190       ??_C@_0BE@MEFP@insane?1insane11?4wav?$AA@ 20061190     m_insane.obj
 0002:000051a8       __real@8@3ffef333333333333000 200611a8     m_medic.obj
 0002:000051b0       __real@8@4004b400000000000000 200611b0     m_medic.obj
 0002:000051b8       ??_C@_0BP@NPHN@models?1monsters?1medic?1tris?4md2?$AA@ 200611b8     m_medic.obj
 0002:000051d8       ??_C@_0BD@GMHE@medic?1medatck1?4wav?$AA@ 200611d8     m_medic.obj
 0002:000051ec       ??_C@_0BD@OMOB@medic?1medatck5?4wav?$AA@ 200611ec     m_medic.obj
 0002:00005200       ??_C@_0BD@EMME@medic?1medatck4?4wav?$AA@ 20061200     m_medic.obj
 0002:00005214       ??_C@_0BD@CMDO@medic?1medatck3?4wav?$AA@ 20061214     m_medic.obj
 0002:00005228       ??_C@_0BD@IMBL@medic?1medatck2?4wav?$AA@ 20061228     m_medic.obj
 0002:0000523c       ??_C@_0BD@MCGB@medic?1medsrch1?4wav?$AA@ 2006123c     m_medic.obj
 0002:00005250       ??_C@_0BD@IOIM@medic?1medsght1?4wav?$AA@ 20061250     m_medic.obj
 0002:00005264       ??_C@_0BD@PDIJ@medic?1meddeth1?4wav?$AA@ 20061264     m_medic.obj
 0002:00005278       ??_C@_0BD@GKAK@medic?1medpain2?4wav?$AA@ 20061278     m_medic.obj
 0002:0000528c       ??_C@_0BD@IKGF@medic?1medpain1?4wav?$AA@ 2006128c     m_medic.obj
 0002:000052a0       ??_C@_0P@OACE@medic?1idle?4wav?$AA@ 200612a0     m_medic.obj
 0002:000052b0       __real@4@40039000000000000000 200612b0     m_move.obj
 0002:000052b4       __real@4@40049000000000000000 200612b4     m_move.obj
 0002:000052b8       __real@4@c0028000000000000000 200612b8     m_move.obj
 0002:000052bc       __real@4@4004a000000000000000 200612bc     m_move.obj
 0002:000052c0       __real@8@4007b400000000000000 200612c0     m_move.obj
 0002:000052c8       __real@4@c002a000000000000000 200612c8     m_move.obj
 0002:000052cc       __real@4@4007c800000000000000 200612cc     m_mutant.obj
 0002:000052d0       ??_C@_0CA@IPJE@models?1monsters?1mutant?1tris?4md2?$AA@ 200612d0     m_mutant.obj
 0002:000052f0       ??_C@_0BB@OBK@mutant?1thud1?4wav?$AA@ 200612f0     m_mutant.obj
 0002:00005304       ??_C@_0BB@HFH@mutant?1step3?4wav?$AA@ 20061304     m_mutant.obj
 0002:00005318       ??_C@_0BB@KHHC@mutant?1step2?4wav?$AA@ 20061318     m_mutant.obj
 0002:0000532c       ??_C@_0BB@EHBN@mutant?1step1?4wav?$AA@ 2006132c     m_mutant.obj
 0002:00005340       ??_C@_0BE@OOEA@mutant?1mutsrch1?4wav?$AA@ 20061340     m_mutant.obj
 0002:00005354       ??_C@_0BE@KCKN@mutant?1mutsght1?4wav?$AA@ 20061354     m_mutant.obj
 0002:00005368       ??_C@_0BE@EGCL@mutant?1mutpain2?4wav?$AA@ 20061368     m_mutant.obj
 0002:0000537c       ??_C@_0BE@KGEE@mutant?1mutpain1?4wav?$AA@ 2006137c     m_mutant.obj
 0002:00005390       ??_C@_0BE@LNHJ@mutant?1mutidle1?4wav?$AA@ 20061390     m_mutant.obj
 0002:000053a4       ??_C@_0BE@NPKI@mutant?1mutdeth1?4wav?$AA@ 200613a4     m_mutant.obj
 0002:000053b8       ??_C@_0BE@BP@mutant?1mutatck3?4wav?$AA@ 200613b8     m_mutant.obj
 0002:000053cc       ??_C@_0BE@KADK@mutant?1mutatck2?4wav?$AA@ 200613cc     m_mutant.obj
 0002:000053e0       ??_C@_0BE@EAFF@mutant?1mutatck1?4wav?$AA@ 200613e0     m_mutant.obj
 0002:000053f8       __real@8@4003f000000000000000 200613f8     m_parasite.obj
 0002:00005400       ??_C@_0CC@HCPN@models?1monsters?1parasite?1tris?4md@ 20061400     m_parasite.obj
 0002:00005424       ??_C@_0BG@EGEP@parasite?1parsrch1?4wav?$AA@ 20061424     m_parasite.obj
 0002:0000543c       ??_C@_0BG@PFBJ@parasite?1paridle2?4wav?$AA@ 2006143c     m_parasite.obj
 0002:00005454       ??_C@_0BG@BFHG@parasite?1paridle1?4wav?$AA@ 20061454     m_parasite.obj
 0002:0000546c       ??_C@_0BG@KKC@parasite?1parsght1?4wav?$AA@ 2006146c     m_parasite.obj
 0002:00005484       ??_C@_0BG@MIOK@parasite?1paratck4?4wav?$AA@ 20061484     m_parasite.obj
 0002:0000549c       ??_C@_0BG@KIBA@parasite?1paratck3?4wav?$AA@ 2006149c     m_parasite.obj
 0002:000054b4       ??_C@_0BG@IDF@parasite?1paratck2?4wav?$AA@ 200614b4     m_parasite.obj
 0002:000054cc       ??_C@_0BG@OIFK@parasite?1paratck1?4wav?$AA@ 200614cc     m_parasite.obj
 0002:000054e4       ??_C@_0BG@HHKH@parasite?1pardeth1?4wav?$AA@ 200614e4     m_parasite.obj
 0002:000054fc       ??_C@_0BG@OOCE@parasite?1parpain2?4wav?$AA@ 200614fc     m_parasite.obj
 0002:00005514       ??_C@_0BG@OEL@parasite?1parpain1?4wav?$AA@ 20061514     m_parasite.obj
 0002:00005530       __real@8@4008fa00000000000000 20061530     m_soldier.obj
 0002:00005538       __real@8@40018000000000000000 20061538     m_soldier.obj
 0002:00005540       ??_C@_0BF@CFPM@soldier?1solsrch1?4wav?$AA@ 20061540     m_soldier.obj
 0002:00005558       ??_C@_0BF@GJBB@soldier?1solsght1?4wav?$AA@ 20061558     m_soldier.obj
 0002:00005570       ??_C@_0BF@HGMF@soldier?1solidle1?4wav?$AA@ 20061570     m_soldier.obj
 0002:00005588       ??_C@_0CB@JMEN@models?1monsters?1soldier?1tris?4md2@ 20061588     m_soldier.obj
 0002:000055ac       ??_C@_0BF@GLIG@soldier?1solatck2?4wav?$AA@ 200615ac     m_soldier.obj
 0002:000055c4       ??_C@_0BF@PEHL@soldier?1soldeth2?4wav?$AA@ 200615c4     m_soldier.obj
 0002:000055dc       ??_C@_0BF@INJH@soldier?1solpain2?4wav?$AA@ 200615dc     m_soldier.obj
 0002:000055f4       ??_C@_0BF@ILOJ@soldier?1solatck1?4wav?$AA@ 200615f4     m_soldier.obj
 0002:0000560c       ??_C@_0BF@BEBE@soldier?1soldeth1?4wav?$AA@ 2006160c     m_soldier.obj
 0002:00005624       ??_C@_0BF@GNPI@soldier?1solpain1?4wav?$AA@ 20061624     m_soldier.obj
 0002:0000563c       ??_C@_0BF@MLKD@soldier?1solatck3?4wav?$AA@ 2006163c     m_soldier.obj
 0002:00005654       ??_C@_0BF@FEFO@soldier?1soldeth3?4wav?$AA@ 20061654     m_soldier.obj
 0002:0000566c       ??_C@_0BF@CNLC@soldier?1solpain3?4wav?$AA@ 2006166c     m_soldier.obj
 0002:00005684       __real@4@4006a000000000000000 20061684     m_supertank.obj
 0002:00005688       __real@4@4004c000000000000000 20061688     m_supertank.obj
 0002:0000568c       __real@4@4003c000000000000000 2006168c     m_supertank.obj
 0002:00005690       ??_C@_0BP@HAGG@models?1monsters?1boss1?1tris?4md2?$AA@ 20061690     m_supertank.obj
 0002:000056b0       ??_C@_0BG@KJCB@bosstank?1btkengn1?4wav?$AA@ 200616b0     m_supertank.obj
 0002:000056c8       ??_C@_0BG@JEOI@bosstank?1btkunqv2?4wav?$AA@ 200616c8     m_supertank.obj
 0002:000056e0       ??_C@_0BG@HEIH@bosstank?1btkunqv1?4wav?$AA@ 200616e0     m_supertank.obj
 0002:000056f8       ??_C@_0BG@BFEK@bosstank?1btkdeth1?4wav?$AA@ 200616f8     m_supertank.obj
 0002:00005710       ??_C@_0BG@CMOM@bosstank?1btkpain3?4wav?$AA@ 20061710     m_supertank.obj
 0002:00005728       ??_C@_0BG@IMMJ@bosstank?1btkpain2?4wav?$AA@ 20061728     m_supertank.obj
 0002:00005740       ??_C@_0BG@GMKG@bosstank?1btkpain1?4wav?$AA@ 20061740     m_supertank.obj
 0002:00005758       __real@4@4006fa00000000000000 20061758     m_tank.obj
 0002:0000575c       ??_C@_0BC@DLIN@tank?1tnkatck3?4wav?$AA@ 2006175c     m_tank.obj
 0002:00005770       ??_C@_0BC@IOFE@tank?1tnkatk2e?4wav?$AA@ 20061770     m_tank.obj
 0002:00005784       ??_C@_0BC@COHB@tank?1tnkatk2d?4wav?$AA@ 20061784     m_tank.obj
 0002:00005798       ??_C@_0BC@EOIL@tank?1tnkatk2c?4wav?$AA@ 20061798     m_tank.obj
 0002:000057ac       ??_C@_0BC@OOKO@tank?1tnkatk2b?4wav?$AA@ 200617ac     m_tank.obj
 0002:000057c0       ??_C@_0BC@OMB@tank?1tnkatk2a?4wav?$AA@ 200617c0     m_tank.obj
 0002:000057d4       ??_C@_0BC@HLMH@tank?1tnkatck1?4wav?$AA@ 200617d4     m_tank.obj
 0002:000057e8       ??_C@_0BA@NFNI@tank?1sight1?4wav?$AA@ 200617e8     m_tank.obj
 0002:000057f8       ??_C@_0BC@PLFC@tank?1tnkatck5?4wav?$AA@ 200617f8     m_tank.obj
 0002:0000580c       ??_C@_0BC@FLHH@tank?1tnkatck4?4wav?$AA@ 2006180c     m_tank.obj
 0002:00005820       ??_C@_0O@LFN@tank?1step?4wav?$AA@ 20061820     m_tank.obj
 0002:00005830       ??_C@_0P@DHEO@tank?1death?4wav?$AA@ 20061830     m_tank.obj
 0002:00005840       ??_C@_0BC@IGOL@tank?1tnkidle1?4wav?$AA@ 20061840     m_tank.obj
 0002:00005854       ??_C@_0BC@EFF@tank?1tnkdeth2?4wav?$AA@ 20061854     m_tank.obj
 0002:00005868       ??_C@_0BC@HNLJ@tank?1tnkpain2?4wav?$AA@ 20061868     m_tank.obj
 0002:0000587c       ??_C@_08PBBB@security?$AA@ 2006187c     p_client.obj
 0002:00005888       ??_C@_05GPH@jail3?$AA@     20061888     p_client.obj
 0002:00005890       ??_C@_06FFPI@strike?$AA@   20061890     p_client.obj
 0002:00005898       ??_C@_06PAPP@power2?$AA@   20061898     p_client.obj
 0002:000058a0       ??_C@_05GCKI@space?$AA@    200618a0     p_client.obj
 0002:000058a8       ??_C@_06CDGP@biggun?$AA@   200618a8     p_client.obj
 0002:000058b0       ??_C@_05MNF@boss1?$AA@     200618b0     p_client.obj
 0002:000058b8       ??_C@_03NEMD@lab?$AA@      200618b8     p_client.obj
 0002:000058bc       ??_C@_05EOH@mine4?$AA@     200618bc     p_client.obj
 0002:000058c4       ??_C@_05PLJF@mine2?$AA@    200618c4     p_client.obj
 0002:000058cc       ??_C@_05ECM@mine1?$AA@     200618cc     p_client.obj
 0002:000058d4       ??_C@_05FDBC@jail4?$AA@    200618d4     p_client.obj
 0002:000058dc       ??_C@_05KMGA@jail2?$AA@    200618dc     p_client.obj
 0002:000058e4       __real@4@4007c000000000000000 200618e4     p_client.obj
 0002:000058e8       ??_C@_06KFDE@gender?$AA@   200618e8     p_client.obj
 0002:000058f0       ??_C@_09PFNP@?$CFs?5died?4?6?$AA@ 200618f0     p_client.obj
 0002:000058fc       ??_C@_0M@JPCK@?$CFs?5?$CFs?5?$CFs?$CFs?6?$AA@ 200618fc     p_client.obj
 0002:00005908       ??_C@_0BC@EAHL@?8s?5personal?5space?$AA@ 20061908     p_client.obj
 0002:0000591c       ??_C@_0BA@BOPB@tried?5to?5invade?$AA@ 2006191c     p_client.obj
 0002:0000592c       ??_C@_07JJHF@?8s?5pain?$AA@ 2006192c     p_client.obj
 0002:00005934       ??_C@_05GPCP@feels?$AA@    20061934     p_client.obj
 0002:0000593c       ??_C@_0L@FLDO@didn?8t?5see?$AA@ 2006193c     p_client.obj
 0002:00005948       ??_C@_0P@HMGJ@?8s?5handgrenade?$AA@ 20061948     p_client.obj
 0002:00005958       ??_C@_06JDHL@caught?$AA@   20061958     p_client.obj
 0002:00005960       ??_C@_0BD@EPNI@couldn?8t?5hide?5from?$AA@ 20061960     p_client.obj
 0002:00005974       ??_C@_0N@BHNL@?8s?5BFG?5blast?$AA@ 20061974     p_client.obj
 0002:00005984       ??_C@_0BF@CDEE@was?5disintegrated?5by?$AA@ 20061984     p_client.obj
 0002:0000599c       ??_C@_06BFBK@?8s?5BFG?$AA@ 2006199c     p_client.obj
 0002:000059a4       ??_C@_0BL@GCPC@saw?5the?5pretty?5lights?5from?$AA@ 200619a4     p_client.obj
 0002:000059c0       ??_C@_0O@CAMJ@was?5railed?5by?$AA@ 200619c0     p_client.obj
 0002:000059d0       ??_C@_0BA@IJMK@?8s?5hyperblaster?$AA@ 200619d0     p_client.obj
 0002:000059e0       ??_C@_0O@BKII@was?5melted?5by?$AA@ 200619e0     p_client.obj
 0002:000059f0       ??_C@_0O@FKJL@almost?5dodged?$AA@ 200619f0     p_client.obj
 0002:00005a00       ??_C@_09LGPO@?8s?5rocket?$AA@ 20061a00     p_client.obj
 0002:00005a0c       ??_C@_03CNHG@ate?$AA@      20061a0c     p_client.obj
 0002:00005a10       ??_C@_0M@JEIL@?8s?5shrapnel?$AA@ 20061a10     p_client.obj
 0002:00005a1c       ??_C@_0BA@LEDP@was?5shredded?5by?$AA@ 20061a1c     p_client.obj
 0002:00005a2c       ??_C@_0L@JJNB@?8s?5grenade?$AA@ 20061a2c     p_client.obj
 0002:00005a38       ??_C@_0O@EHCL@was?5popped?5by?$AA@ 20061a38     p_client.obj
 0002:00005a48       ??_C@_0M@KOND@?8s?5chaingun?$AA@ 20061a48     p_client.obj
 0002:00005a54       ??_C@_0BD@HFCG@was?5cut?5in?5half?5by?$AA@ 20061a54     p_client.obj
 0002:00005a68       ??_C@_0BF@PMCN@was?5machinegunned?5by?$AA@ 20061a68     p_client.obj
 0002:00005a80       ??_C@_0BB@DIEO@?8s?5super?5shotgun?$AA@ 20061a80     p_client.obj
 0002:00005a94       ??_C@_0BC@JMNM@was?5blown?5away?5by?$AA@ 20061a94     p_client.obj
 0002:00005aa8       ??_C@_0BD@BGJE@was?5gunned?5down?5by?$AA@ 20061aa8     p_client.obj
 0002:00005abc       ??_C@_0P@PJPG@was?5blasted?5by?$AA@ 20061abc     p_client.obj
 0002:00005acc       ??_C@_07GGCL@?$CFs?5?$CFs?4?6?$AA@ 20061acc     p_client.obj
 0002:00005ad4       ??_C@_0P@GGKD@killed?5himself?$AA@ 20061ad4     p_client.obj
 0002:00005ae4       ??_C@_0P@POKH@killed?5herself?$AA@ 20061ae4     p_client.obj
 0002:00005af4       ??_C@_0O@IICO@killed?5itself?$AA@ 20061af4     p_client.obj
 0002:00005b04       ??_C@_0BP@NJLA@should?5have?5used?5a?5smaller?5gun?$AA@ 20061b04     p_client.obj
 0002:00005b24       ??_C@_0BA@IPDB@blew?5himself?5up?$AA@ 20061b24     p_client.obj
 0002:00005b34       ??_C@_0BA@KPAE@blew?5herself?5up?$AA@ 20061b34     p_client.obj
 0002:00005b44       ??_C@_0P@HBOM@blew?5itself?5up?$AA@ 20061b44     p_client.obj
 0002:00005b54       ??_C@_0BL@HMJI@tripped?5on?5his?5own?5grenade?$AA@ 20061b54     p_client.obj
 0002:00005b70       ??_C@_0BL@KODL@tripped?5on?5her?5own?5grenade?$AA@ 20061b70     p_client.obj
 0002:00005b8c       ??_C@_0BL@JILB@tripped?5on?5its?5own?5grenade?$AA@ 20061b8c     p_client.obj
 0002:00005ba8       ??_C@_0BN@JOKE@tried?5to?5put?5the?5pin?5back?5in?$AA@ 20061ba8     p_client.obj
 0002:00005bc8       ??_C@_0BH@BPGN@was?5in?5the?5wrong?5place?$AA@ 20061bc8     p_client.obj
 0002:00005be0       ??_C@_0M@OJCL@got?5blasted?$AA@ 20061be0     p_client.obj
 0002:00005bec       ??_C@_0O@NKOE@saw?5the?5light?$AA@ 20061bec     p_client.obj
 0002:00005bfc       ??_C@_0BA@FMLI@found?5a?5way?5out?$AA@ 20061bfc     p_client.obj
 0002:00005c0c       ??_C@_07DELG@blew?5up?$AA@ 20061c0c     p_client.obj
 0002:00005c14       ??_C@_0BP@CFPL@does?5a?5back?5flip?5into?5the?5lava?$AA@ 20061c14     p_client.obj
 0002:00005c34       ??_C@_06BOLJ@melted?$AA@   20061c34     p_client.obj
 0002:00005c3c       ??_C@_0BB@PFDP@sank?5like?5a?5rock?$AA@ 20061c3c     p_client.obj
 0002:00005c50       ??_C@_0N@NNIF@was?5squished?$AA@ 20061c50     p_client.obj
 0002:00005c60       ??_C@_08LBFE@cratered?$AA@ 20061c60     p_client.obj
 0002:00005c6c       ??_C@_08LLKL@suicides?$AA@ 20061c6c     p_client.obj
 0002:00005c78       __real@8@4004e52ee0d31e0fc000 20061c78     p_client.obj
 0002:00005c80       ??_C@_0N@ELAE@?$CKdeath?$CFi?4wav?$AA@ 20061c80     p_client.obj
 0002:00005c90       ??_C@_0BO@FHIN@Couldn?8t?5find?5spawn?5point?5?$CFs?6?$AA@ 20061c90     p_client.obj
 0002:00005cb0       ??_C@_07IAGC@bodyque?$AA@  20061cb0     p_client.obj
 0002:00005cb8       ??_C@_0P@DBJF@menu_loadgame?6?$AA@ 20061cb8     p_client.obj
 0002:00005cc8       ??_C@_0BE@HPGB@?$CFs?5joined?5the?5game?6?$AA@ 20061cc8     p_client.obj
 0002:00005cdc       ??_C@_0BP@FNOO@?$CFs?5has?5moved?5to?5the?5sidelines?6?$AA@ 20061cdc     p_client.obj
 0002:00005cfc       ??_C@_0N@JCML@spectator?51?6?$AA@ 20061cfc     p_client.obj
 0002:00005d0c       ??_C@_0BF@JDEP@Password?5incorrect?4?6?$AA@ 20061d0c     p_client.obj
 0002:00005d24       ??_C@_0CA@FMM@Server?5spectator?5limit?5is?5full?4?$AA@ 20061d24     p_client.obj
 0002:00005d44       ??_C@_0N@IEGB@spectator?50?6?$AA@ 20061d44     p_client.obj
 0002:00005d54       ??_C@_0BP@HJNE@Spectator?5password?5incorrect?4?6?$AA@ 20061d54     p_client.obj
 0002:00005d74       ??_C@_09OOFE@spectator?$AA@ 20061d74     p_client.obj
 0002:00005d80       ??_C@_03CBNM@fov?$AA@      20061d80     p_client.obj
 0002:00005d84       ??_C@_06MNOE@player?$AA@   20061d84     p_client.obj
 0002:00005d8c       ??_C@_0BF@LIFO@?$CFs?5entered?5the?5game?6?$AA@ 20061d8c     p_client.obj
 0002:00005da4       ??_C@_04KBBO@hand?$AA@     20061da4     p_client.obj
 0002:00005dac       ??_C@_05KEJO@?$CFs?2?$CFs?$AA@ 20061dac     p_client.obj
 0002:00005db4       ??_C@_04OPJK@name?$AA@     20061db4     p_client.obj
 0002:00005dbc       ??_C@_0BO@MGKJ@?2name?2badinfo?2skin?2male?1grunt?$AA@ 20061dbc     p_client.obj
 0002:00005ddc       ??_C@_0O@PHNC@?$CFs?5connected?6?$AA@ 20061ddc     p_client.obj
 0002:00005dec       ??_C@_0CA@IMDB@Password?5required?5or?5incorrect?4?$AA@ 20061dec     p_client.obj
 0002:00005e0c       ??_C@_0CK@OLJO@Spectator?5password?5required?5or?5i@ 20061e0c     p_client.obj
 0002:00005e38       ??_C@_06NPBA@rejmsg?$AA@   20061e38     p_client.obj
 0002:00005e40       ??_C@_07HHBK@Banned?4?$AA@ 20061e40     p_client.obj
 0002:00005e48       ??_C@_02ICFJ@ip?$AA@       20061e48     p_client.obj
 0002:00005e4c       ??_C@_0N@OGHP@disconnected?$AA@ 20061e4c     p_client.obj
 0002:00005e5c       ??_C@_0BB@KGDK@?$CFs?5disconnected?6?$AA@ 20061e5c     p_client.obj
 0002:00005e70       ??_C@_0O@DFHL@sv?5?$CF3i?3?$CFi?5?$CFi?6?$AA@ 20061e70     p_client.obj
 0002:00005e80       __real@8@3ff7b400000000000000 20061e80     p_client.obj
 0002:00005e88       ??_C@_0BK@CBJC@client?5?$CFi?5?$CFi?5?$CFi?5?$CFi?5?$CFi?5?$CFi?5?$AA@ 20061e88     p_hud.obj
 0002:00005ea4       ??_C@_0BF@IMFD@xv?5?$CFi?5yv?5?$CFi?5picn?5?$CFs?5?$AA@ 20061ea4     p_hud.obj
 0002:00005ebc       ??_C@_04BLNL@tag2?$AA@     20061ebc     p_hud.obj
 0002:00005ec4       ??_C@_04OEGC@tag1?$AA@     20061ec4     p_hud.obj
 0002:00005ecc       ??_C@_0OE@DKLC@xv?532?5yv?58?5picn?5help?5xv?5202?5yv?51@ 20061ecc     p_hud.obj
 0002:00005fb0       ??_C@_05EJMF@hard?$CL?$AA@ 20061fb0     p_hud.obj
 0002:00005fb8       ??_C@_04CEEJ@hard?$AA@     20061fb8     p_hud.obj
 0002:00005fc0       ??_C@_06LDM@medium?$AA@    20061fc0     p_hud.obj
 0002:00005fc8       ??_C@_04FFGK@easy?$AA@     20061fc8     p_hud.obj
 0002:00005fd0       __real@4@4005b600000000000000 20061fd0     p_hud.obj
 0002:00005fd4       ??_C@_0N@EBHD@player_trail?$AA@ 20061fd4     p_trail.obj
 0002:00005fe8       __real@8@3ff8a3d70a3d70a3d800 20061fe8     p_view.obj
 0002:00005ff0       ??_C@_0P@PIGP@?$CKpain?$CFi_?$CFi?4wav?$AA@ 20061ff0     p_view.obj
 0002:00006000       __real@4@c003b000000000000000 20062000     p_view.obj
 0002:00006004       __real@4@4002e000000000000000 20062004     p_view.obj
 0002:00006008       __real@4@c002e000000000000000 20062008     p_view.obj
 0002:0000600c       __real@4@c004b400000000000000 2006200c     p_view.obj
 0002:00006010       __real@8@3ffaf5c28f5c28f5c000 20062010     p_view.obj
 0002:00006018       ??_C@_0BD@MBFG@items?1protect2?4wav?$AA@ 20062018     p_view.obj
 0002:0000602c       ??_C@_0BC@PAJL@items?1damage2?4wav?$AA@ 2006202c     p_view.obj
 0002:00006040       __real@4@4004dc00000000000000 20062040     p_view.obj
 0002:00006048       __real@8@3ff1d1b71758e2196800 20062048     p_view.obj
 0002:00006050       ??_C@_0BB@PFEP@player?1burn2?4wav?$AA@ 20062050     p_view.obj
 0002:00006064       ??_C@_0BB@BFCA@player?1burn1?4wav?$AA@ 20062064     p_view.obj
 0002:00006078       ??_C@_0BC@HBEB@player?1drown1?4wav?$AA@ 20062078     p_view.obj
 0002:0000608c       __real@4@4002b000000000000000 2006208c     p_view.obj
 0002:00006090       ??_C@_0BD@IOGI@player?1lava_in?4wav?$AA@ 20062090     p_view.obj
 0002:000060a4       __real@4@4006e100000000000000 200620a4     p_view.obj
 0002:000060a8       ??_C@_0BE@MGPD@weapons?1bfg_hum?4wav?$AA@ 200620a8     p_view.obj
 0002:000060bc       __real@4@4006d200000000000000 200620bc     p_view.obj
 0002:000060c0       __real@4@c007b400000000000000 200620c0     p_view.obj
 0002:000060c4       ??_C@_07LCBO@shotgun?$AA@  200620c4     p_weapon.obj
 0002:000060cc       ??_C@_0O@HOIB@super?5shotgun?$AA@ 200620cc     p_weapon.obj
 0002:000060dc       ??_C@_06FEJG@shells?$AA@   200620dc     p_weapon.obj
 0002:000060e4       ??_C@_0L@BAOB@machinegun?$AA@ 200620e4     p_weapon.obj
 0002:000060f0       ??_C@_08EHDI@chaingun?$AA@ 200620f0     p_weapon.obj
 0002:000060fc       ??_C@_07JBKI@bullets?$AA@  200620fc     p_weapon.obj
 0002:00006104       ??_C@_0N@EGIP@hyperblaster?$AA@ 20062104     p_weapon.obj
 0002:00006114       ??_C@_07BLEE@railgun?$AA@  20062114     p_weapon.obj
 0002:0000611c       ??_C@_05ONMJ@slugs?$AA@    2006211c     p_weapon.obj
 0002:00006124       ??_C@_0BH@FNML@Not?5enough?5?$CFs?5for?5?$CFs?4?6?$AA@ 20062124     p_weapon.obj
 0002:0000613c       ??_C@_0P@NMMO@No?5?$CFs?5for?5?$CFs?4?6?$AA@ 2006213c     p_weapon.obj
 0002:0000614c       ??_C@_0BC@FALO@items?1damage3?4wav?$AA@ 2006214c     p_weapon.obj
 0002:00006160       __real@8@4007c800000000000000 20062160     p_weapon.obj
 0002:00006168       __real@8@40068555555555555800 20062168     p_weapon.obj
 0002:00006170       ??_C@_0BF@GIFO@weapons?1hgrena1b?4wav?$AA@ 20062170     p_weapon.obj
 0002:00006188       __real@8@4003a000000000000000 20062188     p_weapon.obj
 0002:00006190       ??_C@_0BF@IKGA@weapons?1hyprbd1a?4wav?$AA@ 20062190     p_weapon.obj
 0002:000061a8       __real@8@c0018000000000000000 200621a8     p_weapon.obj
 0002:000061b0       __real@8@4001c000000000000000 200621b0     p_weapon.obj
 0002:000061b8       ??_C@_0BF@POMN@weapons?1hyprbl1a?4wav?$AA@ 200621b8     p_weapon.obj
 0002:000061d0       __real@8@bfffc000000000000000 200621d0     p_weapon.obj
 0002:000061d8       __real@8@4001e000000000000000 200621d8     p_weapon.obj
 0002:000061e0       ??_C@_0BF@EJEK@weapons?1chngnl1a?4wav?$AA@ 200621e0     p_weapon.obj
 0002:000061f8       ??_C@_0BF@DNOH@weapons?1chngnd1a?4wav?$AA@ 200621f8     p_weapon.obj
 0002:00006210       ??_C@_0BF@PKCI@weapons?1chngnu1a?4wav?$AA@ 20062210     p_weapon.obj
 0002:00006228       __real@8@4006b60b60b60b60b800 20062228     q_shared.obj
 0002:00006230       ??_C@_0CD@KCEE@Com_sprintf?3?5overflow?5of?5?$CFi?5in?5?$CF@ 20062230     q_shared.obj
 0002:00006254       ??_C@_01PCFE@?2?$AA@       20062254     q_shared.obj
 0002:00006258       ??_C@_01FAJB@?$DL?$AA@     20062258     q_shared.obj
 0002:0000625c       ??_C@_01HMO@?$CC?$AA@      2006225c     q_shared.obj
 0002:00006260       ??_C@_0BN@DPCF@Info?5string?5length?5exceeded?6?$AA@ 20062260     q_shared.obj
 0002:00006280       ??_C@_06GNBE@?2?$CFs?2?$CFs?$AA@ 20062280     q_shared.obj
 0002:00006288       ??_C@_0CK@EOML@Keys?5and?5values?5must?5be?5?$DM?564?5cha@ 20062288     q_shared.obj
 0002:000062b4       ??_C@_0CD@NLGB@Can?8t?5use?5keys?5or?5values?5with?5a?5@ 200622b4     q_shared.obj
 0002:000062d8       ??_C@_0CL@GPCB@Can?8t?5use?5keys?5or?5values?5with?5a?5@ 200622d8     q_shared.obj
 0002:00006304       ??_C@_0CD@MJE@Can?8t?5use?5keys?5or?5values?5with?5a?5@ 20062304     q_shared.obj
 0002:00006328       ??_C@_0P@LNLA@format?5?$CB?$DN?5NULL?$AA@ 20062328     LIBCMTD:sprintf.obj
 0002:00006338       ??_C@_09NEAG@sprintf?4c?$AA@ 20062338     LIBCMTD:sprintf.obj
 0002:00006344       ??_C@_0P@OOIN@string?5?$CB?$DN?5NULL?$AA@ 20062344     LIBCMTD:sprintf.obj
 0002:00006354       ??_C@_0L@HE@vsprintf?4c?$AA@ 20062354     LIBCMTD:vsprintf.obj
 0002:00006360       ??_C@_06DPMO@Client?$AA@   20062360     LIBCMTD:dbgheap.obj
 0002:00006368       ??_C@_06BAFM@Ignore?$AA@   20062368     LIBCMTD:dbgheap.obj
 0002:00006370       ??_C@_03DICE@CRT?$AA@      20062370     LIBCMTD:dbgheap.obj
 0002:00006374       ??_C@_06BILL@Normal?$AA@   20062374     LIBCMTD:dbgheap.obj
 0002:0000637c       ??_C@_04NEN@Free?$AA@      2006237c     LIBCMTD:dbgheap.obj
 0002:00006384       ??_C@_0DC@CGID@Error?3?5memory?5allocation?3?5bad?5me@ 20062384     LIBCMTD:dbgheap.obj
 0002:000063b8       ??_C@_0CE@FMIA@Invalid?5allocation?5size?3?5?$CFu?5byte@ 200623b8     LIBCMTD:dbgheap.obj
 0002:000063dc       ??_C@_0CB@CPBI@Client?5hook?5allocation?5failure?4?6@ 200623dc     LIBCMTD:dbgheap.obj
 0002:00006400       ??_C@_0DF@DKHF@Client?5hook?5allocation?5failure?5a@ 20062400     LIBCMTD:dbgheap.obj
 0002:00006438       ??_C@_09IMJC@dbgheap?4c?$AA@ 20062438     LIBCMTD:dbgheap.obj
 0002:00006444       ??_C@_0BC@EPKL@_CrtCheckMemory?$CI?$CJ?$AA@ 20062444     LIBCMTD:dbgheap.obj
 0002:00006458       ??_C@_0BK@JDHA@_pFirstBlock?5?$DN?$DN?5pOldBlock?$AA@ 20062458     LIBCMTD:dbgheap.obj
 0002:00006474       ??_C@_0BJ@NMEF@_pLastBlock?5?$DN?$DN?5pOldBlock?$AA@ 20062474     LIBCMTD:dbgheap.obj
 0002:00006490       ??_C@_0DC@BOCN@fRealloc?5?$HM?$HM?5?$CI?$CBfRealloc?5?$CG?$CG?5pNewBl@ 20062490     LIBCMTD:dbgheap.obj
 0002:000064c4       ??_C@_0DK@DKOM@_BLOCK_TYPE?$CIpOldBlock?9?$DOnBlockUse@ 200624c4     LIBCMTD:dbgheap.obj
 0002:00006500       ??_C@_0EF@EDKM@pOldBlock?9?$DOnLine?5?$DN?$DN?5IGNORE_LINE?5@ 20062500     LIBCMTD:dbgheap.obj
 0002:00006548       ??_C@_0CC@GPMO@_CrtIsValidHeapPointer?$CIpUserData@ 20062548     LIBCMTD:dbgheap.obj
 0002:0000656c       ??_C@_0CN@FHGE@Allocation?5too?5large?5or?5negative@ 2006256c     LIBCMTD:dbgheap.obj
 0002:0000659c       ??_C@_0CE@EAMN@Client?5hook?5re?9allocation?5failur@ 2006259c     LIBCMTD:dbgheap.obj
 0002:000065c0       ??_C@_0DI@KKMM@Client?5hook?5re?9allocation?5failur@ 200625c0     LIBCMTD:dbgheap.obj
 0002:000065f8       ??_C@_0BG@JCEC@_pFirstBlock?5?$DN?$DN?5pHead?$AA@ 200625f8     LIBCMTD:dbgheap.obj
 0002:00006610       ??_C@_0BF@NLNN@_pLastBlock?5?$DN?$DN?5pHead?$AA@ 20062610     LIBCMTD:dbgheap.obj
 0002:00006628       ??_C@_0BO@PLHH@pHead?9?$DOnBlockUse?5?$DN?$DN?5nBlockUse?$AA@ 20062628     LIBCMTD:dbgheap.obj
 0002:00006648       ??_C@_0DN@KKIO@pHead?9?$DOnLine?5?$DN?$DN?5IGNORE_LINE?5?$CG?$CG?5p@ 20062648     LIBCMTD:dbgheap.obj
 0002:00006688       ??_C@_0CK@OJNB@DAMAGE?3?5after?5?$CFhs?5block?5?$CI?$CD?$CFd?$CJ?5at@ 20062688     LIBCMTD:dbgheap.obj
 0002:000066b4       ??_C@_0CL@IJIL@DAMAGE?3?5before?5?$CFhs?5block?5?$CI?$CD?$CFd?$CJ?5a@ 200626b4     LIBCMTD:dbgheap.obj
 0002:000066e0       ??_C@_0CH@PHOC@_BLOCK_TYPE_IS_VALID?$CIpHead?9?$DOnBlo@ 200626e0     LIBCMTD:dbgheap.obj
 0002:00006708       ??_C@_0BL@MBNA@Client?5hook?5free?5failure?4?6?$AA@ 20062708     LIBCMTD:dbgheap.obj
 0002:00006724       ??_C@_0DK@EKKL@memory?5check?5error?5at?50x?$CF08X?5?$DN?50@ 20062724     LIBCMTD:dbgheap.obj
 0002:00006760       ??_C@_0CJ@GCII@?$CFhs?5located?5at?50x?$CF08X?5is?5?$CFu?5byte@ 20062760     LIBCMTD:dbgheap.obj
 0002:0000678c       ??_C@_0CA@EJPI@?$CFhs?5allocated?5at?5file?5?$CFhs?$CI?$CFd?$CJ?4?6?$AA@ 2006278c     LIBCMTD:dbgheap.obj
 0002:000067ac       ??_C@_0CJ@LHHG@DAMAGE?3?5on?5top?5of?5Free?5block?5at?5@ 200627ac     LIBCMTD:dbgheap.obj
 0002:000067d8       ??_C@_07GJHM@DAMAGED?$AA@  200627d8     LIBCMTD:dbgheap.obj
 0002:000067e0       ??_C@_0CL@ODIE@_heapchk?5fails?5with?5unknown?5retu@ 200627e0     LIBCMTD:dbgheap.obj
 0002:0000680c       ??_C@_0CC@EHNC@_heapchk?5fails?5with?5_HEAPBADPTR?4@ 2006280c     LIBCMTD:dbgheap.obj
 0002:00006830       ??_C@_0CC@JNDP@_heapchk?5fails?5with?5_HEAPBADEND?4@ 20062830     LIBCMTD:dbgheap.obj
 0002:00006854       ??_C@_0CD@DNMG@_heapchk?5fails?5with?5_HEAPBADNODE@ 20062854     LIBCMTD:dbgheap.obj
 0002:00006878       ??_C@_0CE@JMCB@_heapchk?5fails?5with?5_HEAPBADBEGI@ 20062878     LIBCMTD:dbgheap.obj
 0002:0000689c       ??_C@_0CD@MEMI@Bad?5memory?5block?5found?5at?50x?$CF08X@ 2006289c     LIBCMTD:dbgheap.obj
 0002:000068c0       ??_C@_0CI@GMAO@_CrtMemCheckPoint?3?5NULL?5state?5po@ 200628c0     LIBCMTD:dbgheap.obj
 0002:000068e8       ??_C@_0CI@MNAE@_CrtMemDifference?3?5NULL?5state?5po@ 200628e8     LIBCMTD:dbgheap.obj
 0002:00006910       ??_C@_0BH@PKIJ@Object?5dump?5complete?4?6?$AA@ 20062910     LIBCMTD:dbgheap.obj
 0002:00006928       ??_C@_0DB@DBPF@crt?5block?5at?50x?$CF08X?0?5subtype?5?$CFx?0@ 20062928     LIBCMTD:dbgheap.obj
 0002:0000695c       ??_C@_0CI@JLM@normal?5block?5at?50x?$CF08X?0?5?$CFu?5bytes@ 2006295c     LIBCMTD:dbgheap.obj
 0002:00006984       ??_C@_0DE@PFEA@client?5block?5at?50x?$CF08X?0?5subtype?5@ 20062984     LIBCMTD:dbgheap.obj
 0002:000069b8       ??_C@_06MBCE@?$HL?$CFld?$HN?5?$AA@ 200629b8     LIBCMTD:dbgheap.obj
 0002:000069c0       ??_C@_0L@BLDJ@?$CFhs?$CI?$CFd?$CJ?5?3?5?$AA@ 200629c0     LIBCMTD:dbgheap.obj
 0002:000069cc       ??_C@_0BE@FEMA@?$CDFile?5Error?$CD?$CI?$CFd?$CJ?5?3?5?$AA@ 200629cc     LIBCMTD:dbgheap.obj
 0002:000069e0       ??_C@_0BE@FPPM@Dumping?5objects?5?9?$DO?6?$AA@ 200629e0     LIBCMTD:dbgheap.obj
 0002:000069f4       ??_C@_0BA@POLM@?5Data?3?5?$DM?$CFs?$DO?5?$CFs?6?$AA@ 200629f4     LIBCMTD:dbgheap.obj
 0002:00006a04       ??_C@_05JLAO@?$CF?42X?5?$AA@ 20062a04     LIBCMTD:dbgheap.obj
 0002:00006a0c       ??_C@_0BI@KONA@Detected?5memory?5leaks?$CB?6?$AA@ 20062a0c     LIBCMTD:dbgheap.obj
 0002:00006a24       ??_C@_0BP@LCCN@Total?5allocations?3?5?$CFld?5bytes?4?6?$AA@ 20062a24     LIBCMTD:dbgheap.obj
 0002:00006a44       ??_C@_0CB@COID@Largest?5number?5used?3?5?$CFld?5bytes?4?6@ 20062a44     LIBCMTD:dbgheap.obj
 0002:00006a68       ??_C@_0BO@MEJD@?$CFld?5bytes?5in?5?$CFld?5?$CFhs?5Blocks?4?6?$AA@ 20062a68     LIBCMTD:dbgheap.obj
 0002:00006a88       ??_C@_08PHBD@fclose?4c?$AA@ 20062a88     LIBCMTD:fclose.obj
 0002:00006a94       ??_C@_0P@FHEA@stream?5?$CB?$DN?5NULL?$AA@ 20062a94     LIBCMTD:fclose.obj
 0002:00006aa4       ??_C@_0M@KJPK@str?5?$CB?$DN?5NULL?$AA@ 20062aa4     LIBCMTD:fclose.obj
 0002:00006ab0       ??_C@_0BC@IPFL@?$CKmode?5?$CB?$DN?5_T?$CI?8?20?8?$CJ?$AA@ 20062ab0     LIBCMTD:fopen.obj
 0002:00006ac4       ??_C@_0N@BKPP@mode?5?$CB?$DN?5NULL?$AA@ 20062ac4     LIBCMTD:fopen.obj
 0002:00006ad4       ??_C@_0BC@GOED@?$CKfile?5?$CB?$DN?5_T?$CI?8?20?8?$CJ?$AA@ 20062ad4     LIBCMTD:fopen.obj
 0002:00006ae8       ??_C@_07OMGG@fopen?4c?$AA@ 20062ae8     LIBCMTD:fopen.obj
 0002:00006af0       ??_C@_0N@MCKG@file?5?$CB?$DN?5NULL?$AA@ 20062af0     LIBCMTD:fopen.obj
 0002:00006b00       ??_C@_08EJDA@sscanf?4c?$AA@ 20062b00     LIBCMTD:sscanf.obj
 0002:00006b0c       ??_C@_09DLOM@fprintf?4c?$AA@ 20062b0c     LIBCMTD:fprintf.obj
 0002:00006b18       ??_C@_0BK@JEGK@IsProcessorFeaturePresent?$AA@ 20062b18     LIBCMTD:testfdiv.obj
 0002:00006b34       ??_C@_08OBID@KERNEL32?$AA@ 20062b34     LIBCMTD:testfdiv.obj
 0002:00006b40       ??_C@_05OFLO@e?$CL000?$AA@ 20062b40     LIBCMTD:cvt.obj
 0002:00006b48       ??_C@_0L@ENLJ@tidtable?4c?$AA@ 20062b48     LIBCMTD:tidtable.obj
 0002:00006b54       ??_C@_0DP@IHIN@?$CI?$CCinconsistent?5IOB?5fields?$CC?0?5stre@ 20062b54     LIBCMTD:_flsbuf.obj
 0002:00006b94       ??_C@_09LGEI@_flsbuf?4c?$AA@ 20062b94     LIBCMTD:_flsbuf.obj
 0002:00006ba0       ___lookuptable             20062ba0     LIBCMTD:output.obj
 0002:00006bfc       ??_C@_1O@POHA@?$AA?$CI?$AAn?$AAu?$AAl?$AAl?$AA?$CJ?$AA?$AA@ 20062bfc     LIBCMTD:output.obj
 0002:00006c0c       ??_C@_06ONKE@?$CInull?$CJ?$AA@ 20062c0c     LIBCMTD:output.obj
 0002:00006c14       ??_C@_08MIHI@output?4c?$AA@ 20062c14     LIBCMTD:output.obj
 0002:00006c20       ??_C@_0P@PIHB@ch?5?$CB?$DN?5_T?$CI?8?20?8?$CJ?$AA@ 20062c20     LIBCMTD:output.obj
 0002:00006c30       ??_C@_0BB@BLL@Assertion?5Failed?$AA@ 20062c30     LIBCMTD:dbgrpt.obj
 0002:00006c44       ??_C@_05CKBG@Error?$AA@    20062c44     LIBCMTD:dbgrpt.obj
 0002:00006c4c       ??_C@_07JCGI@Warning?$AA@  20062c4c     LIBCMTD:dbgrpt.obj
 0002:00006c54       ??_C@_0M@ODEP@?$CFs?$CI?$CFd?$CJ?5?3?5?$CFs?$AA@ 20062c54     LIBCMTD:dbgrpt.obj
 0002:00006c60       ??_C@_01FEHD@?$AN?$AA@     20062c60     LIBCMTD:dbgrpt.obj
 0002:00006c64       ??_C@_0BC@OIMC@Assertion?5failed?$CB?$AA@ 20062c64     LIBCMTD:dbgrpt.obj
 0002:00006c78       ??_C@_0BD@BEAK@Assertion?5failed?3?5?$AA@ 20062c78     LIBCMTD:dbgrpt.obj
 0002:00006c8c       ??_C@_0CL@LCCP@_CrtDbgReport?3?5String?5too?5long?5o@ 20062c8c     LIBCMTD:dbgrpt.obj
 0002:00006cb8       ??_C@_0DC@EMDK@Second?5Chance?5Assertion?5Failed?3?5@ 20062cb8     LIBCMTD:dbgrpt.obj
 0002:00006cec       ??_C@_09NJAK@wsprintfA?$AA@ 20062cec     LIBCMTD:dbgrpt.obj
 0002:00006cf8       ??_C@_0L@HKL@user32?4dll?$AA@ 20062cf8     LIBCMTD:dbgrpt.obj
 0002:00006d04       ??_C@_0CD@GCMD@Microsoft?5Visual?5C?$CL?$CL?5Debug?5Libra@ 20062d04     LIBCMTD:dbgrpt.obj
 0002:00006d28       ??_C@_0FD@EBDD@Debug?5?$CFs?$CB?6?6Program?3?5?$CFs?$CFs?$CFs?$CFs?$CFs?$CFs@ 20062d28     LIBCMTD:dbgrpt.obj
 0002:00006d7c       ??_C@_09DCKN@?6Module?3?5?$AA@ 20062d7c     LIBCMTD:dbgrpt.obj
 0002:00006d88       ??_C@_07HJII@?6File?3?5?$AA@ 20062d88     LIBCMTD:dbgrpt.obj
 0002:00006d90       ??_C@_07LFGN@?6Line?3?5?$AA@ 20062d90     LIBCMTD:dbgrpt.obj
 0002:00006d98       ??_C@_02JJJH@?6?6?$AA@     20062d98     LIBCMTD:dbgrpt.obj
 0002:00006d9c       ??_C@_0N@NOAB@Expression?3?5?$AA@ 20062d9c     LIBCMTD:dbgrpt.obj
 0002:00006dac       ??_C@_0HD@BHFH@?6?6For?5information?5on?5how?5your?5pr@ 20062dac     LIBCMTD:dbgrpt.obj
 0002:00006e20       ??_C@_03NAME@?4?4?4?$AA@   20062e20     LIBCMTD:dbgrpt.obj
 0002:00006e24       ??_C@_0BH@NNCD@?$DMprogram?5name?5unknown?$DO?$AA@ 20062e24     LIBCMTD:dbgrpt.obj
 0002:00006e3c       ??_C@_08GFHP@dbgrpt?4c?$AA@ 20062e3c     LIBCMTD:dbgrpt.obj
 0002:00006e48       ??_C@_0BG@FBEA@szUserMessage?5?$CB?$DN?5NULL?$AA@ 20062e48     LIBCMTD:dbgrpt.obj
 0002:00006e60       ??_C@_03GAFO@_yn?$AA@      20062e60     LIBCMTD:fpexcept.obj
 0002:00006e64       ??_C@_03GNLD@_y1?$AA@      20062e64     LIBCMTD:fpexcept.obj
 0002:00006e68       ??_C@_03MHCE@_y0?$AA@      20062e68     LIBCMTD:fpexcept.obj
 0002:00006e6c       ??_C@_05PAK@frexp?$AA@     20062e6c     LIBCMTD:fpexcept.obj
 0002:00006e74       ??_C@_04JKCH@fmod?$AA@     20062e74     LIBCMTD:fpexcept.obj
 0002:00006e7c       ??_C@_06GGHF@_hypot?$AA@   20062e7c     LIBCMTD:fpexcept.obj
 0002:00006e84       ??_C@_05JNMC@_cabs?$AA@    20062e84     LIBCMTD:fpexcept.obj
 0002:00006e8c       ??_C@_05MEKH@ldexp?$AA@    20062e8c     LIBCMTD:fpexcept.obj
 0002:00006e94       ??_C@_04KAOJ@modf?$AA@     20062e94     LIBCMTD:fpexcept.obj
 0002:00006e9c       ??_C@_04EHAJ@fabs?$AA@     20062e9c     LIBCMTD:fpexcept.obj
 0002:00006ea4       ??_C@_05MFBN@floor?$AA@    20062ea4     LIBCMTD:fpexcept.obj
 0002:00006eac       ??_C@_04JJMP@ceil?$AA@     20062eac     LIBCMTD:fpexcept.obj
 0002:00006eb4       ??_C@_03JLPI@tan?$AA@      20062eb4     LIBCMTD:fpexcept.obj
 0002:00006eb8       ??_C@_03DLFL@cos?$AA@      20062eb8     LIBCMTD:fpexcept.obj
 0002:00006ebc       ??_C@_03JAMN@sin?$AA@      20062ebc     LIBCMTD:fpexcept.obj
 0002:00006ec0       ??_C@_04LMBE@sqrt?$AA@     20062ec0     LIBCMTD:fpexcept.obj
 0002:00006ec8       ??_C@_05BFPO@atan2?$AA@    20062ec8     LIBCMTD:fpexcept.obj
 0002:00006ed0       ??_C@_04EAGN@atan?$AA@     20062ed0     LIBCMTD:fpexcept.obj
 0002:00006ed8       ??_C@_04OAMO@acos?$AA@     20062ed8     LIBCMTD:fpexcept.obj
 0002:00006ee0       ??_C@_04ELFI@asin?$AA@     20062ee0     LIBCMTD:fpexcept.obj
 0002:00006ee8       ??_C@_04LFAD@tanh?$AA@     20062ee8     LIBCMTD:fpexcept.obj
 0002:00006ef0       ??_C@_04PFKD@cosh?$AA@     20062ef0     LIBCMTD:fpexcept.obj
 0002:00006ef8       ??_C@_04NPAI@sinh?$AA@     20062ef8     LIBCMTD:fpexcept.obj
 0002:00006f00       ??_C@_05IJHH@log10?$AA@    20062f00     LIBCMTD:fpexcept.obj
 0002:00006f08       ??_C@_03BGKD@log?$AA@      20062f08     LIBCMTD:fpexcept.obj
 0002:00006f0c       ??_C@_03EGFG@pow?$AA@      20062f0c     LIBCMTD:fpexcept.obj
 0002:00006f10       ??_C@_03CDGJ@exp?$AA@      20062f10     LIBCMTD:fpexcept.obj
 0002:00006f28       __DEFAULT_CW_in_mem        20062f28     LIBCMTD:common.obj
 0002:00006f2a       __pi_by_2_to_61            20062f2a     LIBCMTD:common.obj
 0002:00006f64       ??_C@_07PDLA@mlock?4c?$AA@ 20062f64     LIBCMTD:mlock.obj
 0002:00006f6c       ___dnames                  20062f6c     LIBCMTD:timeset.obj
 0002:00006f84       ___mnames                  20062f84     LIBCMTD:timeset.obj
 0002:00006fac       ??_C@_07DEKI@tzset?4c?$AA@ 20062fac     LIBCMTD:tzset.obj
 0002:00006fb4       ??_C@_02JHIA@TZ?$AA@       20062fb4     LIBCMTD:tzset.obj
 0002:00006fb8       ??_C@_08LLGM@gmtime?4c?$AA@ 20062fb8     LIBCMTD:gmtime.obj
 0002:00006fc4       ??_C@_07HPAH@_file?4c?$AA@ 20062fc4     LIBCMTD:_file.obj
 0002:00006fcc       ??_C@_09DNOI@_filbuf?4c?$AA@ 20062fcc     LIBCMTD:_filbuf.obj
 0002:00006fd8       ??_C@_0L@JIE@_freebuf?4c?$AA@ 20062fd8     LIBCMTD:_freebuf.obj
 0002:00006fe4       ??_C@_07INLA@_open?4c?$AA@ 20062fe4     LIBCMTD:_open.obj
 0002:00006fec       ??_C@_0BB@COCE@filename?5?$CB?$DN?5NULL?$AA@ 20062fec     LIBCMTD:_open.obj
 0002:00007000       ??_C@_08HJEP@stream?4c?$AA@ 20063000     LIBCMTD:stream.obj
 0002:0000700c       ??_C@_07IEFA@input?4c?$AA@ 2006300c     LIBCMTD:input.obj
 0002:00007014       ??_C@_09JNND@_sftbuf?4c?$AA@ 20063014     LIBCMTD:_sftbuf.obj
 0002:00007020       ??_C@_0BH@EOPG@flag?5?$DN?$DN?50?5?$HM?$HM?5flag?5?$DN?$DN?51?$AA@ 20063020     LIBCMTD:_sftbuf.obj
 0002:00007070       ??_C@_07PCLE@LC_TIME?$AA@  20063070     LIBCMTD:setlocal.obj
 0002:00007078       ??_C@_0L@NKG@LC_NUMERIC?$AA@ 20063078     LIBCMTD:setlocal.obj
 0002:00007084       ??_C@_0M@CBIH@LC_MONETARY?$AA@ 20063084     LIBCMTD:setlocal.obj
 0002:00007090       ??_C@_08LFGE@LC_CTYPE?$AA@ 20063090     LIBCMTD:setlocal.obj
 0002:0000709c       ??_C@_0L@CFLC@LC_COLLATE?$AA@ 2006309c     LIBCMTD:setlocal.obj
 0002:000070a8       ??_C@_06GCPK@LC_ALL?$AA@   200630a8     LIBCMTD:setlocal.obj
 0002:000070b0       ??_C@_02BGDO@?$DN?$DL?$AA@ 200630b0     LIBCMTD:setlocal.obj
 0002:000070b4       ??_C@_0L@MOEE@setlocal?4c?$AA@ 200630b4     LIBCMTD:setlocal.obj
 0002:000070c0       ??_C@_01KPOD@?$DN?$AA@     200630c0     LIBCMTD:setlocal.obj
 0002:000070c4       ??_C@_03DBOJ@_?4?0?$AA@    200630c4     LIBCMTD:setlocal.obj
 0002:000070c8       ??_C@_01PJCK@?4?$AA@       200630c8     LIBCMTD:setlocal.obj
 0002:000070cc       ??_C@_01NON@_?$AA@         200630cc     LIBCMTD:setlocal.obj
 0002:000070d0       ??_C@_08KFDJ@ioinit?4c?$AA@ 200630d0     LIBCMTD:ioinit.obj
 0002:000070dc       ??_C@_09IGKD@stdenvp?4c?$AA@ 200630dc     LIBCMTD:stdenvp.obj
 0002:000070e8       ??_C@_09MPMN@stdargv?4c?$AA@ 200630e8     LIBCMTD:stdargv.obj
 0002:000070f4       ??_C@_07BNNE@a_env?4c?$AA@ 200630f4     LIBCMTD:a_env.obj
 0002:000070fc       ??_C@_0P@GGKG@runtime?5error?5?$AA@ 200630fc     LIBCMTD:crt0msg.obj
 0002:0000710c       ??_C@_02PIMC@?$AN?6?$AA@   2006310c     LIBCMTD:crt0msg.obj
 0002:00007110       ??_C@_0O@DELO@TLOSS?5error?$AN?6?$AA@ 20063110     LIBCMTD:crt0msg.obj
 0002:00007120       ??_C@_0N@OMLL@SING?5error?$AN?6?$AA@ 20063120     LIBCMTD:crt0msg.obj
 0002:00007130       ??_C@_0P@OJAK@DOMAIN?5error?$AN?6?$AA@ 20063130     LIBCMTD:crt0msg.obj
 0002:00007140       ??_C@_0CF@EANP@R6028?$AN?6?9?5unable?5to?5initialize?5he@ 20063140     LIBCMTD:crt0msg.obj
 0002:00007168       ??_C@_0DF@ECGN@R6027?$AN?6?9?5not?5enough?5space?5for?5lo@ 20063168     LIBCMTD:crt0msg.obj
 0002:000071a0       ??_C@_0DF@FKAC@R6026?$AN?6?9?5not?5enough?5space?5for?5st@ 200631a0     LIBCMTD:crt0msg.obj
 0002:000071d8       ??_C@_0CG@DPMN@R6025?$AN?6?9?5pure?5virtual?5function?5c@ 200631d8     LIBCMTD:crt0msg.obj
 0002:00007200       ??_C@_0DF@CKIP@R6024?$AN?6?9?5not?5enough?5space?5for?5_o@ 20063200     LIBCMTD:crt0msg.obj
 0002:00007238       ??_C@_0CJ@GGOE@R6019?$AN?6?9?5unable?5to?5open?5console?5@ 20063238     LIBCMTD:crt0msg.obj
 0002:00007264       ??_C@_0CB@LBOB@R6018?$AN?6?9?5unexpected?5heap?5error?$AN?6@ 20063264     LIBCMTD:crt0msg.obj
 0002:00007288       ??_C@_0CN@FPEG@R6017?$AN?6?9?5unexpected?5multithread?5@ 20063288     LIBCMTD:crt0msg.obj
 0002:000072b8       ??_C@_0CM@OBIC@R6016?$AN?6?9?5not?5enough?5space?5for?5th@ 200632b8     LIBCMTD:crt0msg.obj
 0002:000072e4       ??_C@_0CB@HPAL@?$AN?6abnormal?5program?5termination?$AN?6@ 200632e4     LIBCMTD:crt0msg.obj
 0002:00007308       ??_C@_0CM@JOOB@R6009?$AN?6?9?5not?5enough?5space?5for?5en@ 20063308     LIBCMTD:crt0msg.obj
 0002:00007334       ??_C@_0CK@OIBL@R6008?$AN?6?9?5not?5enough?5space?5for?5ar@ 20063334     LIBCMTD:crt0msg.obj
 0002:00007360       ??_C@_0CF@LKPB@R6002?$AN?6?9?5floating?5point?5not?5load@ 20063360     LIBCMTD:crt0msg.obj
 0002:00007388       ??_C@_0CF@JPDF@Microsoft?5Visual?5C?$CL?$CL?5Runtime?5Lib@ 20063388     LIBCMTD:crt0msg.obj
 0002:000073b0       ??_C@_0BK@DEOK@Runtime?5Error?$CB?6?6Program?3?5?$AA@ 200633b0     LIBCMTD:crt0msg.obj
 0002:000073cc       ??_C@_01A@?$AA?$AA@        200633cc     LIBCMTD:a_str.obj
 0002:000073d0       ??_C@_13A@?$AA?$AA?$AA?$AA@ 200633d0     LIBCMTD:a_str.obj
 0002:000073e4       ??_C@_09EMDO@_getbuf?4c?$AA@ 200633e4     LIBCMTD:_getbuf.obj
 0002:000073f0       ??_C@_08CNMA@winsig?4c?$AA@ 200633f0     LIBCMTD:winsig.obj
 0002:000073fc       ??_C@_0BD@NJFP@GetLastActivePopup?$AA@ 200633fc     LIBCMTD:crtmbox.obj
 0002:00007410       ??_C@_0BA@GILI@GetActiveWindow?$AA@ 20063410     LIBCMTD:crtmbox.obj
 0002:00007420       ??_C@_0M@PKCK@MessageBoxA?$AA@ 20063420     LIBCMTD:crtmbox.obj
 0002:0000742c       ??_C@_09LNLM@osfinfo?4c?$AA@ 2006342c     LIBCMTD:osfinfo.obj
 0002:00007438       ??_C@_08MOLN@mbtowc?4c?$AA@ 20063438     LIBCMTD:mbtowc.obj
 0002:00007444       ??_C@_0CD@NPPL@MB_CUR_MAX?5?$DN?$DN?51?5?$HM?$HM?5MB_CUR_MAX?5?$DN?$DN@ 20063444     LIBCMTD:mbtowc.obj
 0002:00007468       ??_C@_08JKP@ungetc?4c?$AA@ 20063468     LIBCMTD:ungetc.obj
 0002:00007474       ??_C@_0L@EEGJ@inittime?4c?$AA@ 20063474     LIBCMTD:inittime.obj
 0002:00007480       ??_C@_09IMJJ@initnum?4c?$AA@ 20063480     LIBCMTD:initnum.obj
 0002:0000748c       ??_C@_09KPNI@initmon?4c?$AA@ 2006348c     LIBCMTD:initmon.obj
 0002:00007498       ??_C@_0L@COIL@initctyp?4c?$AA@ 20063498     LIBCMTD:initctyp.obj
 0002:000074a4       ??_C@_08OBJD@Paraguay?$AA@ 200634a4     LIBCMTD:getqloc.obj
 0002:000074b0       ??_C@_07GLKH@Uruguay?$AA@  200634b0     LIBCMTD:getqloc.obj
 0002:000074b8       ??_C@_05FPFC@Chile?$AA@    200634b8     LIBCMTD:getqloc.obj
 0002:000074c0       ??_C@_07IIGF@Ecuador?$AA@  200634c0     LIBCMTD:getqloc.obj
 0002:000074c8       ??_C@_09PKAL@Argentina?$AA@ 200634c8     LIBCMTD:getqloc.obj
 0002:000074d4       ??_C@_04LKAH@Peru?$AA@     200634d4     LIBCMTD:getqloc.obj
 0002:000074dc       ??_C@_08NEEM@Colombia?$AA@ 200634dc     LIBCMTD:getqloc.obj
 0002:000074e8       ??_C@_09ODEB@Venezuela?$AA@ 200634e8     LIBCMTD:getqloc.obj
 0002:000074f4       ??_C@_0BD@CLEL@Dominican?5Republic?$AA@ 200634f4     LIBCMTD:getqloc.obj
 0002:00007508       ??_C@_0N@MDGL@South?5Africa?$AA@ 20063508     LIBCMTD:getqloc.obj
 0002:00007518       ??_C@_06NKBG@Panama?$AA@   20063518     LIBCMTD:getqloc.obj
 0002:00007520       ??_C@_0L@BMHO@Luxembourg?$AA@ 20063520     LIBCMTD:getqloc.obj
 0002:0000752c       ??_C@_0L@IMDK@Costa?5Rica?$AA@ 2006352c     LIBCMTD:getqloc.obj
 0002:00007538       ??_C@_0M@BLJF@Switzerland?$AA@ 20063538     LIBCMTD:getqloc.obj
 0002:00007544       ??_C@_09KBOL@Guatemala?$AA@ 20063544     LIBCMTD:getqloc.obj
 0002:00007550       ??_C@_06JNAK@Canada?$AA@   20063550     LIBCMTD:getqloc.obj
 0002:00007558       ??_C@_0BG@OLLP@Spanish?5?9?5Modern?5Sort?$AA@ 20063558     LIBCMTD:getqloc.obj
 0002:00007570       ??_C@_09IDKE@Australia?$AA@ 20063570     LIBCMTD:getqloc.obj
 0002:0000757c       ??_C@_07JJJJ@English?$AA@  2006357c     LIBCMTD:getqloc.obj
 0002:00007584       ??_C@_07NMDO@Austria?$AA@  20063584     LIBCMTD:getqloc.obj
 0002:0000758c       ??_C@_06DEFE@German?$AA@   2006358c     LIBCMTD:getqloc.obj
 0002:00007594       ??_C@_07JAIH@Belgium?$AA@  20063594     LIBCMTD:getqloc.obj
 0002:0000759c       ??_C@_06BNLJ@Mexico?$AA@   2006359c     LIBCMTD:getqloc.obj
 0002:000075a4       ??_C@_07JHAG@Spanish?$AA@  200635a4     LIBCMTD:getqloc.obj
 0002:000075ac       ??_C@_06DADE@Basque?$AA@   200635ac     LIBCMTD:getqloc.obj
 0002:000075b4       ??_C@_06ENFP@Sweden?$AA@   200635b4     LIBCMTD:getqloc.obj
 0002:000075bc       ??_C@_07JPMH@Swedish?$AA@  200635bc     LIBCMTD:getqloc.obj
 0002:000075c4       ??_C@_07IEKF@Iceland?$AA@  200635c4     LIBCMTD:getqloc.obj
 0002:000075cc       ??_C@_09KNEA@Icelandic?$AA@ 200635cc     LIBCMTD:getqloc.obj
 0002:000075d8       ??_C@_06IJOD@France?$AA@   200635d8     LIBCMTD:getqloc.obj
 0002:000075e0       ??_C@_06EINI@French?$AA@   200635e0     LIBCMTD:getqloc.obj
 0002:000075e8       ??_C@_07FOOE@Finland?$AA@  200635e8     LIBCMTD:getqloc.obj
 0002:000075f0       ??_C@_07OJOM@Finnish?$AA@  200635f0     LIBCMTD:getqloc.obj
 0002:000075f8       ??_C@_05FFAC@Spain?$AA@    200635f8     LIBCMTD:getqloc.obj
 0002:00007600       ??_C@_0BL@BIHM@Spanish?5?9?5Traditional?5Sort?$AA@ 20063600     LIBCMTD:getqloc.obj
 0002:0000761c       ??_C@_0O@GLHB@united?9states?$AA@ 2006361c     LIBCMTD:getqloc.obj
 0002:0000762c       ??_C@_0P@IIKK@united?9kingdom?$AA@ 2006362c     LIBCMTD:getqloc.obj
 0002:0000763c       ??_C@_0BC@FHBO@trinidad?5?$CG?5tobago?$AA@ 2006363c     LIBCMTD:getqloc.obj
 0002:00007650       ??_C@_0M@BDFM@south?9korea?$AA@ 20063650     LIBCMTD:getqloc.obj
 0002:0000765c       ??_C@_0N@CKFA@south?9africa?$AA@ 2006365c     LIBCMTD:getqloc.obj
 0002:0000766c       ??_C@_0M@HNHN@south?5korea?$AA@ 2006366c     LIBCMTD:getqloc.obj
 0002:00007678       ??_C@_0N@MKDO@south?5africa?$AA@ 20063678     LIBCMTD:getqloc.obj
 0002:00007688       ??_C@_06KFFJ@slovak?$AA@   20063688     LIBCMTD:getqloc.obj
 0002:00007690       ??_C@_0M@NMAC@puerto?9rico?$AA@ 20063690     LIBCMTD:getqloc.obj
 0002:0000769c       ??_C@_08EJOH@pr?9china?$AA@ 2006369c     LIBCMTD:getqloc.obj
 0002:000076a8       ??_C@_08CHMG@pr?5china?$AA@ 200636a8     LIBCMTD:getqloc.obj
 0002:000076b4       ??_C@_02OCJK@nz?$AA@       200636b4     LIBCMTD:getqloc.obj
 0002:000076b8       ??_C@_0M@MMKA@new?9zealand?$AA@ 200636b8     LIBCMTD:getqloc.obj
 0002:000076c4       ??_C@_09MGEH@hong?9kong?$AA@ 200636c4     LIBCMTD:getqloc.obj
 0002:000076d0       ??_C@_07CCAK@holland?$AA@  200636d0     LIBCMTD:getqloc.obj
 0002:000076d8       ??_C@_0O@MEPL@great?5britain?$AA@ 200636d8     LIBCMTD:getqloc.obj
 0002:000076e8       ??_C@_07LGIB@england?$AA@  200636e8     LIBCMTD:getqloc.obj
 0002:000076f0       ??_C@_05BMOA@czech?$AA@    200636f0     LIBCMTD:getqloc.obj
 0002:000076f8       ??_C@_05NMPB@china?$AA@    200636f8     LIBCMTD:getqloc.obj
 0002:00007700       ??_C@_07GN@britain?$AA@    20063700     LIBCMTD:getqloc.obj
 0002:00007708       ??_C@_07DLAK@america?$AA@  20063708     LIBCMTD:getqloc.obj
 0002:00007710       ??_C@_03IPEP@usa?$AA@      20063710     LIBCMTD:getqloc.obj
 0002:00007714       ??_C@_02PILH@us?$AA@       20063714     LIBCMTD:getqloc.obj
 0002:00007718       ??_C@_02FHP@uk?$AA@        20063718     LIBCMTD:getqloc.obj
 0002:0000771c       ??_C@_05DEAI@swiss?$AA@    2006371c     LIBCMTD:getqloc.obj
 0002:00007724       ??_C@_0BA@LIAF@swedish?9finland?$AA@ 20063724     LIBCMTD:getqloc.obj
 0002:00007734       ??_C@_0BC@FMEG@spanish?9venezuela?$AA@ 20063734     LIBCMTD:getqloc.obj
 0002:00007748       ??_C@_0BA@BNMG@spanish?9uruguay?$AA@ 20063748     LIBCMTD:getqloc.obj
 0002:00007758       ??_C@_0BE@BKDJ@spanish?9puerto?5rico?$AA@ 20063758     LIBCMTD:getqloc.obj
 0002:0000776c       ??_C@_0N@JIBL@spanish?9peru?$AA@ 2006376c     LIBCMTD:getqloc.obj
 0002:0000777c       ??_C@_0BB@OGOF@spanish?9paraguay?$AA@ 2006377c     LIBCMTD:getqloc.obj
 0002:00007790       ??_C@_0P@LLFA@spanish?9panama?$AA@ 20063790     LIBCMTD:getqloc.obj
 0002:000077a0       ??_C@_0BC@BBJM@spanish?9nicaragua?$AA@ 200637a0     LIBCMTD:getqloc.obj
 0002:000077b4       ??_C@_0P@NJBN@spanish?9modern?$AA@ 200637b4     LIBCMTD:getqloc.obj
 0002:000077c4       ??_C@_0BA@NHDN@spanish?9mexican?$AA@ 200637c4     LIBCMTD:getqloc.obj
 0002:000077d4       ??_C@_0BB@JHOJ@spanish?9honduras?$AA@ 200637d4     LIBCMTD:getqloc.obj
 0002:000077e8       ??_C@_0BC@BOOM@spanish?9guatemala?$AA@ 200637e8     LIBCMTD:getqloc.obj
 0002:000077fc       ??_C@_0BE@EELI@spanish?9el?5salvador?$AA@ 200637fc     LIBCMTD:getqloc.obj
 0002:00007810       ??_C@_0BA@POAE@spanish?9ecuador?$AA@ 20063810     LIBCMTD:getqloc.obj
 0002:00007820       ??_C@_0BL@LDKN@spanish?9dominican?5republic?$AA@ 20063820     LIBCMTD:getqloc.obj
 0002:0000783c       ??_C@_0BD@HPMH@spanish?9costa?5rica?$AA@ 2006383c     LIBCMTD:getqloc.obj
 0002:00007850       ??_C@_0BB@NDDK@spanish?9colombia?$AA@ 20063850     LIBCMTD:getqloc.obj
 0002:00007864       ??_C@_0O@BJHA@spanish?9chile?$AA@ 20063864     LIBCMTD:getqloc.obj
 0002:00007874       ??_C@_0BA@OBNG@spanish?9bolivia?$AA@ 20063874     LIBCMTD:getqloc.obj
 0002:00007884       ??_C@_0BC@EFAM@spanish?9argentina?$AA@ 20063884     LIBCMTD:getqloc.obj
 0002:00007898       ??_C@_0BF@KMMM@portuguese?9brazilian?$AA@ 20063898     LIBCMTD:getqloc.obj
 0002:000078b0       ??_C@_0BC@BAAE@norwegian?9nynorsk?$AA@ 200638b0     LIBCMTD:getqloc.obj
 0002:000078c4       ??_C@_0BB@PBHK@norwegian?9bokmal?$AA@ 200638c4     LIBCMTD:getqloc.obj
 0002:000078d8       ??_C@_09EHKL@norwegian?$AA@ 200638d8     LIBCMTD:getqloc.obj
 0002:000078e4       ??_C@_0O@BEAN@italian?9swiss?$AA@ 200638e4     LIBCMTD:getqloc.obj
 0002:000078f4       ??_C@_0O@OIFK@irish?9english?$AA@ 200638f4     LIBCMTD:getqloc.obj
 0002:00007904       ??_C@_0N@NBPL@german?9swiss?$AA@ 20063904     LIBCMTD:getqloc.obj
 0002:00007914       ??_C@_0BC@ICFJ@german?9luxembourg?$AA@ 20063914     LIBCMTD:getqloc.obj
 0002:00007928       ??_C@_0BE@GGPC@german?9lichtenstein?$AA@ 20063928     LIBCMTD:getqloc.obj
 0002:0000793c       ??_C@_0BA@MKDC@german?9austrian?$AA@ 2006393c     LIBCMTD:getqloc.obj
 0002:0000794c       ??_C@_0N@ODNB@french?9swiss?$AA@ 2006394c     LIBCMTD:getqloc.obj
 0002:0000795c       ??_C@_0BC@MGCM@french?9luxembourg?$AA@ 2006395c     LIBCMTD:getqloc.obj
 0002:00007970       ??_C@_0BA@NABK@french?9canadian?$AA@ 20063970     LIBCMTD:getqloc.obj
 0002:00007980       ??_C@_0P@CJNO@french?9belgian?$AA@ 20063980     LIBCMTD:getqloc.obj
 0002:00007990       ??_C@_0M@LJOL@english?9usa?$AA@ 20063990     LIBCMTD:getqloc.obj
 0002:0000799c       ??_C@_0L@FMNC@english?9us?$AA@ 2006399c     LIBCMTD:getqloc.obj
 0002:000079a8       ??_C@_0L@KBBK@english?9uk?$AA@ 200639a8     LIBCMTD:getqloc.obj
 0002:000079b4       ??_C@_0BK@NDDE@english?9trinidad?5y?5tobago?$AA@ 200639b4     LIBCMTD:getqloc.obj
 0002:000079d0       ??_C@_0BF@LKML@english?9south?5africa?$AA@ 200639d0     LIBCMTD:getqloc.obj
 0002:000079e8       ??_C@_0L@EGPP@english?9nz?$AA@ 200639e8     LIBCMTD:getqloc.obj
 0002:000079f4       ??_C@_0BA@HLH@english?9jamaica?$AA@ 200639f4     LIBCMTD:getqloc.obj
 0002:00007a04       ??_C@_0M@PMJI@english?9ire?$AA@ 20063a04     LIBCMTD:getqloc.obj
 0002:00007a10       ??_C@_0BC@HINE@english?9caribbean?$AA@ 20063a10     LIBCMTD:getqloc.obj
 0002:00007a24       ??_C@_0M@DCFH@english?9can?$AA@ 20063a24     LIBCMTD:getqloc.obj
 0002:00007a30       ??_C@_0P@DGHK@english?9belize?$AA@ 20063a30     LIBCMTD:getqloc.obj
 0002:00007a40       ??_C@_0M@FLHK@english?9aus?$AA@ 20063a40     LIBCMTD:getqloc.obj
 0002:00007a4c       ??_C@_0BB@HNCK@english?9american?$AA@ 20063a4c     LIBCMTD:getqloc.obj
 0002:00007a60       ??_C@_0O@PAMI@dutch?9belgian?$AA@ 20063a60     LIBCMTD:getqloc.obj
 0002:00007a70       ??_C@_0BE@FPEJ@chinese?9traditional?$AA@ 20063a70     LIBCMTD:getqloc.obj
 0002:00007a84       ??_C@_0BC@CHFL@chinese?9singapore?$AA@ 20063a84     LIBCMTD:getqloc.obj
 0002:00007a98       ??_C@_0BD@DCMH@chinese?9simplified?$AA@ 20063a98     LIBCMTD:getqloc.obj
 0002:00007aac       ??_C@_0BB@JMOE@chinese?9hongkong?$AA@ 20063aac     LIBCMTD:getqloc.obj
 0002:00007ac0       ??_C@_07NGFN@chinese?$AA@  20063ac0     LIBCMTD:getqloc.obj
 0002:00007ac8       ??_C@_03PCOI@chi?$AA@      20063ac8     LIBCMTD:getqloc.obj
 0002:00007acc       ??_C@_03FIHP@chh?$AA@      20063acc     LIBCMTD:getqloc.obj
 0002:00007ad0       ??_C@_08HFLO@canadian?$AA@ 20063ad0     LIBCMTD:getqloc.obj
 0002:00007adc       ??_C@_07INIJ@belgian?$AA@  20063adc     LIBCMTD:getqloc.obj
 0002:00007ae4       ??_C@_0L@LCCA@australian?$AA@ 20063ae4     LIBCMTD:getqloc.obj
 0002:00007af0       ??_C@_0BB@BJIO@american?9english?$AA@ 20063af0     LIBCMTD:getqloc.obj
 0002:00007b04       ??_C@_0BB@DAGO@american?5english?$AA@ 20063b04     LIBCMTD:getqloc.obj
 0002:00007b18       ??_C@_08HENB@american?$AA@ 20063b18     LIBCMTD:getqloc.obj
 0002:00007b24       ??_C@_03DGJE@OCP?$AA@      20063b24     LIBCMTD:getqloc.obj
 0002:00007b28       ??_C@_03EKFG@ACP?$AA@      20063b28     LIBCMTD:getqloc.obj
 0002:00007b48       ??_C@_06PAPI@1?$CDQNAN?$AA@ 20063b48     LIBCMTD:x10fout.obj
 0002:00007b50       ??_C@_05BGNL@1?$CDINF?$AA@ 20063b50     LIBCMTD:x10fout.obj
 0002:00007b58       ??_C@_05EDPF@1?$CDIND?$AA@ 20063b58     LIBCMTD:x10fout.obj
 0002:00007b60       ??_C@_06LKFM@1?$CDSNAN?$AA@ 20063b60     LIBCMTD:x10fout.obj
 0002:00007b68       ??_C@_0L@EJNO@wtombenv?4c?$AA@ 20063b68     LIBCMTD:wtombenv.obj
 0002:00007b74       ??_C@_08EIOK@chsize?4c?$AA@ 20063b74     LIBCMTD:chsize.obj
 0002:00007b80       ??_C@_09NPGF@size?5?$DO?$DN?50?$AA@ 20063b80     LIBCMTD:chsize.obj
 0002:00007b8c       ??_C@_07CJME@H?3mm?3ss?$AA@ 20063b8c     LIBCMTD:strftime.obj
 0002:00007b94       ??_C@_0BE@MHI@dddd?0?5MMMM?5dd?0?5yyyy?$AA@ 20063b94     LIBCMTD:strftime.obj
 0002:00007ba8       ??_C@_06HCAD@M?1d?1yy?$AA@ 20063ba8     LIBCMTD:strftime.obj
 0002:00007bb0       ??_C@_02DBLP@PM?$AA@       20063bb0     LIBCMTD:strftime.obj
 0002:00007bb4       ??_C@_02ENLM@AM?$AA@       20063bb4     LIBCMTD:strftime.obj
 0002:00007bb8       ??_C@_08LIDF@December?$AA@ 20063bb8     LIBCMTD:strftime.obj
 0002:00007bc4       ??_C@_08NJLI@November?$AA@ 20063bc4     LIBCMTD:strftime.obj
 0002:00007bd0       ??_C@_07IAMM@October?$AA@  20063bd0     LIBCMTD:strftime.obj
 0002:00007bd8       ??_C@_09MKGD@September?$AA@ 20063bd8     LIBCMTD:strftime.obj
 0002:00007be4       ??_C@_06PADP@August?$AA@   20063be4     LIBCMTD:strftime.obj
 0002:00007bec       ??_C@_04PIJO@July?$AA@     20063bec     LIBCMTD:strftime.obj
 0002:00007bf4       ??_C@_04ICFP@June?$AA@     20063bf4     LIBCMTD:strftime.obj
 0002:00007bfc       ??_C@_05JFGC@April?$AA@    20063bfc     LIBCMTD:strftime.obj
 0002:00007c04       ??_C@_05FGPD@March?$AA@    20063c04     LIBCMTD:strftime.obj
 0002:00007c0c       ??_C@_08PGBA@February?$AA@ 20063c0c     LIBCMTD:strftime.obj
 0002:00007c18       ??_C@_07BPKJ@January?$AA@  20063c18     LIBCMTD:strftime.obj
 0002:00007c20       ??_C@_03PGJO@Dec?$AA@      20063c20     LIBCMTD:strftime.obj
 0002:00007c24       ??_C@_03PDLM@Nov?$AA@      20063c24     LIBCMTD:strftime.obj
 0002:00007c28       ??_C@_03BLHK@Oct?$AA@      20063c28     LIBCMTD:strftime.obj
 0002:00007c2c       ??_C@_03DPFM@Sep?$AA@      20063c2c     LIBCMTD:strftime.obj
 0002:00007c30       ??_C@_03CMCH@Aug?$AA@      20063c30     LIBCMTD:strftime.obj
 0002:00007c34       ??_C@_03OBKI@Jul?$AA@      20063c34     LIBCMTD:strftime.obj
 0002:00007c38       ??_C@_03LEIG@Jun?$AA@      20063c38     LIBCMTD:strftime.obj
 0002:00007c3c       ??_C@_03MGHB@May?$AA@      20063c3c     LIBCMTD:strftime.obj
 0002:00007c40       ??_C@_03MJJM@Apr?$AA@      20063c40     LIBCMTD:strftime.obj
 0002:00007c44       ??_C@_03GNHA@Mar?$AA@      20063c44     LIBCMTD:strftime.obj
 0002:00007c48       ??_C@_03PICE@Feb?$AA@      20063c48     LIBCMTD:strftime.obj
 0002:00007c4c       ??_C@_03IEIF@Jan?$AA@      20063c4c     LIBCMTD:strftime.obj
 0002:00007c50       ??_C@_08FAKH@Saturday?$AA@ 20063c50     LIBCMTD:strftime.obj
 0002:00007c5c       ??_C@_06ONCK@Friday?$AA@   20063c5c     LIBCMTD:strftime.obj
 0002:00007c64       ??_C@_08CCFO@Thursday?$AA@ 20063c64     LIBCMTD:strftime.obj
 0002:00007c70       ??_C@_09PBIN@Wednesday?$AA@ 20063c70     LIBCMTD:strftime.obj
 0002:00007c7c       ??_C@_07BMBC@Tuesday?$AA@  20063c7c     LIBCMTD:strftime.obj
 0002:00007c84       ??_C@_06CHLK@Monday?$AA@   20063c84     LIBCMTD:strftime.obj
 0002:00007c8c       ??_C@_06OOEM@Sunday?$AA@   20063c8c     LIBCMTD:strftime.obj
 0002:00007c94       ??_C@_03MPKK@Sat?$AA@      20063c94     LIBCMTD:strftime.obj
 0002:00007c98       ??_C@_03FINJ@Fri?$AA@      20063c98     LIBCMTD:strftime.obj
 0002:00007c9c       ??_C@_03HIKC@Thu?$AA@      20063c9c     LIBCMTD:strftime.obj
 0002:00007ca0       ??_C@_03HECK@Wed?$AA@      20063ca0     LIBCMTD:strftime.obj
 0002:00007ca4       ??_C@_03ECCP@Tue?$AA@      20063ca4     LIBCMTD:strftime.obj
 0002:00007ca8       ??_C@_03PIEP@Mon?$AA@      20063ca8     LIBCMTD:strftime.obj
 0002:00007cac       ??_C@_03FHEP@Sun?$AA@      20063cac     LIBCMTD:strftime.obj
 0002:00007cb0       ??_C@_03MKGK@a?1p?$AA@     20063cb0     LIBCMTD:strftime.obj
 0002:00007cb4       ??_C@_05BDJK@am?1pm?$AA@   20063cb4     LIBCMTD:strftime.obj
 0002:00007cbc       ??_C@_0L@HKCB@inithelp?4c?$AA@ 20063cbc     LIBCMTD:inithelp.obj
 0002:00007ce0       ??_C@_07FOIK@a_cmp?4c?$AA@ 20063ce0     LIBCMTD:a_cmp.obj
 0002:00007ce8       ??_C@_0DN@PPKB@cchCount1?$DN?$DN0?5?$CG?$CG?5cchCount2?$DN?$DN1?5?$HM?$HM?5@ 20063ce8     LIBCMTD:a_cmp.obj
 0002:00007d40       ??_C@_08FEIK@setenv?4c?$AA@ 20063d40     LIBCMTD:setenv.obj
 0002:00007d6c       __IMPORT_DESCRIPTOR_KERNEL32 20063d6c     kernel32:KERNEL32.dll
 0002:00007d80       __NULL_IMPORT_DESCRIPTOR   20063d80     kernel32:KERNEL32.dll
 0003:00000000       ___xc_a                    20065000     LIBCMTD:crt0init.obj
 0003:00000004       ___xc_z                    20065004     LIBCMTD:crt0init.obj
 0003:00000008       ___xi_a                    20065008     LIBCMTD:crt0init.obj
 0003:00000014       ___xi_z                    20065014     LIBCMTD:crt0init.obj
 0003:00000018       ___xp_a                    20065018     LIBCMTD:crt0init.obj
 0003:00000020       ___xp_z                    20065020     LIBCMTD:crt0init.obj
 0003:00000024       ___xt_a                    20065024     LIBCMTD:crt0init.obj
 0003:00000028       ___xt_z                    20065028     LIBCMTD:crt0init.obj
 0003:00000030       _jacketarmor_info          20065030     g_items.obj
 0003:00000048       _combatarmor_info          20065048     g_items.obj
 0003:00000060       _bodyarmor_info            20065060     g_items.obj
 0003:00000078       _itemlist                  20065078     g_items.obj
 0003:00000d40       _fields                    20065d40     g_save.obj
 0003:00001250       _levelfields               20066250     g_save.obj
 0003:000012b0       _clientfields              200662b0     g_save.obj
 0003:000012f0       _spawns                    200662f0     g_spawn.obj
 0003:00001658       _single_statusbar          20066658     g_spawn.obj
 0003:0000165c       _dm_statusbar              2006665c     g_spawn.obj
 0003:00001660       _VEC_UP                    20066660     g_utils.obj
 0003:0000166c       _MOVEDIR_UP                2006666c     g_utils.obj
 0003:00001678       _VEC_DOWN                  20066678     g_utils.obj
 0003:00001684       _MOVEDIR_DOWN              20066684     g_utils.obj
 0003:00001690       _actor_names               20066690     m_actor.obj
 0003:000016b0       _actor_frames_stand        200666b0     m_actor.obj
 0003:00001890       _actor_move_stand          20066890     m_actor.obj
 0003:000018a0       _actor_frames_walk         200668a0     m_actor.obj
 0003:00001928       _actor_move_walk           20066928     m_actor.obj
 0003:00001938       _actor_frames_run          20066938     m_actor.obj
 0003:000019c8       _actor_move_run            200669c8     m_actor.obj
 0003:000019d8       _actor_frames_pain1        200669d8     m_actor.obj
 0003:00001a00       _actor_move_pain1          20066a00     m_actor.obj
 0003:00001a10       _actor_frames_pain2        20066a10     m_actor.obj
 0003:00001a38       _actor_move_pain2          20066a38     m_actor.obj
 0003:00001a48       _actor_frames_pain3        20066a48     m_actor.obj
 0003:00001a70       _actor_move_pain3          20066a70     m_actor.obj
 0003:00001a80       _actor_frames_flipoff      20066a80     m_actor.obj
 0003:00001b28       _actor_move_flipoff        20066b28     m_actor.obj
 0003:00001b38       _actor_frames_taunt        20066b38     m_actor.obj
 0003:00001c08       _actor_move_taunt          20066c08     m_actor.obj
 0003:00001c18       _messages                  20066c18     m_actor.obj
 0003:00001c28       _actor_frames_death1       20066c28     m_actor.obj
 0003:00001c80       _actor_move_death1         20066c80     m_actor.obj
 0003:00001c90       _actor_frames_death2       20066c90     m_actor.obj
 0003:00001d30       _actor_move_death2         20066d30     m_actor.obj
 0003:00001d40       _actor_frames_attack       20066d40     m_actor.obj
 0003:00001d70       _actor_move_attack         20066d70     m_actor.obj
 0003:00001d80       _berserk_frames_stand      20066d80     m_berserk.obj
 0003:00001dc0       _berserk_move_stand        20066dc0     m_berserk.obj
 0003:00001dd0       _berserk_frames_stand_fidget 20066dd0     m_berserk.obj
 0003:00001ec0       _berserk_move_stand_fidget 20066ec0     m_berserk.obj
 0003:00001ed0       _berserk_frames_walk       20066ed0     m_berserk.obj
 0003:00001f60       _berserk_move_walk         20066f60     m_berserk.obj
 0003:00001f70       _berserk_frames_run1       20066f70     m_berserk.obj
 0003:00001fb8       _berserk_move_run1         20066fb8     m_berserk.obj
 0003:00001fd8       _berserk_frames_attack_spike 20066fd8     m_berserk.obj
 0003:00002038       _berserk_move_attack_spike 20067038     m_berserk.obj
 0003:00002048       _berserk_frames_attack_club 20067048     m_berserk.obj
 0003:000020d8       _berserk_move_attack_club  200670d8     m_berserk.obj
 0003:000020e8       _berserk_frames_attack_strike 200670e8     m_berserk.obj
 0003:00002190       _berserk_move_attack_strike 20067190     m_berserk.obj
 0003:000021a0       _berserk_frames_pain1      200671a0     m_berserk.obj
 0003:000021d0       _berserk_move_pain1        200671d0     m_berserk.obj
 0003:000021e0       _berserk_frames_pain2      200671e0     m_berserk.obj
 0003:000022d0       _berserk_move_pain2        200672d0     m_berserk.obj
 0003:000022e0       _berserk_frames_death1     200672e0     m_berserk.obj
 0003:00002380       _berserk_move_death1       20067380     m_berserk.obj
 0003:00002390       _berserk_frames_death2     20067390     m_berserk.obj
 0003:000023f0       _berserk_move_death2       200673f0     m_berserk.obj
 0003:00002400       _boss2_frames_stand        20067400     m_boss2.obj
 0003:00002500       _boss2_move_stand          20067500     m_boss2.obj
 0003:00002510       _boss2_frames_fidget       20067510     m_boss2.obj
 0003:00002678       _boss2_move_fidget         20067678     m_boss2.obj
 0003:00002688       _boss2_frames_walk         20067688     m_boss2.obj
 0003:00002778       _boss2_move_walk           20067778     m_boss2.obj
 0003:00002788       _boss2_frames_run          20067788     m_boss2.obj
 0003:00002878       _boss2_move_run            20067878     m_boss2.obj
 0003:00002888       _boss2_frames_attack_pre_mg 20067888     m_boss2.obj
 0003:000028f8       _boss2_move_attack_pre_mg  200678f8     m_boss2.obj
 0003:00002908       _boss2_frames_attack_mg    20067908     m_boss2.obj
 0003:00002950       _boss2_move_attack_mg      20067950     m_boss2.obj
 0003:00002960       _boss2_frames_attack_post_mg 20067960     m_boss2.obj
 0003:00002990       _boss2_move_attack_post_mg 20067990     m_boss2.obj
 0003:000029a0       _boss2_frames_attack_rocket 200679a0     m_boss2.obj
 0003:00002aa0       _boss2_move_attack_rocket  20067aa0     m_boss2.obj
 0003:00002ab0       _boss2_frames_pain_heavy   20067ab0     m_boss2.obj
 0003:00002b88       _boss2_move_pain_heavy     20067b88     m_boss2.obj
 0003:00002b98       _boss2_frames_pain_light   20067b98     m_boss2.obj
 0003:00002bc8       _boss2_move_pain_light     20067bc8     m_boss2.obj
 0003:00002bd8       _boss2_frames_death        20067bd8     m_boss2.obj
 0003:00002e28       _boss2_move_death          20067e28     m_boss2.obj
 0003:00002e38       _jorg_frames_stand         20067e38     m_boss31.obj
 0003:000030a0       _jorg_move_stand           200680a0     m_boss31.obj
 0003:000030b0       _jorg_frames_run           200680b0     m_boss31.obj
 0003:00003158       _jorg_move_run             20068158     m_boss31.obj
 0003:00003168       _jorg_frames_start_walk    20068168     m_boss31.obj
 0003:000031a8       _jorg_move_start_walk      200681a8     m_boss31.obj
 0003:000031b8       _jorg_frames_walk          200681b8     m_boss31.obj
 0003:00003260       _jorg_move_walk            20068260     m_boss31.obj
 0003:00003270       _jorg_frames_end_walk      20068270     m_boss31.obj
 0003:000032b8       _jorg_move_end_walk        200682b8     m_boss31.obj
 0003:000032c8       _jorg_frames_pain3         200682c8     m_boss31.obj
 0003:000033f8       _jorg_move_pain3           200683f8     m_boss31.obj
 0003:00003408       _jorg_frames_pain2         20068408     m_boss31.obj
 0003:00003430       _jorg_move_pain2           20068430     m_boss31.obj
 0003:00003440       _jorg_frames_pain1         20068440     m_boss31.obj
 0003:00003468       _jorg_move_pain1           20068468     m_boss31.obj
 0003:00003478       _jorg_frames_death1        20068478     m_boss31.obj
 0003:000036d0       _jorg_move_death           200686d0     m_boss31.obj
 0003:000036e0       _jorg_frames_attack2       200686e0     m_boss31.obj
 0003:00003780       _jorg_move_attack2         20068780     m_boss31.obj
 0003:00003790       _jorg_frames_start_attack1 20068790     m_boss31.obj
 0003:000037f0       _jorg_move_start_attack1   200687f0     m_boss31.obj
 0003:00003800       _jorg_frames_attack1       20068800     m_boss31.obj
 0003:00003848       _jorg_move_attack1         20068848     m_boss31.obj
 0003:00003858       _jorg_frames_end_attack1   20068858     m_boss31.obj
 0003:00003888       _jorg_move_end_attack1     20068888     m_boss31.obj
 0003:00003898       _makron_frames_stand       20068898     m_boss32.obj
 0003:00003b68       _makron_move_stand         20068b68     m_boss32.obj
 0003:00003b78       _makron_frames_run         20068b78     m_boss32.obj
 0003:00003bf0       _makron_move_run           20068bf0     m_boss32.obj
 0003:00003c00       _makron_frames_walk        20068c00     m_boss32.obj
 0003:00003c78       _makron_move_walk          20068c78     m_boss32.obj
 0003:00003c88       _makron_frames_pain6       20068c88     m_boss32.obj
 0003:00003dd0       _makron_move_pain6         20068dd0     m_boss32.obj
 0003:00003de0       _makron_frames_pain5       20068de0     m_boss32.obj
 0003:00003e10       _makron_move_pain5         20068e10     m_boss32.obj
 0003:00003e20       _makron_frames_pain4       20068e20     m_boss32.obj
 0003:00003e50       _makron_move_pain4         20068e50     m_boss32.obj
 0003:00003e60       _makron_frames_death2      20068e60     m_boss32.obj
 0003:000042d8       _makron_move_death2        200692d8     m_boss32.obj
 0003:000042e8       _makron_frames_death3      200692e8     m_boss32.obj
 0003:000043d8       _makron_move_death3        200693d8     m_boss32.obj
 0003:000043e8       _makron_frames_sight       200693e8     m_boss32.obj
 0003:00004488       _makron_move_sight         20069488     m_boss32.obj
 0003:00004498       _makron_frames_attack3     20069498     m_boss32.obj
 0003:000044f8       _makron_move_attack3       200694f8     m_boss32.obj
 0003:00004508       _makron_frames_attack4     20069508     m_boss32.obj
 0003:00004640       _makron_move_attack4       20069640     m_boss32.obj
 0003:00004650       _makron_frames_attack5     20069650     m_boss32.obj
 0003:00004710       _makron_move_attack5       20069710     m_boss32.obj
 0003:00004720       _brain_frames_stand        20069720     m_brain.obj
 0003:00004888       _brain_move_stand          20069888     m_brain.obj
 0003:00004898       _brain_frames_idle         20069898     m_brain.obj
 0003:00004a00       _brain_move_idle           20069a00     m_brain.obj
 0003:00004a10       _brain_frames_walk1        20069a10     m_brain.obj
 0003:00004a98       _brain_move_walk1          20069a98     m_brain.obj
 0003:00004aa8       _brain_frames_defense      20069aa8     m_brain.obj
 0003:00004b18       _brain_move_defense        20069b18     m_brain.obj
 0003:00004b28       _brain_frames_pain3        20069b28     m_brain.obj
 0003:00004b70       _brain_move_pain3          20069b70     m_brain.obj
 0003:00004b80       _brain_frames_pain2        20069b80     m_brain.obj
 0003:00004be0       _brain_move_pain2          20069be0     m_brain.obj
 0003:00004bf0       _brain_frames_pain1        20069bf0     m_brain.obj
 0003:00004cf0       _brain_move_pain1          20069cf0     m_brain.obj
 0003:00004d00       _brain_frames_duck         20069d00     m_brain.obj
 0003:00004d60       _brain_move_duck           20069d60     m_brain.obj
 0003:00004d70       _brain_frames_death2       20069d70     m_brain.obj
 0003:00004db0       _brain_move_death2         20069db0     m_brain.obj
 0003:00004dc0       _brain_frames_death1       20069dc0     m_brain.obj
 0003:00004e98       _brain_move_death1         20069e98     m_brain.obj
 0003:00004ea8       _brain_frames_attack1      20069ea8     m_brain.obj
 0003:00004f80       _brain_move_attack1        20069f80     m_brain.obj
 0003:00004f90       _brain_frames_attack2      20069f90     m_brain.obj
 0003:00005060       _brain_move_attack2        2006a060     m_brain.obj
 0003:00005070       _brain_frames_run          2006a070     m_brain.obj
 0003:000050f8       _brain_move_run            2006a0f8     m_brain.obj
 0003:00005108       _chick_frames_fidget       2006a108     m_chick.obj
 0003:00005270       _chick_move_fidget         2006a270     m_chick.obj
 0003:00005280       _chick_frames_stand        2006a280     m_chick.obj
 0003:000053e8       _chick_move_stand          2006a3e8     m_chick.obj
 0003:000053f8       _chick_frames_start_run    2006a3f8     m_chick.obj
 0003:00005470       _chick_move_start_run      2006a470     m_chick.obj
 0003:00005480       _chick_frames_run          2006a480     m_chick.obj
 0003:000054f8       _chick_move_run            2006a4f8     m_chick.obj
 0003:00005508       _chick_frames_walk         2006a508     m_chick.obj
 0003:00005580       _chick_move_walk           2006a580     m_chick.obj
 0003:00005590       _chick_frames_pain1        2006a590     m_chick.obj
 0003:000055d0       _chick_move_pain1          2006a5d0     m_chick.obj
 0003:000055e0       _chick_frames_pain2        2006a5e0     m_chick.obj
 0003:00005620       _chick_move_pain2          2006a620     m_chick.obj
 0003:00005630       _chick_frames_pain3        2006a630     m_chick.obj
 0003:00005730       _chick_move_pain3          2006a730     m_chick.obj
 0003:00005740       _chick_frames_death2       2006a740     m_chick.obj
 0003:00005858       _chick_move_death2         2006a858     m_chick.obj
 0003:00005868       _chick_frames_death1       2006a868     m_chick.obj
 0003:000058f8       _chick_move_death1         2006a8f8     m_chick.obj
 0003:00005908       _chick_frames_duck         2006a908     m_chick.obj
 0003:00005960       _chick_move_duck           2006a960     m_chick.obj
 0003:00005970       _chick_frames_start_attack1 2006a970     m_chick.obj
 0003:00005a10       _chick_move_start_attack1  2006aa10     m_chick.obj
 0003:00005a20       _chick_frames_attack1      2006aa20     m_chick.obj
 0003:00005ac8       _chick_move_attack1        2006aac8     m_chick.obj
 0003:00005ad8       _chick_frames_end_attack1  2006aad8     m_chick.obj
 0003:00005b18       _chick_move_end_attack1    2006ab18     m_chick.obj
 0003:00005b28       _chick_frames_slash        2006ab28     m_chick.obj
 0003:00005b98       _chick_move_slash          2006ab98     m_chick.obj
 0003:00005ba8       _chick_frames_end_slash    2006aba8     m_chick.obj
 0003:00005bd8       _chick_move_end_slash      2006abd8     m_chick.obj
 0003:00005be8       _chick_frames_start_slash  2006abe8     m_chick.obj
 0003:00005c10       _chick_move_start_slash    2006ac10     m_chick.obj
 0003:00005c20       _monster_flash_offset      2006ac20     m_flash.obj
 0003:00006610       _flipper_frames_stand      2006b610     m_flipper.obj
 0003:00006620       _flipper_move_stand        2006b620     m_flipper.obj
 0003:00006630       _flipper_frames_run        2006b630     m_flipper.obj
 0003:00006750       _flipper_move_run_loop     2006b750     m_flipper.obj
 0003:00006760       _flipper_frames_run_start  2006b760     m_flipper.obj
 0003:000067a8       _flipper_move_run_start    2006b7a8     m_flipper.obj
 0003:000067b8       _flipper_frames_walk       2006b7b8     m_flipper.obj
 0003:000068d8       _flipper_move_walk         2006b8d8     m_flipper.obj
 0003:000068e8       _flipper_frames_start_run  2006b8e8     m_flipper.obj
 0003:00006928       _flipper_move_start_run    2006b928     m_flipper.obj
 0003:00006938       _flipper_frames_pain2      2006b938     m_flipper.obj
 0003:00006978       _flipper_move_pain2        2006b978     m_flipper.obj
 0003:00006988       _flipper_frames_pain1      2006b988     m_flipper.obj
 0003:000069c8       _flipper_move_pain1        2006b9c8     m_flipper.obj
 0003:000069d8       _flipper_frames_attack     2006b9d8     m_flipper.obj
 0003:00006ac8       _flipper_move_attack       2006bac8     m_flipper.obj
 0003:00006ad8       _flipper_frames_death      2006bad8     m_flipper.obj
 0003:00006d78       _flipper_move_death        2006bd78     m_flipper.obj
 0003:00006d88       _floater_frames_stand1     2006bd88     m_float.obj
 0003:00006ff8       _floater_move_stand1       2006bff8     m_float.obj
 0003:00007008       _floater_frames_stand2     2006c008     m_float.obj
 0003:00007278       _floater_move_stand2       2006c278     m_float.obj
 0003:00007288       _floater_frames_activate   2006c288     m_float.obj
 0003:000073f0       _floater_move_activate     2006c3f0     m_float.obj
 0003:00007400       _floater_frames_attack1    2006c400     m_float.obj
 0003:000074a8       _floater_move_attack1      2006c4a8     m_float.obj
 0003:000074b8       _floater_frames_attack2    2006c4b8     m_float.obj
 0003:000075e8       _floater_move_attack2      2006c5e8     m_float.obj
 0003:000075f8       _floater_frames_attack3    2006c5f8     m_float.obj
 0003:00007790       _floater_move_attack3      2006c790     m_float.obj
 0003:000077a0       _floater_frames_death      2006c7a0     m_float.obj
 0003:00007840       _floater_move_death        2006c840     m_float.obj
 0003:00007850       _floater_frames_pain1      2006c850     m_float.obj
 0003:000078a8       _floater_move_pain1        2006c8a8     m_float.obj
 0003:000078b8       _floater_frames_pain2      2006c8b8     m_float.obj
 0003:00007918       _floater_move_pain2        2006c918     m_float.obj
 0003:00007928       _floater_frames_pain3      2006c928     m_float.obj
 0003:000079b8       _floater_move_pain3        2006c9b8     m_float.obj
 0003:000079c8       _floater_frames_walk       2006c9c8     m_float.obj
 0003:00007c38       _floater_move_walk         2006cc38     m_float.obj
 0003:00007c48       _floater_frames_run        2006cc48     m_float.obj
 0003:00007eb8       _floater_move_run          2006ceb8     m_float.obj
 0003:00007ed8       _flyer_frames_stand        2006ced8     m_flyer.obj
 0003:000080f8       _flyer_move_stand          2006d0f8     m_flyer.obj
 0003:00008108       _flyer_frames_walk         2006d108     m_flyer.obj
 0003:00008328       _flyer_move_walk           2006d328     m_flyer.obj
 0003:00008338       _flyer_frames_run          2006d338     m_flyer.obj
 0003:00008558       _flyer_move_run            2006d558     m_flyer.obj
 0003:00008568       _flyer_frames_start        2006d568     m_flyer.obj
 0003:000085b0       _flyer_move_start          2006d5b0     m_flyer.obj
 0003:000085c0       _flyer_frames_stop         2006d5c0     m_flyer.obj
 0003:00008618       _flyer_move_stop           2006d618     m_flyer.obj
 0003:00008628       _flyer_frames_rollright    2006d628     m_flyer.obj
 0003:00008698       _flyer_move_rollright      2006d698     m_flyer.obj
 0003:000086a8       _flyer_frames_rollleft     2006d6a8     m_flyer.obj
 0003:00008718       _flyer_move_rollleft       2006d718     m_flyer.obj
 0003:00008728       _flyer_frames_pain3        2006d728     m_flyer.obj
 0003:00008758       _flyer_move_pain3          2006d758     m_flyer.obj
 0003:00008768       _flyer_frames_pain2        2006d768     m_flyer.obj
 0003:00008798       _flyer_move_pain2          2006d798     m_flyer.obj
 0003:000087a8       _flyer_frames_pain1        2006d7a8     m_flyer.obj
 0003:00008818       _flyer_move_pain1          2006d818     m_flyer.obj
 0003:00008828       _flyer_frames_defense      2006d828     m_flyer.obj
 0003:00008870       _flyer_move_defense        2006d870     m_flyer.obj
 0003:00008880       _flyer_frames_bankright    2006d880     m_flyer.obj
 0003:000088d8       _flyer_move_bankright      2006d8d8     m_flyer.obj
 0003:000088e8       _flyer_frames_bankleft     2006d8e8     m_flyer.obj
 0003:00008940       _flyer_move_bankleft       2006d940     m_flyer.obj
 0003:00008950       _flyer_frames_attack2      2006d950     m_flyer.obj
 0003:00008a20       _flyer_move_attack2        2006da20     m_flyer.obj
 0003:00008a30       _flyer_frames_start_melee  2006da30     m_flyer.obj
 0003:00008a78       _flyer_move_start_melee    2006da78     m_flyer.obj
 0003:00008a88       _flyer_frames_end_melee    2006da88     m_flyer.obj
 0003:00008ab0       _flyer_move_end_melee      2006dab0     m_flyer.obj
 0003:00008ac0       _flyer_frames_loop_melee   2006dac0     m_flyer.obj
 0003:00008b50       _flyer_move_loop_melee     2006db50     m_flyer.obj
 0003:00008b60       _gladiator_frames_stand    2006db60     m_gladiator.obj
 0003:00008bb8       _gladiator_move_stand      2006dbb8     m_gladiator.obj
 0003:00008bc8       _gladiator_frames_walk     2006dbc8     m_gladiator.obj
 0003:00008c88       _gladiator_move_walk       2006dc88     m_gladiator.obj
 0003:00008c98       _gladiator_frames_run      2006dc98     m_gladiator.obj
 0003:00008ce0       _gladiator_move_run        2006dce0     m_gladiator.obj
 0003:00008cf0       _gladiator_frames_attack_melee 2006dcf0     m_gladiator.obj
 0003:00008dc0       _gladiator_move_attack_melee 2006ddc0     m_gladiator.obj
 0003:00008dd0       _gladiator_frames_attack_gun 2006ddd0     m_gladiator.obj
 0003:00008e40       _gladiator_move_attack_gun 2006de40     m_gladiator.obj
 0003:00008e50       _gladiator_frames_pain     2006de50     m_gladiator.obj
 0003:00008e98       _gladiator_move_pain       2006de98     m_gladiator.obj
 0003:00008ea8       _gladiator_frames_pain_air 2006dea8     m_gladiator.obj
 0003:00008f00       _gladiator_move_pain_air   2006df00     m_gladiator.obj
 0003:00008f10       _gladiator_frames_death    2006df10     m_gladiator.obj
 0003:00009018       _gladiator_move_death      2006e018     m_gladiator.obj
 0003:00009028       _gunner_frames_fidget      2006e028     m_gunner.obj
 0003:00009278       _gunner_move_fidget        2006e278     m_gunner.obj
 0003:00009288       _gunner_frames_stand       2006e288     m_gunner.obj
 0003:000093f0       _gunner_move_stand         2006e3f0     m_gunner.obj
 0003:00009400       _gunner_frames_walk        2006e400     m_gunner.obj
 0003:000094a0       _gunner_move_walk          2006e4a0     m_gunner.obj
 0003:000094b0       _gunner_frames_run         2006e4b0     m_gunner.obj
 0003:00009510       _gunner_move_run           2006e510     m_gunner.obj
 0003:00009520       _gunner_frames_runandshoot 2006e520     m_gunner.obj
 0003:00009568       _gunner_move_runandshoot   2006e568     m_gunner.obj
 0003:00009578       _gunner_frames_pain3       2006e578     m_gunner.obj
 0003:000095b8       _gunner_move_pain3         2006e5b8     m_gunner.obj
 0003:000095c8       _gunner_frames_pain2       2006e5c8     m_gunner.obj
 0003:00009628       _gunner_move_pain2         2006e628     m_gunner.obj
 0003:00009638       _gunner_frames_pain1       2006e638     m_gunner.obj
 0003:00009710       _gunner_move_pain1         2006e710     m_gunner.obj
 0003:00009720       _gunner_frames_death       2006e720     m_gunner.obj
 0003:000097a8       _gunner_move_death         2006e7a8     m_gunner.obj
 0003:000097b8       _gunner_frames_duck        2006e7b8     m_gunner.obj
 0003:00009818       _gunner_move_duck          2006e818     m_gunner.obj
 0003:00009828       _gunner_frames_attack_chain 2006e828     m_gunner.obj
 0003:00009880       _gunner_move_attack_chain  2006e880     m_gunner.obj
 0003:00009890       _gunner_frames_fire_chain  2006e890     m_gunner.obj
 0003:000098f0       _gunner_move_fire_chain    2006e8f0     m_gunner.obj
 0003:00009900       _gunner_frames_endfire_chain 2006e900     m_gunner.obj
 0003:00009958       _gunner_move_endfire_chain 2006e958     m_gunner.obj
 0003:00009968       _gunner_frames_attack_grenade 2006e968     m_gunner.obj
 0003:00009a68       _gunner_move_attack_grenade 2006ea68     m_gunner.obj
 0003:00009a78       _hover_frames_stand        2006ea78     m_hover.obj
 0003:00009be0       _hover_move_stand          2006ebe0     m_hover.obj
 0003:00009bf0       _hover_frames_stop1        2006ebf0     m_hover.obj
 0003:00009c60       _hover_move_stop1          2006ec60     m_hover.obj
 0003:00009c70       _hover_frames_stop2        2006ec70     m_hover.obj
 0003:00009cd0       _hover_move_stop2          2006ecd0     m_hover.obj
 0003:00009ce0       _hover_frames_takeoff      2006ece0     m_hover.obj
 0003:00009e48       _hover_move_takeoff        2006ee48     m_hover.obj
 0003:00009e58       _hover_frames_pain3        2006ee58     m_hover.obj
 0003:00009ec8       _hover_move_pain3          2006eec8     m_hover.obj
 0003:00009ed8       _hover_frames_pain2        2006eed8     m_hover.obj
 0003:00009f68       _hover_move_pain2          2006ef68     m_hover.obj
 0003:00009f78       _hover_frames_pain1        2006ef78     m_hover.obj
 0003:0000a0c8       _hover_move_pain1          2006f0c8     m_hover.obj
 0003:0000a0d8       _hover_frames_land         2006f0d8     m_hover.obj
 0003:0000a0e8       _hover_move_land           2006f0e8     m_hover.obj
 0003:0000a0f8       _hover_frames_forward      2006f0f8     m_hover.obj
 0003:0000a2a0       _hover_move_forward        2006f2a0     m_hover.obj
 0003:0000a2b0       _hover_frames_walk         2006f2b0     m_hover.obj
 0003:0000a458       _hover_move_walk           2006f458     m_hover.obj
 0003:0000a468       _hover_frames_run          2006f468     m_hover.obj
 0003:0000a610       _hover_move_run            2006f610     m_hover.obj
 0003:0000a620       _hover_frames_death1       2006f620     m_hover.obj
 0003:0000a6a8       _hover_move_death1         2006f6a8     m_hover.obj
 0003:0000a6b8       _hover_frames_backward     2006f6b8     m_hover.obj
 0003:0000a7d8       _hover_move_backward       2006f7d8     m_hover.obj
 0003:0000a7e8       _hover_frames_start_attack 2006f7e8     m_hover.obj
 0003:0000a810       _hover_move_start_attack   2006f810     m_hover.obj
 0003:0000a820       _hover_frames_attack1      2006f820     m_hover.obj
 0003:0000a848       _hover_move_attack1        2006f848     m_hover.obj
 0003:0000a858       _hover_frames_end_attack   2006f858     m_hover.obj
 0003:0000a870       _hover_move_end_attack     2006f870     m_hover.obj
 0003:0000a880       _infantry_frames_stand     2006f880     m_infantry.obj
 0003:0000a988       _infantry_move_stand       2006f988     m_infantry.obj
 0003:0000a998       _infantry_frames_fidget    2006f998     m_infantry.obj
 0003:0000abe8       _infantry_move_fidget      2006fbe8     m_infantry.obj
 0003:0000abf8       _infantry_frames_walk      2006fbf8     m_infantry.obj
 0003:0000ac88       _infantry_move_walk        2006fc88     m_infantry.obj
 0003:0000ac98       _infantry_frames_run       2006fc98     m_infantry.obj
 0003:0000acf8       _infantry_move_run         2006fcf8     m_infantry.obj
 0003:0000ad08       _infantry_frames_pain1     2006fd08     m_infantry.obj
 0003:0000ad80       _infantry_move_pain1       2006fd80     m_infantry.obj
 0003:0000ad90       _infantry_frames_pain2     2006fd90     m_infantry.obj
 0003:0000ae08       _infantry_move_pain2       2006fe08     m_infantry.obj
 0003:0000ae18       _aimangles                 2006fe18     m_infantry.obj
 0003:0000aea8       _infantry_frames_death1    2006fea8     m_infantry.obj
 0003:0000af98       _infantry_move_death1      2006ff98     m_infantry.obj
 0003:0000afa8       _infantry_frames_death2    2006ffa8     m_infantry.obj
 0003:0000b0d8       _infantry_move_death2      200700d8     m_infantry.obj
 0003:0000b0e8       _infantry_frames_death3    200700e8     m_infantry.obj
 0003:0000b158       _infantry_move_death3      20070158     m_infantry.obj
 0003:0000b168       _infantry_frames_duck      20070168     m_infantry.obj
 0003:0000b1a8       _infantry_move_duck        200701a8     m_infantry.obj
 0003:0000b1b8       _infantry_frames_attack1   200701b8     m_infantry.obj
 0003:0000b270       _infantry_move_attack1     20070270     m_infantry.obj
 0003:0000b280       _infantry_frames_attack2   20070280     m_infantry.obj
 0003:0000b2e0       _infantry_move_attack2     200702e0     m_infantry.obj
 0003:0000b2f0       _insane_frames_stand_normal 200702f0     m_insane.obj
 0003:0000b338       _insane_move_stand_normal  20070338     m_insane.obj
 0003:0000b348       _insane_frames_stand_insane 20070348     m_insane.obj
 0003:0000b4b0       _insane_move_stand_insane  200704b0     m_insane.obj
 0003:0000b4c0       _insane_frames_uptodown    200704c0     m_insane.obj
 0003:0000b6a0       _insane_move_uptodown      200706a0     m_insane.obj
 0003:0000b6b0       _insane_frames_downtoup    200706b0     m_insane.obj
 0003:0000b798       _insane_move_downtoup      20070798     m_insane.obj
 0003:0000b7a8       _insane_frames_jumpdown    200707a8     m_insane.obj
 0003:0000b7e8       _insane_move_jumpdown      200707e8     m_insane.obj
 0003:0000b7f8       _insane_frames_down        200707f8     m_insane.obj
 0003:0000bad8       _insane_move_down          20070ad8     m_insane.obj
 0003:0000bae8       _insane_frames_walk_normal 20070ae8     m_insane.obj
 0003:0000bb88       _insane_move_walk_normal   20070b88     m_insane.obj
 0003:0000bb98       _insane_move_run_normal    20070b98     m_insane.obj
 0003:0000bba8       _insane_frames_walk_insane 20070ba8     m_insane.obj
 0003:0000bce0       _insane_move_walk_insane   20070ce0     m_insane.obj
 0003:0000bcf0       _insane_move_run_insane    20070cf0     m_insane.obj
 0003:0000bd00       _insane_frames_stand_pain  20070d00     m_insane.obj
 0003:0000bd88       _insane_move_stand_pain    20070d88     m_insane.obj
 0003:0000bd98       _insane_frames_stand_death 20070d98     m_insane.obj
 0003:0000be68       _insane_move_stand_death   20070e68     m_insane.obj
 0003:0000be78       _insane_frames_crawl       20070e78     m_insane.obj
 0003:0000bee8       _insane_move_crawl         20070ee8     m_insane.obj
 0003:0000bef8       _insane_move_runcrawl      20070ef8     m_insane.obj
 0003:0000bf08       _insane_frames_crawl_pain  20070f08     m_insane.obj
 0003:0000bf78       _insane_move_crawl_pain    20070f78     m_insane.obj
 0003:0000bf88       _insane_frames_crawl_death 20070f88     m_insane.obj
 0003:0000bfe0       _insane_move_crawl_death   20070fe0     m_insane.obj
 0003:0000bff0       _insane_frames_cross       20070ff0     m_insane.obj
 0003:0000c0a8       _insane_move_cross         200710a8     m_insane.obj
 0003:0000c0b8       _insane_frames_struggle_cross 200710b8     m_insane.obj
 0003:0000c170       _insane_move_struggle_cross 20071170     m_insane.obj
 0003:0000c180       _medic_frames_stand        20071180     m_medic.obj
 0003:0000c5b8       _medic_move_stand          200715b8     m_medic.obj
 0003:0000c5c8       _medic_frames_walk         200715c8     m_medic.obj
 0003:0000c658       _medic_move_walk           20071658     m_medic.obj
 0003:0000c668       _medic_frames_run          20071668     m_medic.obj
 0003:0000c6b0       _medic_move_run            200716b0     m_medic.obj
 0003:0000c6c0       _medic_frames_pain1        200716c0     m_medic.obj
 0003:0000c720       _medic_move_pain1          20071720     m_medic.obj
 0003:0000c730       _medic_frames_pain2        20071730     m_medic.obj
 0003:0000c7e8       _medic_move_pain2          200717e8     m_medic.obj
 0003:0000c7f8       _medic_frames_death        200717f8     m_medic.obj
 0003:0000c960       _medic_move_death          20071960     m_medic.obj
 0003:0000c970       _medic_frames_duck         20071970     m_medic.obj
 0003:0000ca30       _medic_move_duck           20071a30     m_medic.obj
 0003:0000ca40       _medic_frames_attackHyperBlaster 20071a40     m_medic.obj
 0003:0000cb00       _medic_move_attackHyperBlaster 20071b00     m_medic.obj
 0003:0000cb10       _medic_frames_attackBlaster 20071b10     m_medic.obj
 0003:0000cbb8       _medic_move_attackBlaster  20071bb8     m_medic.obj
 0003:0000cc40       _medic_frames_attackCable  20071c40     m_medic.obj
 0003:0000cd90       _medic_move_attackCable    20071d90     m_medic.obj
 0003:0000cda0       _mutant_frames_stand       20071da0     m_mutant.obj
 0003:0000d008       _mutant_move_stand         20072008     m_mutant.obj
 0003:0000d018       _mutant_frames_idle        20072018     m_mutant.obj
 0003:0000d0b8       _mutant_move_idle          200720b8     m_mutant.obj
 0003:0000d0c8       _mutant_frames_walk        200720c8     m_mutant.obj
 0003:0000d158       _mutant_move_walk          20072158     m_mutant.obj
 0003:0000d168       _mutant_frames_start_walk  20072168     m_mutant.obj
 0003:0000d198       _mutant_move_start_walk    20072198     m_mutant.obj
 0003:0000d1a8       _mutant_frames_run         200721a8     m_mutant.obj
 0003:0000d1f0       _mutant_move_run           200721f0     m_mutant.obj
 0003:0000d200       _mutant_frames_attack      20072200     m_mutant.obj
 0003:0000d258       _mutant_move_attack        20072258     m_mutant.obj
 0003:0000d268       _mutant_frames_jump        20072268     m_mutant.obj
 0003:0000d2c8       _mutant_move_jump          200722c8     m_mutant.obj
 0003:0000d2d8       _mutant_frames_pain1       200722d8     m_mutant.obj
 0003:0000d318       _mutant_move_pain1         20072318     m_mutant.obj
 0003:0000d328       _mutant_frames_pain2       20072328     m_mutant.obj
 0003:0000d370       _mutant_move_pain2         20072370     m_mutant.obj
 0003:0000d380       _mutant_frames_pain3       20072380     m_mutant.obj
 0003:0000d408       _mutant_move_pain3         20072408     m_mutant.obj
 0003:0000d418       _mutant_frames_death1      20072418     m_mutant.obj
 0003:0000d488       _mutant_move_death1        20072488     m_mutant.obj
 0003:0000d498       _mutant_frames_death2      20072498     m_mutant.obj
 0003:0000d510       _mutant_move_death2        20072510     m_mutant.obj
 0003:0000d520       _parasite_frames_start_fidget 20072520     m_parasite.obj
 0003:0000d550       _parasite_move_start_fidget 20072550     m_parasite.obj
 0003:0000d560       _parasite_frames_fidget    20072560     m_parasite.obj
 0003:0000d5a8       _parasite_move_fidget      200725a8     m_parasite.obj
 0003:0000d5b8       _parasite_frames_end_fidget 200725b8     m_parasite.obj
 0003:0000d618       _parasite_move_end_fidget  20072618     m_parasite.obj
 0003:0000d628       _parasite_frames_stand     20072628     m_parasite.obj
 0003:0000d6f8       _parasite_move_stand       200726f8     m_parasite.obj
 0003:0000d708       _parasite_frames_run       20072708     m_parasite.obj
 0003:0000d760       _parasite_move_run         20072760     m_parasite.obj
 0003:0000d770       _parasite_frames_start_run 20072770     m_parasite.obj
 0003:0000d788       _parasite_move_start_run   20072788     m_parasite.obj
 0003:0000d798       _parasite_frames_stop_run  20072798     m_parasite.obj
 0003:0000d7e0       _parasite_move_stop_run    200727e0     m_parasite.obj
 0003:0000d7f0       _parasite_frames_walk      200727f0     m_parasite.obj
 0003:0000d848       _parasite_move_walk        20072848     m_parasite.obj
 0003:0000d858       _parasite_frames_start_walk 20072858     m_parasite.obj
 0003:0000d870       _parasite_move_start_walk  20072870     m_parasite.obj
 0003:0000d880       _parasite_frames_stop_walk 20072880     m_parasite.obj
 0003:0000d8c8       _parasite_move_stop_walk   200728c8     m_parasite.obj
 0003:0000d8d8       _parasite_frames_pain1     200728d8     m_parasite.obj
 0003:0000d960       _parasite_move_pain1       20072960     m_parasite.obj
 0003:0000d970       _parasite_frames_drain     20072970     m_parasite.obj
 0003:0000da48       _parasite_move_drain       20072a48     m_parasite.obj
 0003:0000da58       _parasite_frames_break     20072a58     m_parasite.obj
 0003:0000dbd8       _parasite_move_break       20072bd8     m_parasite.obj
 0003:0000dbe8       _parasite_frames_death     20072be8     m_parasite.obj
 0003:0000dc40       _parasite_move_death       20072c40     m_parasite.obj
 0003:0000dc50       _soldier_frames_stand1     20072c50     m_soldier.obj
 0003:0000ddb8       _soldier_move_stand1       20072db8     m_soldier.obj
 0003:0000ddc8       _soldier_frames_stand3     20072dc8     m_soldier.obj
 0003:0000dfa0       _soldier_move_stand3       20072fa0     m_soldier.obj
 0003:0000dfb0       _soldier_frames_walk1      20072fb0     m_soldier.obj
 0003:0000e140       _soldier_move_walk1        20073140     m_soldier.obj
 0003:0000e150       _soldier_frames_walk2      20073150     m_soldier.obj
 0003:0000e1c8       _soldier_move_walk2        200731c8     m_soldier.obj
 0003:0000e1d8       _soldier_frames_start_run  200731d8     m_soldier.obj
 0003:0000e1f0       _soldier_move_start_run    200731f0     m_soldier.obj
 0003:0000e200       _soldier_frames_run        20073200     m_soldier.obj
 0003:0000e248       _soldier_move_run          20073248     m_soldier.obj
 0003:0000e258       _soldier_frames_pain1      20073258     m_soldier.obj
 0003:0000e298       _soldier_move_pain1        20073298     m_soldier.obj
 0003:0000e2a8       _soldier_frames_pain2      200732a8     m_soldier.obj
 0003:0000e300       _soldier_move_pain2        20073300     m_soldier.obj
 0003:0000e310       _soldier_frames_pain3      20073310     m_soldier.obj
 0003:0000e3e8       _soldier_move_pain3        200733e8     m_soldier.obj
 0003:0000e3f8       _soldier_frames_pain4      200733f8     m_soldier.obj
 0003:0000e4c8       _soldier_move_pain4        200734c8     m_soldier.obj
 0003:0000e538       _soldier_frames_attack1    20073538     m_soldier.obj
 0003:0000e5c8       _soldier_move_attack1      200735c8     m_soldier.obj
 0003:0000e5d8       _soldier_frames_attack2    200735d8     m_soldier.obj
 0003:0000e6b0       _soldier_move_attack2      200736b0     m_soldier.obj
 0003:0000e6c0       _soldier_frames_attack3    200736c0     m_soldier.obj
 0003:0000e730       _soldier_move_attack3      20073730     m_soldier.obj
 0003:0000e740       _soldier_frames_attack4    20073740     m_soldier.obj
 0003:0000e788       _soldier_move_attack4      20073788     m_soldier.obj
 0003:0000e798       _soldier_frames_attack6    20073798     m_soldier.obj
 0003:0000e840       _soldier_move_attack6      20073840     m_soldier.obj
 0003:0000e850       _soldier_frames_duck       20073850     m_soldier.obj
 0003:0000e890       _soldier_move_duck         20073890     m_soldier.obj
 0003:0000e8a0       _soldier_frames_death1     200738a0     m_soldier.obj
 0003:0000ea50       _soldier_move_death1       20073a50     m_soldier.obj
 0003:0000ea60       _soldier_frames_death2     20073a60     m_soldier.obj
 0003:0000ec08       _soldier_move_death2       20073c08     m_soldier.obj
 0003:0000ec18       _soldier_frames_death3     20073c18     m_soldier.obj
 0003:0000ee38       _soldier_move_death3       20073e38     m_soldier.obj
 0003:0000ee48       _soldier_frames_death4     20073e48     m_soldier.obj
 0003:0000f0c8       _soldier_move_death4       200740c8     m_soldier.obj
 0003:0000f0d8       _soldier_frames_death5     200740d8     m_soldier.obj
 0003:0000f1f8       _soldier_move_death5       200741f8     m_soldier.obj
 0003:0000f208       _soldier_frames_death6     20074208     m_soldier.obj
 0003:0000f280       _soldier_move_death6       20074280     m_soldier.obj
 0003:0000f290       _supertank_frames_stand    20074290     m_supertank.obj
 0003:0000f560       _supertank_move_stand      20074560     m_supertank.obj
 0003:0000f570       _supertank_frames_run      20074570     m_supertank.obj
 0003:0000f648       _supertank_move_run        20074648     m_supertank.obj
 0003:0000f658       _supertank_frames_forward  20074658     m_supertank.obj
 0003:0000f730       _supertank_move_forward    20074730     m_supertank.obj
 0003:0000f740       _supertank_frames_turn_right 20074740     m_supertank.obj
 0003:0000f818       _supertank_move_turn_right 20074818     m_supertank.obj
 0003:0000f828       _supertank_frames_turn_left 20074828     m_supertank.obj
 0003:0000f900       _supertank_move_turn_left  20074900     m_supertank.obj
 0003:0000f910       _supertank_frames_pain3    20074910     m_supertank.obj
 0003:0000f940       _supertank_move_pain3      20074940     m_supertank.obj
 0003:0000f950       _supertank_frames_pain2    20074950     m_supertank.obj
 0003:0000f980       _supertank_move_pain2      20074980     m_supertank.obj
 0003:0000f990       _supertank_frames_pain1    20074990     m_supertank.obj
 0003:0000f9c0       _supertank_move_pain1      200749c0     m_supertank.obj
 0003:0000f9d0       _supertank_frames_death1   200749d0     m_supertank.obj
 0003:0000faf0       _supertank_move_death      20074af0     m_supertank.obj
 0003:0000fb00       _supertank_frames_backward 20074b00     m_supertank.obj
 0003:0000fbd8       _supertank_move_backward   20074bd8     m_supertank.obj
 0003:0000fbe8       _supertank_frames_attack4  20074be8     m_supertank.obj
 0003:0000fc30       _supertank_move_attack4    20074c30     m_supertank.obj
 0003:0000fc40       _supertank_frames_attack3  20074c40     m_supertank.obj
 0003:0000fd88       _supertank_move_attack3    20074d88     m_supertank.obj
 0003:0000fd98       _supertank_frames_attack2  20074d98     m_supertank.obj
 0003:0000fee0       _supertank_move_attack2    20074ee0     m_supertank.obj
 0003:0000fef0       _supertank_frames_attack1  20074ef0     m_supertank.obj
 0003:0000ff38       _supertank_move_attack1    20074f38     m_supertank.obj
 0003:0000ff48       _supertank_frames_end_attack1 20074f48     m_supertank.obj
 0003:0000fff0       _supertank_move_end_attack1 20074ff0     m_supertank.obj
 0003:00010000       _tank_frames_stand         20075000     m_tank.obj
 0003:00010168       _tank_move_stand           20075168     m_tank.obj
 0003:00010178       _tank_frames_start_walk    20075178     m_tank.obj
 0003:000101a8       _tank_move_start_walk      200751a8     m_tank.obj
 0003:000101b8       _tank_frames_walk          200751b8     m_tank.obj
 0003:00010278       _tank_move_walk            20075278     m_tank.obj
 0003:00010288       _tank_frames_stop_walk     20075288     m_tank.obj
 0003:000102c8       _tank_move_stop_walk       200752c8     m_tank.obj
 0003:000102d8       _tank_frames_start_run     200752d8     m_tank.obj
 0003:00010308       _tank_move_start_run       20075308     m_tank.obj
 0003:00010318       _tank_frames_run           20075318     m_tank.obj
 0003:000103d8       _tank_move_run             200753d8     m_tank.obj
 0003:000103e8       _tank_frames_stop_run      200753e8     m_tank.obj
 0003:00010428       _tank_move_stop_run        20075428     m_tank.obj
 0003:00010438       _tank_frames_pain1         20075438     m_tank.obj
 0003:00010468       _tank_move_pain1           20075468     m_tank.obj
 0003:00010478       _tank_frames_pain2         20075478     m_tank.obj
 0003:000104b8       _tank_move_pain2           200754b8     m_tank.obj
 0003:000104c8       _tank_frames_pain3         200754c8     m_tank.obj
 0003:00010588       _tank_move_pain3           20075588     m_tank.obj
 0003:00010598       _tank_frames_attack_blast  20075598     m_tank.obj
 0003:00010658       _tank_move_attack_blast    20075658     m_tank.obj
 0003:00010668       _tank_frames_reattack_blast 20075668     m_tank.obj
 0003:000106b0       _tank_move_reattack_blast  200756b0     m_tank.obj
 0003:000106c0       _tank_frames_attack_post_blast 200756c0     m_tank.obj
 0003:00010708       _tank_move_attack_post_blast 20075708     m_tank.obj
 0003:00010718       _tank_frames_attack_strike 20075718     m_tank.obj
 0003:000108e0       _tank_move_attack_strike   200758e0     m_tank.obj
 0003:000108f0       _tank_frames_attack_pre_rocket 200758f0     m_tank.obj
 0003:000109f0       _tank_move_attack_pre_rocket 200759f0     m_tank.obj
 0003:00010a00       _tank_frames_attack_fire_rocket 20075a00     m_tank.obj
 0003:00010a70       _tank_move_attack_fire_rocket 20075a70     m_tank.obj
 0003:00010a80       _tank_frames_attack_post_rocket 20075a80     m_tank.obj
 0003:00010b98       _tank_move_attack_post_rocket 20075b98     m_tank.obj
 0003:00010ba8       _tank_frames_attack_chain  20075ba8     m_tank.obj
 0003:00010d08       _tank_move_attack_chain    20075d08     m_tank.obj
 0003:00010d18       _tank_frames_death1        20075d18     m_tank.obj
 0003:00010e98       _tank_move_death           20075e98     m_tank.obj
 0003:00011008       __fltused                  20076008     LIBCMTD:fpinit.obj
 0003:0001100c       __ldused                   2007600c     LIBCMTD:fpinit.obj
 0003:00011010       __FPinit                   20076010     LIBCMTD:fpinit.obj
 0003:00011014       __FPmtinit                 20076014     LIBCMTD:fpinit.obj
 0003:00011018       __FPmtterm                 20076018     LIBCMTD:fpinit.obj
 0003:00011040       __crtDbgFlag               20076040     LIBCMTD:dbgheap.obj
 0003:00011048       __crtBreakAlloc            20076048     LIBCMTD:dbgheap.obj
 0003:000110a0       __aexit_rtn                200760a0     LIBCMTD:dllcrt0.obj
 0003:000110a4       __cfltcvt_tab              200760a4     LIBCMTD:cmiscdat.obj
 0003:000110bc       ___tlsindex                200760bc     LIBCMTD:tidtable.obj
 0003:000110c0       __pctype                   200760c0     LIBCMTD:ctype.obj
 0003:000110c4       __pwctype                  200760c4     LIBCMTD:ctype.obj
 0003:000110c8       __ctype                    200760c8     LIBCMTD:ctype.obj
 0003:000112cc       ___mb_cur_max              200762cc     LIBCMTD:nlsdata1.obj
 0003:000112d0       ___decimal_point           200762d0     LIBCMTD:nlsdata1.obj
 0003:000112d4       ___decimal_point_length    200762d4     LIBCMTD:nlsdata1.obj
 0003:000112e0       ___nullstring              200762e0     LIBCMTD:output.obj
 0003:000112e4       ___wnullstring             200762e4     LIBCMTD:output.obj
 0003:000112e8       __crtAssertBusy            200762e8     LIBCMTD:dbgrpt.obj
 0003:000112ec       __CrtDbgMode               200762ec     LIBCMTD:dbgrpt.obj
 0003:000112f8       __CrtDbgFile               200762f8     LIBCMTD:dbgrpt.obj
 0003:000113e8       __d_inf                    200763e8     LIBCMTD:util.obj
 0003:000113f0       __d_ind                    200763f0     LIBCMTD:util.obj
 0003:000113f8       __d_max                    200763f8     LIBCMTD:util.obj
 0003:00011400       __d_min                    20076400     LIBCMTD:util.obj
 0003:00011408       __d_mzero                  20076408     LIBCMTD:util.obj
 0003:00011430       __indefinite               20076430     LIBCMTD:87disp.obj
 0003:0001143a       __piby2                    2007643a     LIBCMTD:87disp.obj
 0003:00011460       __locktable                20076460     LIBCMTD:mlock.obj
 0003:00011520       __pfnAllocHook             20076520     LIBCMTD:dbghook.obj
 0003:00011524       __amblksiz                 20076524     LIBCMTD:heapinit.obj
 0003:00011528       ___sbh_threshold           20076528     LIBCMTD:sbheap.obj
 0003:0001152c       __timezone                 2007652c     LIBCMTD:timeset.obj
 0003:00011530       __daylight                 20076530     LIBCMTD:timeset.obj
 0003:00011534       __dstbias                  20076534     LIBCMTD:timeset.obj
 0003:000115b8       __tzname                   200765b8     LIBCMTD:timeset.obj
 0003:000115e0       __iob                      200765e0     LIBCMTD:_file.obj
 0003:00011870       __OP_ATAN2jmptab           20076870     LIBCMTD:87triga.obj
 0003:000119d0       ___lc_category             200769d0     LIBCMTD:setlocal.obj
 0003:00011a18       ___badioinfo               20076a18     LIBCMTD:ioinit.obj
 0003:00011b00       __XcptActTab               20076b00     LIBCMTD:winxfltr.obj
 0003:00011b78       __First_FPE_Indx           20076b78     LIBCMTD:winxfltr.obj
 0003:00011b7c       __Num_FPE                  20076b7c     LIBCMTD:winxfltr.obj
 0003:00011b80       __XcptActTabSize           20076b80     LIBCMTD:winxfltr.obj
 0003:00011b84       __XcptActTabCount          20076b84     LIBCMTD:winxfltr.obj
 0003:00011cf8       __matherr_flag             20076cf8     LIBCMTD:matherr.obj
 0003:00011cfc       __lpdays                   20076cfc     LIBCMTD:days.obj
 0003:00011d30       __days                     20076d30     LIBCMTD:days.obj
 0003:00011d70       ___rgLocInfo               20076d70     LIBCMTD:getqloc.obj
 0003:00012214       ___rglangidNotDefault      20077214     LIBCMTD:getqloc.obj
 0003:00012228       ___rg_country              20077228     LIBCMTD:getqloc.obj
 0003:000122e0       ___rg_language             200772e0     LIBCMTD:getqloc.obj
 0003:000125e0       __NLG_Destination          200775e0     LIBCMTD:exsup.obj
 0003:000125f0       ___lc_time_curr            200775f0     LIBCMTD:strftime.obj
 0003:000125f8       ___lc_time_c               200775f8     LIBCMTD:strftime.obj
 0003:000126a8       ___lconv_static_decimal    200776a8     LIBCMTD:lconv.obj
 0003:000126b0       ___lconv_c                 200776b0     LIBCMTD:lconv.obj
 0003:000126e0       ___lconv                   200776e0     LIBCMTD:lconv.obj
 0003:000126f0       __pow10pos                 200776f0     LIBCMTD:constpow.obj
 0003:00012850       __pow10neg                 20077850     LIBCMTD:constpow.obj
 0003:00013048       _trail_active              20078048     p_trail.obj
 0003:000138d4       _vec3_origin               200788d4     q_shared.obj
 0003:000138e0       ___fastflag                200788e0     LIBCMTD:fpinit.obj
 0003:000138e4       __adjust_fdiv              200788e4     LIBCMTD:fpinit.obj
 0003:0001391c       __aenvptr                  2007891c     LIBCMTD:dllcrt0.obj
 0003:00013920       __wenvptr                  20078920     LIBCMTD:dllcrt0.obj
 0003:00013924       ___error_mode              20078924     LIBCMTD:dllcrt0.obj
 0003:00013928       ___app_type                20078928     LIBCMTD:dllcrt0.obj
 0003:00013930       __newmode                  20078930     LIBCMTD:_newmode.obj
 0003:00013934       ?_pnhHeap@@3P6AHI@ZA       20078934     LIBCMTD:handler.obj
 0003:00013998       __umaskval                 20078998     LIBCMTD:crt0dat.obj
 0003:0001399c       __osver                    2007899c     LIBCMTD:crt0dat.obj
 0003:000139a0       __winver                   200789a0     LIBCMTD:crt0dat.obj
 0003:000139a4       __winmajor                 200789a4     LIBCMTD:crt0dat.obj
 0003:000139a8       __winminor                 200789a8     LIBCMTD:crt0dat.obj
 0003:000139ac       ___argc                    200789ac     LIBCMTD:crt0dat.obj
 0003:000139b0       ___argv                    200789b0     LIBCMTD:crt0dat.obj
 0003:000139b4       ___wargv                   200789b4     LIBCMTD:crt0dat.obj
 0003:000139b8       __environ                  200789b8     LIBCMTD:crt0dat.obj
 0003:000139bc       ___initenv                 200789bc     LIBCMTD:crt0dat.obj
 0003:000139c0       __wenviron                 200789c0     LIBCMTD:crt0dat.obj
 0003:000139c4       ___winitenv                200789c4     LIBCMTD:crt0dat.obj
 0003:000139c8       __pgmptr                   200789c8     LIBCMTD:crt0dat.obj
 0003:000139cc       __wpgmptr                  200789cc     LIBCMTD:crt0dat.obj
 0003:000139d0       __exitflag                 200789d0     LIBCMTD:crt0dat.obj
 0003:000139d4       __C_Termination_Done       200789d4     LIBCMTD:crt0dat.obj
 0003:000139d8       __C_Exit_Done              200789d8     LIBCMTD:crt0dat.obj
 0003:00013ac4       __cflush                   20078ac4     LIBCMTD:_file.obj
 0003:00013ac8       __stdbuf                   20078ac8     LIBCMTD:_sftbuf.obj
 0003:00013ad0       ___lc_handle               20078ad0     LIBCMTD:nlsdata2.obj
 0003:00013ae8       ___lc_codepage             20078ae8     LIBCMTD:nlsdata2.obj
 0003:00013aec       ___lc_collate_cp           20078aec     LIBCMTD:nlsdata2.obj
 0003:00013c04       __adbgmsg                  20078c04     LIBCMTD:crt0msg.obj
 0003:00013c2c       __commode                  20078c2c     LIBCMTD:ncommode.obj
 0003:00013c30       ___lc_time_intl            20078c30     LIBCMTD:inittime.obj
 0003:00013c4c       ___lc_id                   20078c4c     LIBCMTD:nlsdata3.obj
 0003:00013c9c       __fmode                    20078c9c     LIBCMTD:txtmode.obj
 0003:00013ca8       ___lconv_static_null       20078ca8     LIBCMTD:lconv.obj
 0003:00013cc0       _corners                   20078cc0     <common>
 0003:00013cd8       _i                         20078cd8     <common>
 0003:00013cdc       __LittleFloat              20078cdc     <common>
 0003:00013ce0       __BigFloat                 20078ce0     <common>
 0003:00013ce4       __LittleLong               20078ce4     <common>
 0003:00013ce8       __LittleShort              20078ce8     <common>
 0003:00013cec       __BigShort                 20078cec     <common>
 0003:00013cf0       __BigLong                  20078cf0     <common>
 0003:00013d00       _com_token                 20078d00     <common>
 0003:00013d80       _paged_total               20078d80     <common>
 0003:00013d84       _bigendien                 20078d84     <common>
 0003:00013d88       _xyspeed                   20078d88     <common>
 0003:00013d8c       _bobmove                   20078d8c     <common>
 0003:00013d90       _bobcycle                  20078d90     <common>
 0003:00013d94       _bobfracsin                20078d94     <common>
 0003:00013da0       _trail                     20078da0     <common>
 0003:00013dc0       _trail_head                20078dc0     <common>
 0003:00013dc4       _pm_passent                20078dc4     <common>
 0003:00013dc8       _c_yes                     20078dc8     <common>
 0003:00013dcc       _c_no                      20078dcc     <common>
 0003:00013dd0       _numipfilters              20078dd0     <common>
 0003:00013de0       _ipfilters                 20078de0     <common>
 0003:00015de0       _mmove_reloc               2007ade0     <common>
 0003:00015df0       _pushed_p                  2007adf0     <common>
 0003:00015e00       _pushed                    2007ae00     <common>
 0003:0001de00       _obstacle                  20082e00     <common>
 0003:0001de04       _meansOfDeath              20082e04     <common>
 0003:0001de08       _spectator_password        20082e08     <common>
 0003:0001de0c       _dedicated                 20082e0c     <common>
 0003:0001de10       _g_select_empty            20082e10     <common>
 0003:0001de14       _flood_msgs                20082e14     <common>
 0003:0001de18       _deathmatch                20082e18     <common>
 0003:0001de20       _globals                   20082e20     <common>
 0003:0001de70       _sv_maplist                20082e70     <common>
 0003:0001de74       _sv_rollspeed              20082e74     <common>
 0003:0001de78       _filterban                 20082e78     <common>
 0003:0001de7c       _needpass                  20082e7c     <common>
 0003:0001de80       _run_pitch                 20082e80     <common>
 0003:0001de84       _fraglimit                 20082e84     <common>
 0003:0001de88       _sv_maxvelocity            20082e88     <common>
 0003:0001de8c       _flood_persecond           20082e8c     <common>
 0003:0001de90       _gun_x                     20082e90     <common>
 0003:0001de94       _gun_y                     20082e94     <common>
 0003:0001de98       _gun_z                     20082e98     <common>
 0003:0001de9c       _bob_pitch                 20082e9c     <common>
 0003:0001dea0       _bob_roll                  20082ea0     <common>
 0003:0001dea4       _snd_fry                   20082ea4     <common>
 0003:0001dea8       _sv_cheats                 20082ea8     <common>
 0003:0001dec0       _gi                        20082ec0     <common>
 0003:0001df80       _st                        20082f80     <common>
 0003:0001dfc4       _g_edicts                  20082fc4     <common>
 0003:0001dfc8       _password                  20082fc8     <common>
 0003:0001dfcc       _flood_waitdelay           20082fcc     <common>
 0003:0001dfd0       _maxentities               20082fd0     <common>
 0003:0001dfe0       _level                     20082fe0     <common>
 0003:0001e110       _maxspectators             20083110     <common>
 0003:0001e114       _dmflags                   20083114     <common>
 0003:0001e118       _sm_meat_index             20083118     <common>
 0003:0001e11c       _skill                     2008311c     <common>
 0003:0001e120       _sv_gravity                20083120     <common>
 0003:0001e124       _run_roll                  20083124     <common>
 0003:0001e128       _timelimit                 20083128     <common>
 0003:0001e12c       _coop                      2008312c     <common>
 0003:0001e130       _sv_rollangle              20083130     <common>
 0003:0001e140       _game                      20083140     <common>
 0003:0001e75c       _bob_up                    2008375c     <common>
 0003:0001e760       _maxclients                20083760     <common>
 0003:0001e764       _enemy_vis                 20083764     <common>
 0003:0001e768       _enemy_yaw                 20083768     <common>
 0003:0001e76c       _enemy_range               2008376c     <common>
 0003:0001e770       _enemy_infront             20083770     <common>
 0003:0001e774       ___alternate_form          20083774     <common>
 0003:0001e778       ___no_lead_zeros           20083778     <common>
 0003:0001e77c       ___mbcodepage              2008377c     <common>
 0003:0001e780       ___mbulinfo                20083780     <common>
 0003:0001e78c       ___ismbcodepage            2008378c     <common>
 0003:0001e7a0       __mbcasemap                200837a0     <common>
 0003:0001e8a0       __mbctype                  200838a0     <common>
 0003:0001e9a4       ___mblcid                  200839a4     <common>
 0003:0001e9c0       ___pioinfo                 200839c0     <common>
 0003:0001eac0       __nhandle                  20083ac0     <common>
 0003:0001eac4       ___setlc_active            20083ac4     <common>
 0003:0001eac8       ___unguarded_readlc_active 20083ac8     <common>
 0003:0001eacc       ___piob                    20083acc     <common>
 0003:0001eae0       __bufin                    20083ae0     <common>
 0003:0001fae0       __nstream                  20084ae0     <common>
 0003:0001fae4       ___sbh_sizeHeaderList      20084ae4     <common>
 0003:0001fae8       ___sbh_indGroupDefer       20084ae8     <common>
 0003:0001faec       ___sbh_pHeaderScan         20084aec     <common>
 0003:0001faf0       ___sbh_pHeaderDefer        20084af0     <common>
 0003:0001faf4       ___sbh_cntHeaderList       20084af4     <common>
 0003:0001faf8       ___sbh_pHeaderList         20084af8     <common>
 0003:0001fafc       ___env_initialized         20084afc     <common>
 0003:0001fb00       ___mbctype_initialized     20084b00     <common>
 0003:0001fb04       ___onexitend               20084b04     <common>
 0003:0001fb08       ___onexitbegin             20084b08     <common>
 0003:0001fb0c       __crtheap                  20084b0c     <common>
 0003:0001fb10       __pfnReportHook            20084b10     <common>
 0003:0001fb14       __acmdln                   20084b14     <common>
 0003:0001fb18       __pRawDllMain              20084b18     <common>
 0003:0001fb1c       __pfnDumpClient            20084b1c     <common>

 entry point at        0001:00043980

 Static symbols

 0001:0003ae00       _P_ProjectSource           2003be00 f   p_weapon.obj
 0001:00032270       _SP_CreateCoopSpots        20033270 f   p_client.obj
 0001:00032570       _SP_FixCoopSpots           20033570 f   p_client.obj
 0001:0002ec30       _parasite_drain_attack_ok  2002fc30 f   m_parasite.obj
 0001:0001dfd0       _fire_lead                 2001efd0 f   g_weapon.obj
 0001:0001ea10       _check_dodge               2001fa10 f   g_weapon.obj
 0001:0001eda0       _Grenade_Explode           2001fda0 f   g_weapon.obj
 0001:0001f080       _Grenade_Touch             20020080 f   g_weapon.obj
 0001:000189c0       _StringToFilter            200199c0 f   g_svcmds.obj
 0001:000131e0       _M_FliesOn                 200141e0 f   g_monster.obj
 0001:00013250       _M_FliesOff                20014250 f   g_monster.obj
 0001:0000f2b0       _light_use                 200102b0 f   g_misc.obj
 0001:000125f0       _func_clock_reset          200135f0 f   g_misc.obj
 0001:00012670       _func_clock_format_countdown 20013670 f   g_misc.obj
 0001:0000c880       _drop_temp_touch           2000d880 f   g_items.obj
 0001:0000c8c0       _drop_make_touchable       2000d8c0 f   g_items.obj
 0001:00005440       _CheckPowerArmor           20006440 f   g_combat.obj
 0001:00005670       _CheckArmor                20006670 f   g_combat.obj
 0001:00059dd0       _findenv                   2005add0 f   LIBCMTD:setenv.obj
 0001:00059e50       _copy_environ              2005ae50 f   LIBCMTD:setenv.obj
 0001:00059aa0       _strncnt                   2005aaa0 f   LIBCMTD:a_cmp.obj
 0001:000595bc       lupe                       2005a5bc f   LIBCMTD:strnicmp.obj
 0001:000595d4       skip1                      2005a5d4 f   LIBCMTD:strnicmp.obj
 0001:000595de       skip2                      2005a5de f   LIBCMTD:strnicmp.obj
 0001:000595e5       eject                      2005a5e5 f   LIBCMTD:strnicmp.obj
 0001:000595ef       differ                     2005a5ef f   LIBCMTD:strnicmp.obj
 0001:00059601       notclocale                 2005a601 f   LIBCMTD:strnicmp.obj
 0001:00059615       do_lock                    2005a615 f   LIBCMTD:strnicmp.obj
 0001:0005962e       end_lock                   2005a62e f   LIBCMTD:strnicmp.obj
 0001:00059634       lupe2                      2005a634 f   LIBCMTD:strnicmp.obj
 0001:0005965f       eject2                     2005a65f f   LIBCMTD:strnicmp.obj
 0001:00059665       differ2                    2005a665 f   LIBCMTD:strnicmp.obj
 0001:0005966e       toend2                     2005a66e f   LIBCMTD:strnicmp.obj
 0001:0005967c       do_unlock                  2005a67c f   LIBCMTD:strnicmp.obj
 0001:0005968a       end_unlock                 2005a68a f   LIBCMTD:strnicmp.obj
 0001:0005968a       toend                      2005a68a f   LIBCMTD:strnicmp.obj
 0001:00058390       __expandtime               20059390 f   LIBCMTD:strftime.obj
 0001:000589b0       __store_str                200599b0 f   LIBCMTD:strftime.obj
 0001:00058a00       __store_num                20059a00 f   LIBCMTD:strftime.obj
 0001:00058ab0       __store_number             20059ab0 f   LIBCMTD:strftime.obj
 0001:00058b60       __store_winword            20059b60 f   LIBCMTD:strftime.obj
 0001:00057190       _gu_return                 20058190 f   LIBCMTD:exsup.obj
 0001:00057198       __unwind_handler           20058198 f   LIBCMTD:exsup.obj
 0001:000564a0       _getSystemCP               200574a0 f   LIBCMTD:mbctype.obj
 0001:00056500       _CPtoLCID                  20057500 f   LIBCMTD:mbctype.obj
 0001:00056580       _setSBCS                   20057580 f   LIBCMTD:mbctype.obj
 0001:00056600       _setSBUpLow                20057600 f   LIBCMTD:mbctype.obj
 0001:00056100       _strncnt                   20057100 f   LIBCMTD:a_map.obj
 0001:00055250       _TranslateName             20056250 f   LIBCMTD:getqloc.obj
 0001:000552e0       _GetLcidFromLangCountry    200562e0 f   LIBCMTD:getqloc.obj
 0001:000553a0       _LangCountryEnumProc@4     200563a0 f   LIBCMTD:getqloc.obj
 0001:000556d0       _GetLcidFromLanguage       200566d0 f   LIBCMTD:getqloc.obj
 0001:00055750       _LanguageEnumProc@4        20056750 f   LIBCMTD:getqloc.obj
 0001:00055870       _GetLcidFromCountry        20056870 f   LIBCMTD:getqloc.obj
 0001:000558c0       _CountryEnumProc@4         200568c0 f   LIBCMTD:getqloc.obj
 0001:00055970       _GetLcidFromDefault        20056970 f   LIBCMTD:getqloc.obj
 0001:000559a0       _ProcessCodePage           200569a0 f   LIBCMTD:getqloc.obj
 0001:00055a40       _TestDefaultCountry        20056a40 f   LIBCMTD:getqloc.obj
 0001:00055a90       _TestDefaultLanguage       20056a90 f   LIBCMTD:getqloc.obj
 0001:00055b20       _IsThisWindowsNT           20056b20 f   LIBCMTD:getqloc.obj
 0001:00055b70       _crtGetLocaleInfoA@16      20056b70 f   LIBCMTD:getqloc.obj
 0001:00055d00       _LcidFromHexString         20056d00 f   LIBCMTD:getqloc.obj
 0001:00055d80       _GetPrimaryLen             20056d80 f   LIBCMTD:getqloc.obj
 0001:00055024       listnext                   20056024 f   LIBCMTD:strpbrk.obj
 0001:00055031       listdone                   20056031 f   LIBCMTD:strpbrk.obj
 0001:00055034       dstnext                    20056034 f   LIBCMTD:strpbrk.obj
 0001:00055044       dstdone                    20056044 f   LIBCMTD:strpbrk.obj
 0001:00054fe4       listnext                   20055fe4 f   LIBCMTD:strcspn.obj
 0001:00054ff1       listdone                   20055ff1 f   LIBCMTD:strcspn.obj
 0001:00054ff8       dstnext                    20055ff8 f   LIBCMTD:strcspn.obj
 0001:00055006       dstdone                    20056006 f   LIBCMTD:strcspn.obj
 0001:000548f0       __get_lc_lconv             200558f0 f   LIBCMTD:initmon.obj
 0001:00054b00       _fix_grouping              20055b00 f   LIBCMTD:initmon.obj
 0001:00054b80       __free_lc_lconv            20055b80 f   LIBCMTD:initmon.obj
 0001:00054740       _fix_grouping              20055740 f   LIBCMTD:initnum.obj
 0001:00053bf0       __get_lc_time              20054bf0 f   LIBCMTD:inittime.obj
 0001:00054180       __free_lc_time             20055180 f   LIBCMTD:inittime.obj
 0001:00053950       MORE32                     20054950 f   LIBCMTD:llshl.obj
 0001:0005395a       RETZERO                    2005495a f   LIBCMTD:llshl.obj
 0001:00051350       _ctrlevent_capture@4       20052350 f   LIBCMTD:winsig.obj
 0001:00051630       _siglookup                 20052630 f   LIBCMTD:winsig.obj
 0001:00050c80       _xtoa                      20051c80 f   LIBCMTD:xtoa.obj
 0001:00050e00       _x64toa@20                 20051e00 f   LIBCMTD:xtoa.obj
 0001:00050bd1       L1                         20051bd1 f   LIBCMTD:ullrem.obj
 0001:00050bdf       L3                         20051bdf f   LIBCMTD:ullrem.obj
 0001:00050c0a       L4                         20051c0a f   LIBCMTD:ullrem.obj
 0001:00050c12       L5                         20051c12 f   LIBCMTD:ullrem.obj
 0001:00050c21       L2                         20051c21 f   LIBCMTD:ullrem.obj
 0001:00050b62       L1                         20051b62 f   LIBCMTD:ulldiv.obj
 0001:00050b70       L3                         20051b70 f   LIBCMTD:ulldiv.obj
 0001:00050b9e       L4                         20051b9e f   LIBCMTD:ulldiv.obj
 0001:00050b9f       L5                         20051b9f f   LIBCMTD:ulldiv.obj
 0001:00050ba3       L2                         20051ba3 f   LIBCMTD:ulldiv.obj
 0001:000505a0       _xcptlookup                200515a0 f   LIBCMTD:winxfltr.obj
 0001:00050100       LeadUp1                    20051100 f   LIBCMTD:memmove.obj
 0001:0005012c       LeadUp2                    2005112c f   LIBCMTD:memmove.obj
 0001:00050150       LeadUp3                    20051150 f   LIBCMTD:memmove.obj
 0001:000501cf       UnwindUp0                  200511cf f   LIBCMTD:memmove.obj
 0001:000501bc       UnwindUp1                  200511bc f   LIBCMTD:memmove.obj
 0001:000501b4       UnwindUp2                  200511b4 f   LIBCMTD:memmove.obj
 0001:000501ac       UnwindUp3                  200511ac f   LIBCMTD:memmove.obj
 0001:000501a4       UnwindUp4                  200511a4 f   LIBCMTD:memmove.obj
 0001:0005019c       UnwindUp5                  2005119c f   LIBCMTD:memmove.obj
 0001:00050194       UnwindUp6                  20051194 f   LIBCMTD:memmove.obj
 0001:0005018c       UnwindUp7                  2005118c f   LIBCMTD:memmove.obj
 0001:000501e8       TrailUp0                   200511e8 f   LIBCMTD:memmove.obj
 0001:000501f0       TrailUp1                   200511f0 f   LIBCMTD:memmove.obj
 0001:000501fc       TrailUp2                   200511fc f   LIBCMTD:memmove.obj
 0001:00050210       TrailUp3                   20051210 f   LIBCMTD:memmove.obj
 0001:00050288       LeadDown1                  20051288 f   LIBCMTD:memmove.obj
 0001:000502a8       LeadDown2                  200512a8 f   LIBCMTD:memmove.obj
 0001:000502d0       LeadDown3                  200512d0 f   LIBCMTD:memmove.obj
 0001:00050324       UnwindDown7                20051324 f   LIBCMTD:memmove.obj
 0001:0005032c       UnwindDown6                2005132c f   LIBCMTD:memmove.obj
 0001:00050334       UnwindDown5                20051334 f   LIBCMTD:memmove.obj
 0001:0005033c       UnwindDown4                2005133c f   LIBCMTD:memmove.obj
 0001:00050344       UnwindDown3                20051344 f   LIBCMTD:memmove.obj
 0001:0005034c       UnwindDown2                2005134c f   LIBCMTD:memmove.obj
 0001:00050354       UnwindDown1                20051354 f   LIBCMTD:memmove.obj
 0001:00050367       UnwindDown0                20051367 f   LIBCMTD:memmove.obj
 0001:00050380       TrailDown0                 20051380 f   LIBCMTD:memmove.obj
 0001:00050388       TrailDown1                 20051388 f   LIBCMTD:memmove.obj
 0001:00050398       TrailDown2                 20051398 f   LIBCMTD:memmove.obj
 0001:000503ac       TrailDown3                 200513ac f   LIBCMTD:memmove.obj
 0001:000500b0       CopyUp                     200510b0 f   LIBCMTD:memmove.obj
 0001:000500cc       CopyLeadUp                 200510cc f   LIBCMTD:memmove.obj
 0001:000500e4       ByteCopyUp                 200510e4 f   LIBCMTD:memmove.obj
 0001:000500ec       CopyUnwindUp               200510ec f   LIBCMTD:memmove.obj
 0001:00050228       CopyDown                   20051228 f   LIBCMTD:memmove.obj
 0001:00050250       CopyUnwindDown             20051250 f   LIBCMTD:memmove.obj
 0001:0005025c       CopyLeadDown               2005125c f   LIBCMTD:memmove.obj
 0001:00050274       ByteCopyDown               20051274 f   LIBCMTD:memmove.obj
 0001:0004f230       __abstract_cw              20050230 f   LIBCMTD:ieee87.obj
 0001:0004f3b0       __hw_cw                    200503b0 f   LIBCMTD:ieee87.obj
 0001:0004f510       __abstract_sw              20050510 f   LIBCMTD:ieee87.obj
 0001:0004e860       _parse_cmdline             2004f860 f   LIBCMTD:stdargv.obj
 0001:0004da20       __setlocale_set_cat        2004ea20 f   LIBCMTD:setlocal.obj
 0001:0004dbc0       __setlocale_get_all        2004ebc0 f   LIBCMTD:setlocal.obj
 0001:0004d32c       fFATN2                     2004e32c f   LIBCMTD:87triga.obj
 0001:0004d3a2       _rtforatnby0               2004e3a2 f   LIBCMTD:87triga.obj
 0001:0004d385       _rtforatn20                2004e385 f   LIBCMTD:87triga.obj
 0001:0004cff0       __hextodec                 2004dff0 f   LIBCMTD:input.obj
 0001:0004d050       __inc                      2004e050 f   LIBCMTD:input.obj
 0001:0004d0b0       __un_inc                   2004e0b0 f   LIBCMTD:input.obj
 0001:0004d0d0       __whiteout                 2004e0d0 f   LIBCMTD:input.obj
 0001:0004ac60       _flsall                    2004bc60 f   LIBCMTD:fflush.obj
 0001:000499e0       __tzset_lk                 2004a9e0 f   LIBCMTD:tzset.obj
 0001:00049dc0       __isindst_lk               2004adc0 f   LIBCMTD:tzset.obj
 0001:0004a0c0       _cvtdate                   2004b0c0 f   LIBCMTD:tzset.obj
 0001:00047ba0       _doexit                    20048ba0 f   LIBCMTD:crt0dat.obj
 0001:00047cb0       __initterm                 20048cb0 f   LIBCMTD:crt0dat.obj
 0001:00046af0       __get_fname                20047af0 f   LIBCMTD:fpexcept.obj
 0001:00045c30       _CrtMessageWindow          20046c30 f   LIBCMTD:dbgrpt.obj
 0001:00045620       _write_char                20046620 f   LIBCMTD:output.obj
 0001:000456a0       _write_multi_char          200466a0 f   LIBCMTD:output.obj
 0001:000456e0       _write_string              200466e0 f   LIBCMTD:output.obj
 0001:00045730       _get_int_arg               20046730 f   LIBCMTD:output.obj
 0001:00045750       _get_int64_arg             20046750 f   LIBCMTD:output.obj
 0001:00045770       _get_short_arg             20046770 f   LIBCMTD:output.obj
 0001:00044649       hard                       20045649 f   LIBCMTD:llmul.obj
 0001:00043e20       __cftoe2                   20044e20 f   LIBCMTD:cvt.obj
 0001:00044000       __cftof2                   20045000 f   LIBCMTD:cvt.obj
 0001:00044290       __shift                    20045290 f   LIBCMTD:cvt.obj
 0001:0004378c       chk_null                   2004478c f   LIBCMTD:stricmp.obj
 0001:000437be       done                       200447be f   LIBCMTD:stricmp.obj
 0001:000437c3       notclocale                 200447c3 f   LIBCMTD:stricmp.obj
 0001:000437d7       do_lock                    200447d7 f   LIBCMTD:stricmp.obj
 0001:000437ec       end_lock                   200447ec f   LIBCMTD:stricmp.obj
 0001:000437f4       chk_null2                  200447f4 f   LIBCMTD:stricmp.obj
 0001:0004381f       done2                      2004481f f   LIBCMTD:stricmp.obj
 0001:0004382f       do_unlock                  2004482f f   LIBCMTD:stricmp.obj
 0001:00043839       end_unlock                 20044839 f   LIBCMTD:stricmp.obj
 0001:0004383b       doret                      2004483b f   LIBCMTD:stricmp.obj
 0001:000436ed       main_loop                  200446ed f   LIBCMTD:memcmp.obj
 0001:0004370a       done                       2004470a f   LIBCMTD:memcmp.obj
 0001:0004370c       retnull                    2004470c f   LIBCMTD:memcmp.obj
 0001:0004370d       dwords                     2004470d f   LIBCMTD:memcmp.obj
 0001:00043735       difference_in_tail         20044735 f   LIBCMTD:memcmp.obj
 0001:0004373a       not_equal                  2004473a f   LIBCMTD:memcmp.obj
 0001:00043742       tail_loop_start            20044742 f   LIBCMTD:memcmp.obj
 0001:00043769       tail_done                  20044769 f   LIBCMTD:memcmp.obj
 0001:0004366a       okay                       2004466a f   LIBCMTD:strncmp.obj
 0001:0004367d       firstbig                   2004467d f   LIBCMTD:strncmp.obj
 0001:0004367f       lastbig                    2004467f f   LIBCMTD:strncmp.obj
 0001:00043681       toend                      20044681 f   LIBCMTD:strncmp.obj
 0001:00043620       _$$$00001                  20044620 f   LIBCMTD:chkstk.obj
 0001:0004362c       probepages                 2004462c f   LIBCMTD:chkstk.obj
 0001:00043640       lastpage                   20044640 f   LIBCMTD:chkstk.obj
 0001:00043378       findnext                   20044378 f   LIBCMTD:strstr.obj
 0001:00043389       loop_start                 20044389 f   LIBCMTD:strstr.obj
 0001:0004338c       in_loop                    2004438c f   LIBCMTD:strstr.obj
 0001:00043394       not_found                  20044394 f   LIBCMTD:strstr.obj
 0001:0004339a       first_char_found           2004439a f   LIBCMTD:strstr.obj
 0001:000433a1       two_first_chars_equal      200443a1 f   LIBCMTD:strstr.obj
 0001:000433a4       compare_loop               200443a4 f   LIBCMTD:strstr.obj
 0001:000433c7       strchr_call                200443c7 f   LIBCMTD:strstr.obj
 0001:000433d3       match                      200443d3 f   LIBCMTD:strstr.obj
 0001:000433da       empty_str2                 200443da f   LIBCMTD:strstr.obj
 0001:000431b4       src_misaligned             200441b4 f   LIBCMTD:strncpy.obj
 0001:000431d0       tail_loop_start            200441d0 f   LIBCMTD:strncpy.obj
 0001:000431d5       copy_tail_loop             200441d5 f   LIBCMTD:strncpy.obj
 0001:000431e2       fill_tail_end1             200441e2 f   LIBCMTD:strncpy.obj
 0001:000431ea       align_dest                 200441ea f   LIBCMTD:strncpy.obj
 0001:000431f2       dest_align_loop            200441f2 f   LIBCMTD:strncpy.obj
 0001:00043204       dest_align_loop_end        20044204 f   LIBCMTD:strncpy.obj
 0001:0004320b       finish_loop                2004420b f   LIBCMTD:strncpy.obj
 0001:0004320e       fill_tail_zero_bytes       2004420e f   LIBCMTD:strncpy.obj
 0001:00043213       finish                     20044213 f   LIBCMTD:strncpy.obj
 0001:00043219       main_loop                  20044219 f   LIBCMTD:strncpy.obj
 0001:00043221       main_loop_entrance         20044221 f   LIBCMTD:strncpy.obj
 0001:00043257       byte_2                     20044257 f   LIBCMTD:strncpy.obj
 0001:00043261       byte_1                     20044261 f   LIBCMTD:strncpy.obj
 0001:0004326b       byte_0                     2004426b f   LIBCMTD:strncpy.obj
 0001:0004326f       fill_with_EOS_dwords       2004426f f   LIBCMTD:strncpy.obj
 0001:00043277       fill_dwords_with_EOS       20044277 f   LIBCMTD:strncpy.obj
 0001:00043279       fill_with_EOS_loop         20044279 f   LIBCMTD:strncpy.obj
 0001:00043281       fill_tail                  20044281 f   LIBCMTD:strncpy.obj
 0001:00043286       fill_tail_end              20044286 f   LIBCMTD:strncpy.obj
 0001:00042ef3       adjust_loop                20043ef3 f   LIBCMTD:memset.obj
 0001:00042ef9       dwords                     20043ef9 f   LIBCMTD:memset.obj
 0001:00042f13       main_loop_tail             20043f13 f   LIBCMTD:memset.obj
 0001:00042f17       tail                       20043f17 f   LIBCMTD:memset.obj
 0001:00042f1d       finish                     20043f1d f   LIBCMTD:memset.obj
 0001:00042f23       toend                      20043f23 f   LIBCMTD:memset.obj
 0001:00040930       _realloc_help              20041930 f   LIBCMTD:dbgheap.obj
 0001:00041570       _CheckBytes                20042570 f   LIBCMTD:dbgheap.obj
 0001:00042160       __printMemBlockData        20043160 f   LIBCMTD:dbgheap.obj
 0001:00040070       LeadUp1                    20041070 f   LIBCMTD:memcpy.obj
 0001:0004009c       LeadUp2                    2004109c f   LIBCMTD:memcpy.obj
 0001:000400c0       LeadUp3                    200410c0 f   LIBCMTD:memcpy.obj
 0001:0004013f       UnwindUp0                  2004113f f   LIBCMTD:memcpy.obj
 0001:0004012c       UnwindUp1                  2004112c f   LIBCMTD:memcpy.obj
 0001:00040124       UnwindUp2                  20041124 f   LIBCMTD:memcpy.obj
 0001:0004011c       UnwindUp3                  2004111c f   LIBCMTD:memcpy.obj
 0001:00040114       UnwindUp4                  20041114 f   LIBCMTD:memcpy.obj
 0001:0004010c       UnwindUp5                  2004110c f   LIBCMTD:memcpy.obj
 0001:00040104       UnwindUp6                  20041104 f   LIBCMTD:memcpy.obj
 0001:000400fc       UnwindUp7                  200410fc f   LIBCMTD:memcpy.obj
 0001:00040158       TrailUp0                   20041158 f   LIBCMTD:memcpy.obj
 0001:00040160       TrailUp1                   20041160 f   LIBCMTD:memcpy.obj
 0001:0004016c       TrailUp2                   2004116c f   LIBCMTD:memcpy.obj
 0001:00040180       TrailUp3                   20041180 f   LIBCMTD:memcpy.obj
 0001:000401f8       LeadDown1                  200411f8 f   LIBCMTD:memcpy.obj
 0001:00040218       LeadDown2                  20041218 f   LIBCMTD:memcpy.obj
 0001:00040240       LeadDown3                  20041240 f   LIBCMTD:memcpy.obj
 0001:00040294       UnwindDown7                20041294 f   LIBCMTD:memcpy.obj
 0001:0004029c       UnwindDown6                2004129c f   LIBCMTD:memcpy.obj
 0001:000402a4       UnwindDown5                200412a4 f   LIBCMTD:memcpy.obj
 0001:000402ac       UnwindDown4                200412ac f   LIBCMTD:memcpy.obj
 0001:000402b4       UnwindDown3                200412b4 f   LIBCMTD:memcpy.obj
 0001:000402bc       UnwindDown2                200412bc f   LIBCMTD:memcpy.obj
 0001:000402c4       UnwindDown1                200412c4 f   LIBCMTD:memcpy.obj
 0001:000402d7       UnwindDown0                200412d7 f   LIBCMTD:memcpy.obj
 0001:000402f0       TrailDown0                 200412f0 f   LIBCMTD:memcpy.obj
 0001:000402f8       TrailDown1                 200412f8 f   LIBCMTD:memcpy.obj
 0001:00040308       TrailDown2                 20041308 f   LIBCMTD:memcpy.obj
 0001:0004031c       TrailDown3                 2004131c f   LIBCMTD:memcpy.obj
 0001:00040020       CopyUp                     20041020 f   LIBCMTD:memcpy.obj
 0001:0004003c       CopyLeadUp                 2004103c f   LIBCMTD:memcpy.obj
 0001:00040054       ByteCopyUp                 20041054 f   LIBCMTD:memcpy.obj
 0001:0004005c       CopyUnwindUp               2004105c f   LIBCMTD:memcpy.obj
 0001:00040198       CopyDown                   20041198 f   LIBCMTD:memcpy.obj
 0001:000401c0       CopyUnwindDown             200411c0 f   LIBCMTD:memcpy.obj
 0001:000401cc       CopyLeadDown               200411cc f   LIBCMTD:memcpy.obj
 0001:000401e4       ByteCopyDown               200411e4 f   LIBCMTD:memcpy.obj
 0001:0003fa00       _shortsort                 20040a00 f   LIBCMTD:qsort.obj
 0001:0003fa70       _swap                      20040a70 f   LIBCMTD:qsort.obj
 0001:0003f74c       str_misaligned             2004074c f   LIBCMTD:strlen.obj
 0001:0003f760       main_loop                  20040760 f   LIBCMTD:strlen.obj
 0001:0003f793       byte_3                     20040793 f   LIBCMTD:strlen.obj
 0001:0003f79d       byte_2                     2004079d f   LIBCMTD:strlen.obj
 0001:0003f7a7       byte_1                     200407a7 f   LIBCMTD:strlen.obj
 0001:0003f7b1       byte_0                     200407b1 f   LIBCMTD:strlen.obj
 0001:0003f41d       dest_misaligned            2004041d f   LIBCMTD:strcat.obj
 0001:0003f42c       find_end_of_dest_string_loop 2004042c f   LIBCMTD:strcat.obj
 0001:0003f45f       start_byte_3               2004045f f   LIBCMTD:strcat.obj
 0001:0003f464       start_byte_2               20040464 f   LIBCMTD:strcat.obj
 0001:0003f469       start_byte_1               20040469 f   LIBCMTD:strcat.obj
 0001:0003f46e       start_byte_0               2004046e f   LIBCMTD:strcat.obj
 0001:0003f47d       src_misaligned             2004047d f   LIBCMTD:strcat.obj
 0001:0003f491       main_loop                  20040491 f   LIBCMTD:strcat.obj
 0001:0003f496       main_loop_entrance         20040496 f   LIBCMTD:strcat.obj
 0001:0003f4ca       byte_3                     200404ca f   LIBCMTD:strcat.obj
 0001:0003f4d2       byte_2                     200404d2 f   LIBCMTD:strcat.obj
 0001:0003f4df       byte_1                     200404df f   LIBCMTD:strcat.obj
 0001:0003f4e8       byte_0                     200404e8 f   LIBCMTD:strcat.obj
 0001:0003f471       copy_start                 20040471 f   LIBCMTD:strcat.obj
 0001:0003f330       _$$$00001                  20040330 f   LIBCMTD:strchr.obj
 0001:0003f358       str_misaligned             20040358 f   LIBCMTD:strchr.obj
 0001:0003f36b       main_loop_start            2004036b f   LIBCMTD:strchr.obj
 0001:0003f376       main_loop                  20040376 f   LIBCMTD:strchr.obj
 0001:0003f3b2       retnull                    200403b2 f   LIBCMTD:strchr.obj
 0001:0003f3b4       retnull_bx                 200403b4 f   LIBCMTD:strchr.obj
 0001:0003f3b8       chr_is_found               200403b8 f   LIBCMTD:strchr.obj
 0001:0003f3e0       byte_3                     200403e0 f   LIBCMTD:strchr.obj
 0001:0003f3e7       byte_2                     200403e7 f   LIBCMTD:strchr.obj
 0001:0003f3ee       byte_1                     200403ee f   LIBCMTD:strchr.obj
 0001:0003f3f5       byte_0                     200403f5 f   LIBCMTD:strchr.obj
 0001:0003f330       found_bx                   20040330 f   LIBCMTD:strchr.obj
 0001:0003f2b0       dodwords                   200402b0 f   LIBCMTD:strcmp.obj
 0001:0003f2e0       doneeq                     200402e0 f   LIBCMTD:strcmp.obj
 0001:0003f2e4       donene                     200402e4 f   LIBCMTD:strcmp.obj
 0001:0003f2ec       dopartial                  200402ec f   LIBCMTD:strcmp.obj
 0001:0003f308       doword                     20040308 f   LIBCMTD:strcmp.obj
